 Soma

 Timestamp is 3a802d34 (Wed Feb 07 01:58:28 2001)

 Preferred load address is 00400000

 Start         Length     Name                   Class
 0001:00000000 000ea4aeH .text                   CODE
 0001:000ea4b0 0000002aH .text$AFX_COL1          CODE
 0001:000ea4e0 000078e8H .text$x                 CODE
 0002:00000000 00006f6cH .rdata                  DATA
 0002:00006f70 00000044H .rdata$r                DATA
 0002:00006fb8 000071d0H .xdata$x                DATA
 0002:0000e188 00000000H .edata                  DATA
 0003:00000000 00000004H .CRT$XCA                DATA
 0003:00000004 00000004H .CRT$XCL                DATA
 0003:00000008 00000130H .CRT$XCU                DATA
 0003:00000138 00000004H .CRT$XCZ                DATA
 0003:0000013c 00000004H .CRT$XIA                DATA
 0003:00000140 00000004H .CRT$XIZ                DATA
 0003:00000150 00001839H .data                   DATA
 0003:00001990 001a41c8H .bss                    DATA
 0004:00000000 000000dcH .idata$2                DATA
 0004:000000dc 00000014H .idata$3                DATA
 0004:000000f0 00000a48H .idata$4                DATA
 0004:00000b38 00000a48H .idata$5                DATA
 0004:00001580 00001908H .idata$6                DATA
 0005:00000000 000004c0H .rsrc$01                DATA
 0005:000004c0 00002158H .rsrc$02                DATA

  Address         Publics by Value              Rva+Base     Lib:Object

 0001:00000000       ??0_TILE_SUB_SET_DATA_TOOL@@QAE@XZ 00401000 f   _tile_sub_set_data_tool.obj
 0001:00000070       ??_G_TILE_SUB_SET_DATA_TOOL@@UAEPAXI@Z 00401070 f i _tile_sub_set_data_tool.obj
 0001:000000d0       ??1_TILE_SUB_SET_DATA_TOOL@@UAE@XZ 004010d0 f   _tile_sub_set_data_tool.obj
 0001:00000110       ?Save@_TILE_SUB_SET_DATA_TOOL@@QAEXAAVCFile@@@Z 00401110 f   _tile_sub_set_data_tool.obj
 0001:00000240       ?Load@_TILE_SUB_SET_DATA_TOOL@@QAEXAAVCFile@@@Z 00401240 f   _tile_sub_set_data_tool.obj
 0001:00000400       ?Alloc@_TILE_SUB_SET_DATA_TOOL@@QAEHHH@Z 00401400 f   _tile_sub_set_data_tool.obj
 0001:000005a0       ?Release@_TILE_SUB_SET_DATA_TOOL@@QAEXXZ 004015a0 f   _tile_sub_set_data_tool.obj
 0001:00000670       ??4_TILE_SUB_SET_DATA_TOOL@@QAEAAV0@AAV0@@Z 00401670 f   _tile_sub_set_data_tool.obj
 0001:00000800       ?Increase@_TILE_SUB_SET_DATA_TOOL@@QAEHH@Z 00401800 f   _tile_sub_set_data_tool.obj
 0001:00000850       ?Decrease@_TILE_SUB_SET_DATA_TOOL@@QAEHH@Z 00401850 f   _tile_sub_set_data_tool.obj
 0001:000008a0       ?Increase@_TILE_SUB_SET_DATA_TOOL@@QAEXXZ 004018a0 f   _tile_sub_set_data_tool.obj
 0001:000008f0       ?Decrease@_TILE_SUB_SET_DATA_TOOL@@QAEXXZ 004018f0 f   _tile_sub_set_data_tool.obj
 0001:00000940       ??0CArmature@@QAE@XZ       00401940 f   Armature.obj
 0001:000009d0       ??_GCArmature@@UAEPAXI@Z   004019d0 f i Armature.obj
 0001:000009d0       ??_ECArmature@@UAEPAXI@Z   004019d0 f i Armature.obj
 0001:00000a30       ??1CArmature@@UAE@XZ       00401a30 f   Armature.obj
 0001:00000a60       ?ReadyData@CArmature@@QAEXHHW4UserDirection@CUser@@@Z 00401a60 f   Armature.obj
 0001:00000bc0       ??0ARMATURE_RES@@QAE@XZ    00401bc0 f   ArmatureManager.obj
 0001:00000c10       ??1ARMATURE_RES@@QAE@XZ    00401c10 f   ArmatureManager.obj
 0001:00000c50       ??0CArmatureManager@@QAE@XZ 00401c50 f   ArmatureManager.obj
 0001:00000ce0       ??_GCArmatureManager@@UAEPAXI@Z 00401ce0 f i ArmatureManager.obj
 0001:00000ce0       ??_ECArmatureManager@@UAEPAXI@Z 00401ce0 f i ArmatureManager.obj
 0001:00000d40       ??_F?$CMap@HHPAVARMATURE_RES@@PAV1@@@QAEXXZ 00401d40 f i ArmatureManager.obj
 0001:00000d80       ??1CArmatureManager@@UAE@XZ 00401d80 f   ArmatureManager.obj
 0001:00000e10       ?RemoveAllData@CArmatureManager@@QAEXXZ 00401e10 f   ArmatureManager.obj
 0001:00000ed0       ??_GARMATURE_RES@@QAEPAXI@Z 00401ed0 f i ArmatureManager.obj
 0001:00000f30       ?LoadAllArmatureRes@CArmatureManager@@QAEXXZ 00401f30 f   ArmatureManager.obj
 0001:00001240       ?LoadArmatureRes@CArmatureManager@@QAEHHH@Z 00402240 f   ArmatureManager.obj
 0001:00001440       ?UnloadArmatureRes@CArmatureManager@@QAEXHH@Z 00402440 f   ArmatureManager.obj
 0001:00001500       ?GetTypeIndexedArmature@CArmatureManager@@QAEPAVCArmatureRes@@HH@Z 00402500 f   ArmatureManager.obj
 0001:00001560       ??0?$CMap@HHPAVARMATURE_RES@@PAV1@@@QAE@H@Z 00402560 f i ArmatureManager.obj
 0001:00001630       ?Lookup@?$CMap@HHPAVARMATURE_RES@@PAV1@@@QBEHHAAPAVARMATURE_RES@@@Z 00402630 f i ArmatureManager.obj
 0001:000016a0       ??A?$CMap@HHPAVARMATURE_RES@@PAV1@@@QAEAAPAVARMATURE_RES@@H@Z 004026a0 f i ArmatureManager.obj
 0001:00001760       ?RemoveKey@?$CMap@HHPAVARMATURE_RES@@PAV1@@@QAEHH@Z 00402760 f i ArmatureManager.obj
 0001:00001820       ?RemoveAll@?$CMap@HHPAVARMATURE_RES@@PAV1@@@QAEXXZ 00402820 f i ArmatureManager.obj
 0001:00001910       ?GetStartPosition@?$CMap@HHPAVARMATURE_RES@@PAV1@@@QBEPAU__POSITION@@XZ 00402910 f i ArmatureManager.obj
 0001:00001940       ?GetNextAssoc@?$CMap@HHPAVARMATURE_RES@@PAV1@@@QBEXAAPAU__POSITION@@AAHAAPAVARMATURE_RES@@@Z 00402940 f i ArmatureManager.obj
 0001:00001ac0       ??1?$CMap@HHPAVARMATURE_RES@@PAV1@@@UAE@XZ 00402ac0 f i ArmatureManager.obj
 0001:00001b60       ?Serialize@?$CMap@HHPAVARMATURE_RES@@PAV1@@@UAEXAAVCArchive@@@Z 00402b60 f i ArmatureManager.obj
 0001:00001cb0       ?Dump@?$CMap@HHPAVARMATURE_RES@@PAV1@@@UBEXAAVCDumpContext@@@Z 00402cb0 f i ArmatureManager.obj
 0001:00001d90       ?AssertValid@?$CMap@HHPAVARMATURE_RES@@PAV1@@@UBEXXZ 00402d90 f i ArmatureManager.obj
 0001:00001e20       ??_G?$CMap@HHPAVARMATURE_RES@@PAV1@@@UAEPAXI@Z 00402e20 f i ArmatureManager.obj
 0001:00001e20       ??_E?$CMap@HHPAVARMATURE_RES@@PAV1@@@UAEPAXI@Z 00402e20 f i ArmatureManager.obj
 0001:00001e70       ?SetAt@?$CMap@HHPAVARMATURE_RES@@PAV1@@@QAEXHPAVARMATURE_RES@@@Z 00402e70 f i ArmatureManager.obj
 0001:00001ec0       ?InitHashTable@?$CMap@HHPAVARMATURE_RES@@PAV1@@@QAEXIH@Z 00402ec0 f i ArmatureManager.obj
 0001:00001fc0       ?NewAssoc@?$CMap@HHPAVARMATURE_RES@@PAV1@@@IAEPAUCAssoc@1@XZ 00402fc0 f i ArmatureManager.obj
 0001:00002100       ?FreeAssoc@?$CMap@HHPAVARMATURE_RES@@PAV1@@@IAEXPAUCAssoc@1@@Z 00403100 f i ArmatureManager.obj
 0001:000021b0       ?GetAssocAt@?$CMap@HHPAVARMATURE_RES@@PAV1@@@IBEPAUCAssoc@1@HAAI@Z 004031b0 f i ArmatureManager.obj
 0001:00002250       ?HashKey@@YGIH@Z           00403250 f i ArmatureManager.obj
 0001:00002280       ?CompareElements@@YGHPBH0@Z 00403280 f i ArmatureManager.obj
 0001:00002310       ?DestructElements@@YGXPAPAVARMATURE_RES@@H@Z 00403310 f i ArmatureManager.obj
 0001:00002390       ?DestructElements@@YGXPAHH@Z 00403390 f i ArmatureManager.obj
 0001:00002410       ?SerializeElements@@YGXAAVCArchive@@PAHH@Z 00403410 f i ArmatureManager.obj
 0001:000024b0       ?SerializeElements@@YGXAAVCArchive@@PAPAVARMATURE_RES@@H@Z 004034b0 f i ArmatureManager.obj
 0001:00002550       ?DumpElements@@YGXAAVCDumpContext@@PBHH@Z 00403550 f i ArmatureManager.obj
 0001:000025b0       ?DumpElements@@YGXAAVCDumpContext@@PBQAVARMATURE_RES@@H@Z 004035b0 f i ArmatureManager.obj
 0001:00002610       ?ConstructElements@@YGXPAHH@Z 00403610 f i ArmatureManager.obj
 0001:000026c0       ??2@YAPAXIPAX@Z            004036c0 f i ArmatureManager.obj
 0001:000026f0       ?ConstructElements@@YGXPAPAVARMATURE_RES@@H@Z 004036f0 f i ArmatureManager.obj
 0001:000027a0       ??0CArmatureRes@@QAE@XZ    004037a0 f   ArmatureRes.obj
 0001:00002820       ??_ECArmatureRes@@UAEPAXI@Z 00403820 f i ArmatureRes.obj
 0001:00002820       ??_GCArmatureRes@@UAEPAXI@Z 00403820 f i ArmatureRes.obj
 0001:00002880       ??1CArmatureRes@@UAE@XZ    00403880 f   ArmatureRes.obj
 0001:00002960       ??_GSPR_DATA@@QAEPAXI@Z    00403960 f i ArmatureRes.obj
 0001:000029c0       ?SetArmatureInfo@CArmatureRes@@QAEHVCString@@HH@Z 004039c0 f   ArmatureRes.obj
 0001:00002ad0       ?LoadElement@CArmatureRes@@QAEHH@Z 00403ad0 f   ArmatureRes.obj
 0001:00002ff0       ?GetPixelFormat@CCharManager@@QAEHXZ 00403ff0 f i ArmatureRes.obj
 0001:00003020       ?LoadArmature@CArmatureRes@@QAEHVCString@@HH@Z 00404020 f   ArmatureRes.obj
 0001:00003530       ?GetSprData@CArmatureRes@@QAEPAVSPR_DATA@@H@Z 00404530 f   ArmatureRes.obj
 0001:000035b0       ??0CArrow@@QAE@XZ          004045b0 f   Arrow.obj
 0001:00003630       ??_ECArrow@@UAEPAXI@Z      00404630 f i Arrow.obj
 0001:00003630       ??_GCArrow@@UAEPAXI@Z      00404630 f i Arrow.obj
 0001:00003690       ??0CArrow@@QAE@ABV0@@Z     00404690 f   Arrow.obj
 0001:00003760       ??0CArrow@@QAE@HVCPoint@@0HHH@Z 00404760 f   Arrow.obj
 0001:00003880       ??4CArrow@@QAEAAV0@ABV0@@Z 00404880 f   Arrow.obj
 0001:00003910       ??1CArrow@@UAE@XZ          00404910 f   Arrow.obj
 0001:00003960       ?DrawLine@CArrow@@QAEXPAVCDDSurface@@VCPoint@@1K@Z 00404960 f   Arrow.obj
 0001:00003a70       ?Draw@CArrow@@QAEHPAVCDDSurface@@PAVCAniObjLSP@@@Z 00404a70 f   Arrow.obj
 0001:00003b50       ?Setrad@CArrow@@SAXXZ      00404b50 f   Arrow.obj
 0001:00003c60       ?SetDirection@CArrow@@QAEHXZ 00404c60 f   Arrow.obj
 0001:00003eb0       ?Move@CArrow@@QAEHXZ       00404eb0 f   Arrow.obj
 0001:000040c0       ?GetPosition@CUser@@QAEAAVCPoint@@XZ 004050c0 f i Arrow.obj
 0001:000040f0       ?GetRoute@CArrow@@QAEHH@Z  004050f0 f   Arrow.obj
 0001:000043b0       ??0CArrowManager@@QAE@XZ   004053b0 f   Arrow.obj
 0001:00004440       ??_GCArrowManager@@UAEPAXI@Z 00405440 f i Arrow.obj
 0001:00004440       ??_ECArrowManager@@UAEPAXI@Z 00405440 f i Arrow.obj
 0001:000044a0       ??1CArrowManager@@UAE@XZ   004054a0 f   Arrow.obj
 0001:00004610       ?Add@CArrowManager@@QAEXHVCPoint@@0HHH@Z 00405610 f   Arrow.obj
 0001:00004770       ?GetDirection@CArrow@@QAEHXZ 00405770 f i Arrow.obj
 0001:000047a0       ?GetIndexedBlood@CArrowManager@@QAEPAVCAniObjLSP@@H@Z 004057a0 f   Arrow.obj
 0001:000047f0       ?Load@CArrowManager@@QAEHHH@Z 004057f0 f   Arrow.obj
 0001:00004a00       ?AddRef@CAniObjLSP@@QAEXXZ 00405a00 f i Arrow.obj
 0001:00004a40       ?DrawArrow@CArrowManager@@QAEHPAVCDDSurface@@@Z 00405a40 f   Arrow.obj
 0001:00004c20       ?Release@CAniObjLSP@@QAEHXZ 00405c20 f i Arrow.obj
 0001:00004c70       ?GetArrowKind@CArrow@@QAEHXZ 00405c70 f i Arrow.obj
 0001:00004ca0       ??0?$CArray@VCPoint@@V1@@@QAE@XZ 00405ca0 f i Arrow.obj
 0001:00004d10       ?GetSize@?$CArray@VCPoint@@V1@@@QBEHXZ 00405d10 f i Arrow.obj
 0001:00004d40       ?GetAt@?$CArray@VCPoint@@V1@@@QBE?AVCPoint@@H@Z 00405d40 f i Arrow.obj
 0001:00004dc0       ?Add@?$CArray@VCPoint@@V1@@@QAEHVCPoint@@@Z 00405dc0 f i Arrow.obj
 0001:00004e10       ?RemoveAt@?$CArray@VCPoint@@V1@@@QAEXHH@Z 00405e10 f i Arrow.obj
 0001:00004f30       ??1?$CArray@VCPoint@@V1@@@UAE@XZ 00405f30 f i Arrow.obj
 0001:00004fe0       ?Serialize@?$CArray@VCPoint@@V1@@@UAEXAAVCArchive@@@Z 00405fe0 f i Arrow.obj
 0001:00005080       ?Dump@?$CArray@VCPoint@@V1@@@UBEXAAVCDumpContext@@@Z 00406080 f i Arrow.obj
 0001:00005120       ?AssertValid@?$CArray@VCPoint@@V1@@@UBEXXZ 00406120 f i Arrow.obj
 0001:00005250       ??0?$CArray@PAVCArrow@@PAV1@@@QAE@XZ 00406250 f i Arrow.obj
 0001:000052c0       ?GetSize@?$CArray@PAVCArrow@@PAV1@@@QBEHXZ 004062c0 f i Arrow.obj
 0001:000052f0       ?GetAt@?$CArray@PAVCArrow@@PAV1@@@QBEPAVCArrow@@H@Z 004062f0 f i Arrow.obj
 0001:00005360       ?Add@?$CArray@PAVCArrow@@PAV1@@@QAEHPAVCArrow@@@Z 00406360 f i Arrow.obj
 0001:000053b0       ?RemoveAt@?$CArray@PAVCArrow@@PAV1@@@QAEXHH@Z 004063b0 f i Arrow.obj
 0001:000054d0       ??1?$CArray@PAVCArrow@@PAV1@@@UAE@XZ 004064d0 f i Arrow.obj
 0001:00005580       ?Serialize@?$CArray@PAVCArrow@@PAV1@@@UAEXAAVCArchive@@@Z 00406580 f i Arrow.obj
 0001:00005620       ?Dump@?$CArray@PAVCArrow@@PAV1@@@UBEXAAVCDumpContext@@@Z 00406620 f i Arrow.obj
 0001:000056c0       ?AssertValid@?$CArray@PAVCArrow@@PAV1@@@UBEXXZ 004066c0 f i Arrow.obj
 0001:000057f0       ??0?$CMap@HHPAVCAniObjLSP@@PAV1@@@QAE@H@Z 004067f0 f i Arrow.obj
 0001:000058c0       ?Lookup@?$CMap@HHPAVCAniObjLSP@@PAV1@@@QBEHHAAPAVCAniObjLSP@@@Z 004068c0 f i Arrow.obj
 0001:00005930       ??A?$CMap@HHPAVCAniObjLSP@@PAV1@@@QAEAAPAVCAniObjLSP@@H@Z 00406930 f i Arrow.obj
 0001:000059f0       ?RemoveKey@?$CMap@HHPAVCAniObjLSP@@PAV1@@@QAEHH@Z 004069f0 f i Arrow.obj
 0001:00005ab0       ?RemoveAll@?$CMap@HHPAVCAniObjLSP@@PAV1@@@QAEXXZ 00406ab0 f i Arrow.obj
 0001:00005ba0       ?GetStartPosition@?$CMap@HHPAVCAniObjLSP@@PAV1@@@QBEPAU__POSITION@@XZ 00406ba0 f i Arrow.obj
 0001:00005bd0       ?GetNextAssoc@?$CMap@HHPAVCAniObjLSP@@PAV1@@@QBEXAAPAU__POSITION@@AAHAAPAVCAniObjLSP@@@Z 00406bd0 f i Arrow.obj
 0001:00005d50       ??1?$CMap@HHPAVCAniObjLSP@@PAV1@@@UAE@XZ 00406d50 f i Arrow.obj
 0001:00005df0       ?Serialize@?$CMap@HHPAVCAniObjLSP@@PAV1@@@UAEXAAVCArchive@@@Z 00406df0 f i Arrow.obj
 0001:00005f40       ?Dump@?$CMap@HHPAVCAniObjLSP@@PAV1@@@UBEXAAVCDumpContext@@@Z 00406f40 f i Arrow.obj
 0001:00006020       ?AssertValid@?$CMap@HHPAVCAniObjLSP@@PAV1@@@UBEXXZ 00407020 f i Arrow.obj
 0001:000060b0       ??_G?$CArray@VCPoint@@V1@@@UAEPAXI@Z 004070b0 f i Arrow.obj
 0001:000060b0       ??_E?$CArray@VCPoint@@V1@@@UAEPAXI@Z 004070b0 f i Arrow.obj
 0001:00006100       ??_E?$CArray@PAVCArrow@@PAV1@@@UAEPAXI@Z 00407100 f i Arrow.obj
 0001:00006100       ??_G?$CArray@PAVCArrow@@PAV1@@@UAEPAXI@Z 00407100 f i Arrow.obj
 0001:00006150       ??_E?$CMap@HHPAVCAniObjLSP@@PAV1@@@UAEPAXI@Z 00407150 f i Arrow.obj
 0001:00006150       ??_G?$CMap@HHPAVCAniObjLSP@@PAV1@@@UAEPAXI@Z 00407150 f i Arrow.obj
 0001:000061a0       ?SetSize@?$CArray@VCPoint@@V1@@@QAEXHH@Z 004071a0 f i Arrow.obj
 0001:000064c0       ?SetAtGrow@?$CArray@VCPoint@@V1@@@QAEXHVCPoint@@@Z 004074c0 f i Arrow.obj
 0001:00006560       ?DestructElements@@YGXPAVCPoint@@H@Z 00407560 f i Arrow.obj
 0001:000065e0       ?SerializeElements@@YGXAAVCArchive@@PAVCPoint@@H@Z 004075e0 f i Arrow.obj
 0001:00006680       ?DumpElements@@YGXAAVCDumpContext@@PBVCPoint@@H@Z 00407680 f i Arrow.obj
 0001:000066e0       ?SetSize@?$CArray@PAVCArrow@@PAV1@@@QAEXHH@Z 004076e0 f i Arrow.obj
 0001:00006a00       ?SetAtGrow@?$CArray@PAVCArrow@@PAV1@@@QAEXHPAVCArrow@@@Z 00407a00 f i Arrow.obj
 0001:00006a90       ?DestructElements@@YGXPAPAVCArrow@@H@Z 00407a90 f i Arrow.obj
 0001:00006b10       ?SerializeElements@@YGXAAVCArchive@@PAPAVCArrow@@H@Z 00407b10 f i Arrow.obj
 0001:00006bb0       ?DumpElements@@YGXAAVCDumpContext@@PBQAVCArrow@@H@Z 00407bb0 f i Arrow.obj
 0001:00006c10       ?SetAt@?$CMap@HHPAVCAniObjLSP@@PAV1@@@QAEXHPAVCAniObjLSP@@@Z 00407c10 f i Arrow.obj
 0001:00006c60       ?InitHashTable@?$CMap@HHPAVCAniObjLSP@@PAV1@@@QAEXIH@Z 00407c60 f i Arrow.obj
 0001:00006d60       ?NewAssoc@?$CMap@HHPAVCAniObjLSP@@PAV1@@@IAEPAUCAssoc@1@XZ 00407d60 f i Arrow.obj
 0001:00006ea0       ?FreeAssoc@?$CMap@HHPAVCAniObjLSP@@PAV1@@@IAEXPAUCAssoc@1@@Z 00407ea0 f i Arrow.obj
 0001:00006f50       ?GetAssocAt@?$CMap@HHPAVCAniObjLSP@@PAV1@@@IBEPAUCAssoc@1@HAAI@Z 00407f50 f i Arrow.obj
 0001:00006ff0       ?DestructElements@@YGXPAPAVCAniObjLSP@@H@Z 00407ff0 f i Arrow.obj
 0001:00007070       ?SerializeElements@@YGXAAVCArchive@@PAPAVCAniObjLSP@@H@Z 00408070 f i Arrow.obj
 0001:00007110       ?DumpElements@@YGXAAVCDumpContext@@PBQAVCAniObjLSP@@H@Z 00408110 f i Arrow.obj
 0001:00007170       ?ConstructElements@@YGXPAVCPoint@@H@Z 00408170 f i Arrow.obj
 0001:00007260       ??3@YAXPAX0@Z              00408260 f i Arrow.obj
 0001:00007280       ?ConstructElements@@YGXPAPAVCArrow@@H@Z 00408280 f i Arrow.obj
 0001:00007330       ?ConstructElements@@YGXPAPAVCAniObjLSP@@H@Z 00408330 f i Arrow.obj
 0001:000073e0       ??0CBaseDraw@@QAE@XZ       004083e0 f   BaseDraw.obj
 0001:000074a0       ??_ECBaseDraw@@UAEPAXI@Z   004084a0 f i BaseDraw.obj
 0001:000074a0       ??_GCBaseDraw@@UAEPAXI@Z   004084a0 f i BaseDraw.obj
 0001:00007500       ??1CBaseDraw@@UAE@XZ       00408500 f   BaseDraw.obj
 0001:00007590       ?InitSurface@CBaseDraw@@QAEXXZ 00408590 f   BaseDraw.obj
 0001:00007780       ??_ECDDSurface@@UAEPAXI@Z  00408780 f i BaseDraw.obj
 0001:00007780       ??_GCDDSurface@@UAEPAXI@Z  00408780 f i BaseDraw.obj
 0001:000077e0       ?DrawBaseTile@CBaseDraw@@QAEXVCPoint@@@Z 004087e0 f   BaseDraw.obj
 0001:00007d60       ?DrawShadow@CBaseDraw@@QAEXVCPoint@@@Z 00408d60 f   BaseDraw.obj
 0001:00008110       ?DataGet@CMapObj@@QAEFHH@Z 00409110 f i BaseDraw.obj
 0001:00008180       ?DrawPartShadow@CBaseDraw@@QAEXVCPoint@@@Z 00409180 f   BaseDraw.obj
 0001:00008510       ?GetClippedRect@CBaseDraw@@QAEHPAUtagRECT@@0@Z 00409510 f   BaseDraw.obj
 0001:000085d0       ?BltLSPShadow@CBaseDraw@@QAEXPAVCDDSurface@@HHPAUtagRECT@@PAGKK@Z 004095d0 f   BaseDraw.obj
 0001:00008a80       ?PutPixelShadowEx@CUser@@SAXPBGHKK@Z 00409a80 f i BaseDraw.obj
 0001:00008ae0       ?DrawChangeTile@CBaseDraw@@QAEXVCPoint@@@Z 00409ae0 f   BaseDraw.obj
 0001:00009a80       ?DrawSurface@CBaseDraw@@QAEXPAVCDDSurface@@VCPoint@@@Z 0040aa80 f   BaseDraw.obj
 0001:00009b60       ?BltLSPPartShadow@CBaseDraw@@QAEXPAVCDDSurface@@HHPAUtagRECT@@PAGKK@Z 0040ab60 f   BaseDraw.obj
 0001:0000a110       ??0BB_CircularBuffer@@QAE@H@Z 0040b110 f   BB_CircularBuffer.obj
 0001:0000a1c0       ??_EBB_CircularBuffer@@UAEPAXI@Z 0040b1c0 f i BB_CircularBuffer.obj
 0001:0000a1c0       ??_GBB_CircularBuffer@@UAEPAXI@Z 0040b1c0 f i BB_CircularBuffer.obj
 0001:0000a220       ??1BB_CircularBuffer@@UAE@XZ 0040b220 f   BB_CircularBuffer.obj
 0001:0000a2c0       ??0BB_Socket@@QAE@PAVSocketMng@@H@Z 0040b2c0 f   BB_Socket.obj
 0001:0000a3e0       ??_EBB_Socket@@UAEPAXI@Z   0040b3e0 f i BB_Socket.obj
 0001:0000a3e0       ??_GBB_Socket@@UAEPAXI@Z   0040b3e0 f i BB_Socket.obj
 0001:0000a430       ??1BB_Socket@@UAE@XZ       0040b430 f   BB_Socket.obj
 0001:0000a540       ?OnReceive@BB_Socket@@UAEXH@Z 0040b540 f   BB_Socket.obj
 0001:0000a670       ?PutData@BB_CircularBuffer@@QAEXPAEH@Z 0040b670 f i BB_Socket.obj
 0001:0000a7a0       ?IsOverFlowCondition@BB_CircularBuffer@@IAEHAAH@Z 0040b7a0 f i BB_Socket.obj
 0001:0000a7f0       ?IsIndexOverFlow@BB_CircularBuffer@@IAEHAAH@Z 0040b7f0 f i BB_Socket.obj
 0001:0000a830       ?GetValidCount@BB_CircularBuffer@@QAEHXZ 0040b830 f i BB_Socket.obj
 0001:0000a880       ?BufferResize@BB_CircularBuffer@@IAEXXZ 0040b880 f i BB_Socket.obj
 0001:0000a950       ?CustomizedInit@BB_Socket@@QAEXXZ 0040b950 f   BB_Socket.obj
 0001:0000a9a0       ?OnClose@BB_Socket@@UAEXH@Z 0040b9a0 f   BB_Socket.obj
 0001:0000aa40       ?OnSend@BB_Socket@@UAEXH@Z 0040ba40 f   BB_Socket.obj
 0001:0000ab10       ?SendDelayedData@BB_Socket@@QAEHXZ 0040bb10 f   BB_Socket.obj
 0001:0000adc0       ??0DataPack@@QAE@HPAEH@Z   0040bdc0 f i BB_Socket.obj
 0001:0000aef0       ??_EDataPack@@UAEPAXI@Z    0040bef0 f i BB_Socket.obj
 0001:0000aef0       ??_GDataPack@@UAEPAXI@Z    0040bef0 f i BB_Socket.obj
 0001:0000af50       ??1DataPack@@UAE@XZ        0040bf50 f i BB_Socket.obj
 0001:0000afa0       ?AddHead@?$CTypedPtrList@VCPtrList@@PAVDataPack@@@@QAEPAU__POSITION@@PAVDataPack@@@Z 0040bfa0 f i BB_Socket.obj
 0001:0000afe0       ?RemoveHead@?$_CTypedPtrList@VCPtrList@@PAVDataPack@@@@QAEPAVDataPack@@XZ 0040bfe0 f i BB_Socket.obj
 0001:0000b020       ?GetNext@?$_CTypedPtrList@VCPtrList@@PAVDataPack@@@@QAEAAPAVDataPack@@AAPAU__POSITION@@@Z 0040c020 f i BB_Socket.obj
 0001:0000b060       ??0BBDX_ChatEditor@@QAE@PAVCWnd@@PAVCUIRes@@HVCRect@@HK@Z 0040c060 f   BBDX_ChatEditor.obj
 0001:0000b0e0       ??_GBBDX_ChatEditor@@UAEPAXI@Z 0040c0e0 f i BBDX_ChatEditor.obj
 0001:0000b0e0       ??_EBBDX_ChatEditor@@UAEPAXI@Z 0040c0e0 f i BBDX_ChatEditor.obj
 0001:0000b130       ??1BBDX_ChatEditor@@UAE@XZ 0040c130 f   BBDX_ChatEditor.obj
 0001:0000b170       ?_GetBaseMessageMap@BBDX_ChatEditor@@KGPBUAFX_MSGMAP@@XZ 0040c170 f   BBDX_ChatEditor.obj
 0001:0000b1a0       ?GetMessageMap@BBDX_ChatEditor@@MBEPBUAFX_MSGMAP@@XZ 0040c1a0 f   BBDX_ChatEditor.obj
 0001:0000b1d0       ?PreTranslateMessage@BBDX_ChatEditor@@UAEHPAUtagMSG@@@Z 0040c1d0 f   BBDX_ChatEditor.obj
 0001:0000b4f0       ?IsVisible@CUIRes@@QAEHXZ  0040c4f0 f i BBDX_ChatEditor.obj
 0001:0000b520       ?GetCurEditorText@BBDX_Editor@@QAEPBDXZ 0040c520 f i BBDX_ChatEditor.obj
 0001:0000b560       ??0BBDX_ChatOuter@@QAE@VCString@@HVCRect@@HH@Z 0040c560 f   BBDX_ChatOuter.obj
 0001:0000b6f0       ??_EBBDX_ChatOuter@@UAEPAXI@Z 0040c6f0 f i BBDX_ChatOuter.obj
 0001:0000b6f0       ??_GBBDX_ChatOuter@@UAEPAXI@Z 0040c6f0 f i BBDX_ChatOuter.obj
 0001:0000b750       ??1BBDX_ChatOuter@@UAE@XZ  0040c750 f   BBDX_ChatOuter.obj
 0001:0000b800       ?AddChatWithKind@BBDX_ChatOuter@@QAEHAAVCString@@H@Z 0040c800 f   BBDX_ChatOuter.obj
 0001:0000bad0       ?ResetIntLists@BBDX_ChatOuter@@IAEXXZ 0040cad0 f   BBDX_ChatOuter.obj
 0001:0000bc90       ?ResetStrLists@BBDX_ChatOuter@@IAEXXZ 0040cc90 f   BBDX_ChatOuter.obj
 0001:0000bd70       ?DrawChat@BBDX_ChatOuter@@QAEXPAVCDDSurface@@VCPoint@@PAVCDC@@@Z 0040cd70 f   BBDX_ChatOuter.obj
 0001:0000c0b0       ?ChatAreaChange@BBDX_ChatOuter@@QAEXVCRect@@@Z 0040d0b0 f   BBDX_ChatOuter.obj
 0001:0000c2e0       ?CalcShowLineNum@BBDX_ChatOuter@@QAEHXZ 0040d2e0 f   BBDX_ChatOuter.obj
 0001:0000c340       ?SetScrollPos@BBDX_ChatOuter@@QAEXH@Z 0040d340 f   BBDX_ChatOuter.obj
 0001:0000c400       ?ScrollUp@BBDX_ChatOuter@@QAEXXZ 0040d400 f   BBDX_ChatOuter.obj
 0001:0000c460       ?ScrollDown@BBDX_ChatOuter@@QAEXXZ 0040d460 f   BBDX_ChatOuter.obj
 0001:0000c4e0       ?ScrollPageDown@BBDX_ChatOuter@@QAEHXZ 0040d4e0 f   BBDX_ChatOuter.obj
 0001:0000c570       ?ScrollPageUp@BBDX_ChatOuter@@QAEXXZ 0040d570 f   BBDX_ChatOuter.obj
 0001:0000c5e0       ?ClearString@BBDX_ChatOuter@@QAEXXZ 0040d5e0 f   BBDX_ChatOuter.obj
 0001:0000c650       ?AddMemo@BBDX_ChatOuter@@QAEHHVCString@@@Z 0040d650 f   BBDX_ChatOuter.obj
 0001:0000c960       ?ShowMode@BBDX_ChatOuter@@QAEXH@Z 0040d960 f   BBDX_ChatOuter.obj
 0001:0000cae0       ??0?$CArray@HH@@QAE@XZ     0040dae0 f i BBDX_ChatOuter.obj
 0001:0000cb50       ?GetSize@?$CArray@HH@@QBEHXZ 0040db50 f i BBDX_ChatOuter.obj
 0001:0000cb80       ?SetSize@?$CArray@HH@@QAEXHH@Z 0040db80 f i BBDX_ChatOuter.obj
 0001:0000cea0       ?RemoveAll@?$CArray@HH@@QAEXXZ 0040dea0 f i BBDX_ChatOuter.obj
 0001:0000cee0       ?Add@?$CArray@HH@@QAEHH@Z  0040dee0 f i BBDX_ChatOuter.obj
 0001:0000cf30       ??A?$CArray@HH@@QAEAAHH@Z  0040df30 f i BBDX_ChatOuter.obj
 0001:0000cf70       ?RemoveAt@?$CArray@HH@@QAEXHH@Z 0040df70 f i BBDX_ChatOuter.obj
 0001:0000d090       ??1?$CArray@HH@@UAE@XZ     0040e090 f i BBDX_ChatOuter.obj
 0001:0000d140       ?Serialize@?$CArray@HH@@UAEXAAVCArchive@@@Z 0040e140 f i BBDX_ChatOuter.obj
 0001:0000d1e0       ?Dump@?$CArray@HH@@UBEXAAVCDumpContext@@@Z 0040e1e0 f i BBDX_ChatOuter.obj
 0001:0000d280       ?AssertValid@?$CArray@HH@@UBEXXZ 0040e280 f i BBDX_ChatOuter.obj
 0001:0000d3b0       ??0?$CList@HH@@QAE@H@Z     0040e3b0 f i BBDX_ChatOuter.obj
 0001:0000d480       ?RemoveHead@?$CList@HH@@QAEHXZ 0040e480 f i BBDX_ChatOuter.obj
 0001:0000d560       ?AddTail@?$CList@HH@@QAEPAU__POSITION@@H@Z 0040e560 f i BBDX_ChatOuter.obj
 0001:0000d5f0       ?RemoveAll@?$CList@HH@@QAEXXZ 0040e5f0 f i BBDX_ChatOuter.obj
 0001:0000d6a0       ?GetHeadPosition@?$CList@HH@@QBEPAU__POSITION@@XZ 0040e6a0 f i BBDX_ChatOuter.obj
 0001:0000d6d0       ?GetNext@?$CList@HH@@QAEAAHAAPAU__POSITION@@@Z 0040e6d0 f i BBDX_ChatOuter.obj
 0001:0000d750       ?FindIndex@?$CList@HH@@QBEPAU__POSITION@@H@Z 0040e750 f i BBDX_ChatOuter.obj
 0001:0000d800       ??1?$CList@HH@@UAE@XZ      0040e800 f i BBDX_ChatOuter.obj
 0001:0000d8a0       ?Serialize@?$CList@HH@@UAEXAAVCArchive@@@Z 0040e8a0 f i BBDX_ChatOuter.obj
 0001:0000d9a0       ?Dump@?$CList@HH@@UBEXAAVCDumpContext@@@Z 0040e9a0 f i BBDX_ChatOuter.obj
 0001:0000da60       ?AssertValid@?$CList@HH@@UBEXXZ 0040ea60 f i BBDX_ChatOuter.obj
 0001:0000db50       ??_G?$CArray@HH@@UAEPAXI@Z 0040eb50 f i BBDX_ChatOuter.obj
 0001:0000dba0       ??_G?$CList@HH@@UAEPAXI@Z  0040eba0 f i BBDX_ChatOuter.obj
 0001:0000dba0       ??_E?$CList@HH@@UAEPAXI@Z  0040eba0 f i BBDX_ChatOuter.obj
 0001:0000dbf0       ?ElementAt@?$CArray@HH@@QAEAAHH@Z 0040ebf0 f i BBDX_ChatOuter.obj
 0001:0000dc60       ?SetAtGrow@?$CArray@HH@@QAEXHH@Z 0040ec60 f i BBDX_ChatOuter.obj
 0001:0000dcf0       ?NewNode@?$CList@HH@@IAEPAUCNode@1@PAU21@0@Z 0040ecf0 f i BBDX_ChatOuter.obj
 0001:0000de30       ?FreeNode@?$CList@HH@@IAEXPAUCNode@1@@Z 0040ee30 f i BBDX_ChatOuter.obj
 0001:0000ded0       ??0BBDX_Editor@@QAE@PAVCWnd@@PAVCUIRes@@HVCRect@@HHK@Z 0040eed0 f   BBDX_Editor.obj
 0001:0000e120       ??_GBBDX_Editor@@UAEPAXI@Z 0040f120 f i BBDX_Editor.obj
 0001:0000e120       ??_EBBDX_Editor@@UAEPAXI@Z 0040f120 f i BBDX_Editor.obj
 0001:0000e170       ??1BBDX_Editor@@UAE@XZ     0040f170 f   BBDX_Editor.obj
 0001:0000e260       ?_GetBaseMessageMap@BBDX_Editor@@KGPBUAFX_MSGMAP@@XZ 0040f260 f   BBDX_Editor.obj
 0001:0000e290       ?GetMessageMap@BBDX_Editor@@MBEPBUAFX_MSGMAP@@XZ 0040f290 f   BBDX_Editor.obj
 0001:0000e2c0       ?OnKeyDown@BBDX_Editor@@IAEXIII@Z 0040f2c0 f   BBDX_Editor.obj
 0001:0000e4d0       ?ClearTextBuffer@BBDX_Editor@@QAEXXZ 0040f4d0 f   BBDX_Editor.obj
 0001:0000e510       ?ClearTexts@BBDX_Editor@@QAEXXZ 0040f510 f   BBDX_Editor.obj
 0001:0000e570       ?IsShowCaret@BBDX_Editor@@QAEHXZ 0040f570 f   BBDX_Editor.obj
 0001:0000e610       ?ReturnkeyProcess@BBDX_Editor@@UAEXXZ 0040f610 f   BBDX_Editor.obj
 0001:0000e6a0       ?ChangeEditorMode@BBDX_Editor@@QAEXHVCRect@@@Z 0040f6a0 f   BBDX_Editor.obj
 0001:0000e7f0       ?ChangeArea@BBDX_Editor@@QAEXVCRect@@@Z 0040f7f0 f   BBDX_Editor.obj
 0001:0000e870       ?FontSet@BBDX_Editor@@QAEXXZ 0040f870 f   BBDX_Editor.obj
 0001:0000e9f0       ?DestroyWindow@BBDX_Editor@@UAEHXZ 0040f9f0 f   BBDX_Editor.obj
 0001:0000ea40       ?OnSetFocus@BBDX_Editor@@IAEXPAVCWnd@@@Z 0040fa40 f   BBDX_Editor.obj
 0001:0000ea90       ?OnKillFocus@BBDX_Editor@@IAEXPAVCWnd@@@Z 0040fa90 f   BBDX_Editor.obj
 0001:0000eb10       ?PreTranslateMessage@BBDX_Editor@@UAEHPAUtagMSG@@@Z 0040fb10 f   BBDX_Editor.obj
 0001:0000ec50       ?GetText@BBDX_Editor@@QAEXXZ 0040fc50 f   BBDX_Editor.obj
 0001:0000eca0       ?DCDrawCurText@BBDX_Editor@@UAEXPAVCDDSurface@@KHH@Z 0040fca0 f   BBDX_Editor.obj
 0001:000102a0       ?DCDrawOffsetedCurText@BBDX_Editor@@QAEXPAVCDDSurface@@VCPoint@@KH@Z 004112a0 f   BBDX_Editor.obj
 0001:00010350       ?DCDrawPosCurText@BBDX_Editor@@QAEXPAVCDDSurface@@VCPoint@@KH@Z 00411350 f   BBDX_Editor.obj
 0001:00010400       ?OnChar@BBDX_Editor@@IAEXIII@Z 00411400 f   BBDX_Editor.obj
 0001:00010460       ?OnKeyUp@BBDX_Editor@@IAEXIII@Z 00411460 f   BBDX_Editor.obj
 0001:00010580       ?OnSysKeyDown@BBDX_Editor@@IAEXIII@Z 00411580 f   BBDX_Editor.obj
 0001:000105e0       ?OnSysKeyUp@BBDX_Editor@@IAEXIII@Z 004115e0 f   BBDX_Editor.obj
 0001:00010640       ??0BBDX_TextOuter@@QAE@VCString@@HH@Z 00411640 f   BBDX_TextOuter.obj
 0001:000107b0       ??_EBBDX_TextOuter@@UAEPAXI@Z 004117b0 f i BBDX_TextOuter.obj
 0001:000107b0       ??_GBBDX_TextOuter@@UAEPAXI@Z 004117b0 f i BBDX_TextOuter.obj
 0001:00010810       ??_GCTWFont@@QAEPAXI@Z     00411810 f i BBDX_TextOuter.obj
 0001:00010870       ??0BBDX_TextOuter@@QAE@PAVCTWFont@@HH@Z 00411870 f   BBDX_TextOuter.obj
 0001:00010900       ??1BBDX_TextOuter@@UAE@XZ  00411900 f   BBDX_TextOuter.obj
 0001:000109c0       ?SetString@BBDX_TextOuter@@QAEXAAVCString@@@Z 004119c0 f   BBDX_TextOuter.obj
 0001:00010a10       ?AddString@BBDX_TextOuter@@QAEHAAVCString@@@Z 00411a10 f   BBDX_TextOuter.obj
 0001:00010c00       ?ReArrange@BBDX_TextOuter@@QAEXXZ 00411c00 f   BBDX_TextOuter.obj
 0001:00010ce0       ?DrawMultiLineTexts@BBDX_TextOuter@@QAEXPAVCDDSurface@@VCRect@@GH_N@Z 00411ce0 f   BBDX_TextOuter.obj
 0001:00010e80       ?IC_TextOutClip@CTWFont@@QAEHVCRect@@PBDGAAU_DDSURFACEDESC2@@HHHHH@Z 00411e80 f i BBDX_TextOuter.obj
 0001:00010f50       ?DrawTexts@BBDX_TextOuter@@QAEXPAVCDDSurface@@VCRect@@GH@Z 00411f50 f   BBDX_TextOuter.obj
 0001:00011190       ?DrawShadowTexts@BBDX_TextOuter@@QAEXPAVCDDSurface@@VCRect@@GH@Z 00412190 f   BBDX_TextOuter.obj
 0001:000113d0       ?IC_TextOutClipShadow@CTWFont@@QAEHVCRect@@PBDGAAU_DDSURFACEDESC2@@HHHHH@Z 004123d0 f i BBDX_TextOuter.obj
 0001:00011510       ?DrawTextsFromIndexedLine@BBDX_TextOuter@@QAEXPAVCDDSurface@@VCRect@@HGH@Z 00412510 f   BBDX_TextOuter.obj
 0001:00011740       ?SetMultiLineString@BBDX_TextOuter@@QAEXAAVCString@@@Z 00412740 f   BBDX_TextOuter.obj
 0001:000117a0       ??0BBDX_TextOuterWithScroll@@QAE@VCString@@HHVCRect@@HH@Z 004127a0 f   BBDX_TextOuterWithScroll.obj
 0001:00011890       ?SetMaxLineNum@BBDX_TextOuter@@QAEXH@Z 00412890 f i BBDX_TextOuterWithScroll.obj
 0001:000118c0       ??_EBBDX_TextOuterWithScroll@@UAEPAXI@Z 004128c0 f i BBDX_TextOuterWithScroll.obj
 0001:000118c0       ??_GBBDX_TextOuterWithScroll@@UAEPAXI@Z 004128c0 f i BBDX_TextOuterWithScroll.obj
 0001:00011920       ??0BBDX_TextOuterWithScroll@@QAE@PAVCTWFont@@HHVCRect@@HH@Z 00412920 f   BBDX_TextOuterWithScroll.obj
 0001:00011a00       ??1BBDX_TextOuterWithScroll@@UAE@XZ 00412a00 f   BBDX_TextOuterWithScroll.obj
 0001:00011a40       ?ScrollUp@BBDX_TextOuterWithScroll@@QAEXXZ 00412a40 f   BBDX_TextOuterWithScroll.obj
 0001:00011a80       ?ScrollDown@BBDX_TextOuterWithScroll@@QAEXXZ 00412a80 f   BBDX_TextOuterWithScroll.obj
 0001:00011af0       ?ScrollPageDown@BBDX_TextOuterWithScroll@@QAEHXZ 00412af0 f   BBDX_TextOuterWithScroll.obj
 0001:00011b70       ?ScrollPageUp@BBDX_TextOuterWithScroll@@QAEXXZ 00412b70 f   BBDX_TextOuterWithScroll.obj
 0001:00011bc0       ?Draw@BBDX_TextOuterWithScroll@@QAEXPAVCDDSurface@@VCPoint@@G@Z 00412bc0 f   BBDX_TextOuterWithScroll.obj
 0001:00011c70       ?CalcShowLineNum@BBDX_TextOuterWithScroll@@UAEHXZ 00412c70 f   BBDX_TextOuterWithScroll.obj
 0001:00011cd0       ?DrawList@BBDX_TextOuterWithScroll@@QAEXPAVCDDSurface@@H@Z 00412cd0 f   BBDX_TextOuterWithScroll.obj
 0001:00011f60       ?GetLineIndexWithPoint@BBDX_TextOuterWithScroll@@QAEHAAVCPoint@@@Z 00412f60 f   BBDX_TextOuterWithScroll.obj
 0001:00012040       ?GetScrollRange@BBDX_TextOuterWithScroll@@QAEHXZ 00413040 f   BBDX_TextOuterWithScroll.obj
 0001:000120a0       ?SetScrollPos@BBDX_TextOuterWithScroll@@QAEXH@Z 004130a0 f   BBDX_TextOuterWithScroll.obj
 0001:00012120       ??0CBlood@@QAE@XZ          00413120 f   Blood.obj
 0001:000121a0       ??_GCBlood@@UAEPAXI@Z      004131a0 f i Blood.obj
 0001:000121a0       ??_ECBlood@@UAEPAXI@Z      004131a0 f i Blood.obj
 0001:00012200       ??1CBlood@@UAE@XZ          00413200 f   Blood.obj
 0001:00012350       ?Add@CBlood@@QAEXHHVCPoint@@H@Z 00413350 f   Blood.obj
 0001:000124e0       ??0_TAG_BLOOD_INFO@@QAE@XZ 004134e0 f i Blood.obj
 0001:00012520       ?Load@CBlood@@QAEHH@Z      00413520 f   Blood.obj
 0001:00012670       ?GetIndexedBlood@CBlood@@QAEPAVCBloodRes@@H@Z 00413670 f   Blood.obj
 0001:000126c0       ?DrawBloodStain@CBlood@@QAEHPAVCDDSurface@@VCPoint@@@Z 004136c0 f   Blood.obj
 0001:000128f0       ?Draw@CBlood@@QAEHPAVCDDSurface@@VCPoint@@H@Z 004138f0 f   Blood.obj
 0001:00012b60       ??0?$CArray@PAU_TAG_BLOOD_INFO@@PAU1@@@QAE@XZ 00413b60 f i Blood.obj
 0001:00012bd0       ?GetSize@?$CArray@PAU_TAG_BLOOD_INFO@@PAU1@@@QBEHXZ 00413bd0 f i Blood.obj
 0001:00012c00       ?RemoveAll@?$CArray@PAU_TAG_BLOOD_INFO@@PAU1@@@QAEXXZ 00413c00 f i Blood.obj
 0001:00012c40       ?GetAt@?$CArray@PAU_TAG_BLOOD_INFO@@PAU1@@@QBEPAU_TAG_BLOOD_INFO@@H@Z 00413c40 f i Blood.obj
 0001:00012cb0       ?Add@?$CArray@PAU_TAG_BLOOD_INFO@@PAU1@@@QAEHPAU_TAG_BLOOD_INFO@@@Z 00413cb0 f i Blood.obj
 0001:00012d00       ?RemoveAt@?$CArray@PAU_TAG_BLOOD_INFO@@PAU1@@@QAEXHH@Z 00413d00 f i Blood.obj
 0001:00012e20       ??1?$CArray@PAU_TAG_BLOOD_INFO@@PAU1@@@UAE@XZ 00413e20 f i Blood.obj
 0001:00012ed0       ?Serialize@?$CArray@PAU_TAG_BLOOD_INFO@@PAU1@@@UAEXAAVCArchive@@@Z 00413ed0 f i Blood.obj
 0001:00012f70       ?Dump@?$CArray@PAU_TAG_BLOOD_INFO@@PAU1@@@UBEXAAVCDumpContext@@@Z 00413f70 f i Blood.obj
 0001:00013010       ?AssertValid@?$CArray@PAU_TAG_BLOOD_INFO@@PAU1@@@UBEXXZ 00414010 f i Blood.obj
 0001:00013140       ??0?$CMap@HHPAVCBloodRes@@PAV1@@@QAE@H@Z 00414140 f i Blood.obj
 0001:00013210       ?Lookup@?$CMap@HHPAVCBloodRes@@PAV1@@@QBEHHAAPAVCBloodRes@@@Z 00414210 f i Blood.obj
 0001:00013280       ??A?$CMap@HHPAVCBloodRes@@PAV1@@@QAEAAPAVCBloodRes@@H@Z 00414280 f i Blood.obj
 0001:00013340       ?RemoveKey@?$CMap@HHPAVCBloodRes@@PAV1@@@QAEHH@Z 00414340 f i Blood.obj
 0001:00013400       ?RemoveAll@?$CMap@HHPAVCBloodRes@@PAV1@@@QAEXXZ 00414400 f i Blood.obj
 0001:000134f0       ?GetStartPosition@?$CMap@HHPAVCBloodRes@@PAV1@@@QBEPAU__POSITION@@XZ 004144f0 f i Blood.obj
 0001:00013520       ?GetNextAssoc@?$CMap@HHPAVCBloodRes@@PAV1@@@QBEXAAPAU__POSITION@@AAHAAPAVCBloodRes@@@Z 00414520 f i Blood.obj
 0001:000136a0       ??1?$CMap@HHPAVCBloodRes@@PAV1@@@UAE@XZ 004146a0 f i Blood.obj
 0001:00013740       ?Serialize@?$CMap@HHPAVCBloodRes@@PAV1@@@UAEXAAVCArchive@@@Z 00414740 f i Blood.obj
 0001:00013890       ?Dump@?$CMap@HHPAVCBloodRes@@PAV1@@@UBEXAAVCDumpContext@@@Z 00414890 f i Blood.obj
 0001:00013970       ?AssertValid@?$CMap@HHPAVCBloodRes@@PAV1@@@UBEXXZ 00414970 f i Blood.obj
 0001:00013a00       ??_E?$CArray@PAU_TAG_BLOOD_INFO@@PAU1@@@UAEPAXI@Z 00414a00 f i Blood.obj
 0001:00013a00       ??_G?$CArray@PAU_TAG_BLOOD_INFO@@PAU1@@@UAEPAXI@Z 00414a00 f i Blood.obj
 0001:00013a50       ??_G?$CMap@HHPAVCBloodRes@@PAV1@@@UAEPAXI@Z 00414a50 f i Blood.obj
 0001:00013a50       ??_E?$CMap@HHPAVCBloodRes@@PAV1@@@UAEPAXI@Z 00414a50 f i Blood.obj
 0001:00013aa0       ?SetSize@?$CArray@PAU_TAG_BLOOD_INFO@@PAU1@@@QAEXHH@Z 00414aa0 f i Blood.obj
 0001:00013dc0       ?SetAtGrow@?$CArray@PAU_TAG_BLOOD_INFO@@PAU1@@@QAEXHPAU_TAG_BLOOD_INFO@@@Z 00414dc0 f i Blood.obj
 0001:00013e50       ?DestructElements@@YGXPAPAU_TAG_BLOOD_INFO@@H@Z 00414e50 f i Blood.obj
 0001:00013ed0       ?SerializeElements@@YGXAAVCArchive@@PAPAU_TAG_BLOOD_INFO@@H@Z 00414ed0 f i Blood.obj
 0001:00013f70       ?DumpElements@@YGXAAVCDumpContext@@PBQAU_TAG_BLOOD_INFO@@H@Z 00414f70 f i Blood.obj
 0001:00013fd0       ?SetAt@?$CMap@HHPAVCBloodRes@@PAV1@@@QAEXHPAVCBloodRes@@@Z 00414fd0 f i Blood.obj
 0001:00014020       ?InitHashTable@?$CMap@HHPAVCBloodRes@@PAV1@@@QAEXIH@Z 00415020 f i Blood.obj
 0001:00014120       ?NewAssoc@?$CMap@HHPAVCBloodRes@@PAV1@@@IAEPAUCAssoc@1@XZ 00415120 f i Blood.obj
 0001:00014260       ?FreeAssoc@?$CMap@HHPAVCBloodRes@@PAV1@@@IAEXPAUCAssoc@1@@Z 00415260 f i Blood.obj
 0001:00014310       ?GetAssocAt@?$CMap@HHPAVCBloodRes@@PAV1@@@IBEPAUCAssoc@1@HAAI@Z 00415310 f i Blood.obj
 0001:000143b0       ?DestructElements@@YGXPAPAVCBloodRes@@H@Z 004153b0 f i Blood.obj
 0001:00014430       ?SerializeElements@@YGXAAVCArchive@@PAPAVCBloodRes@@H@Z 00415430 f i Blood.obj
 0001:000144d0       ?DumpElements@@YGXAAVCDumpContext@@PBQAVCBloodRes@@H@Z 004154d0 f i Blood.obj
 0001:00014530       ?ConstructElements@@YGXPAPAU_TAG_BLOOD_INFO@@H@Z 00415530 f i Blood.obj
 0001:000145e0       ?ConstructElements@@YGXPAPAVCBloodRes@@H@Z 004155e0 f i Blood.obj
 0001:00014690       ??0CBloodRes@@QAE@XZ       00415690 f   BloodRes.obj
 0001:00014720       ??_GCBloodRes@@UAEPAXI@Z   00415720 f i BloodRes.obj
 0001:00014720       ??_ECBloodRes@@UAEPAXI@Z   00415720 f i BloodRes.obj
 0001:00014780       ??0?$CTypedPtrArray@VCPtrArray@@PAG@@QAE@XZ 00415780 f i BloodRes.obj
 0001:000147d0       ??1?$CTypedPtrArray@VCPtrArray@@PAG@@UAE@XZ 004157d0 f i BloodRes.obj
 0001:00014810       ??0?$CTypedPtrArray@VCPtrArray@@PAU_SPR_LSP@@@@QAE@XZ 00415810 f i BloodRes.obj
 0001:00014860       ??_G?$CTypedPtrArray@VCPtrArray@@PAG@@UAEPAXI@Z 00415860 f i BloodRes.obj
 0001:00014860       ??_E?$CTypedPtrArray@VCPtrArray@@PAG@@UAEPAXI@Z 00415860 f i BloodRes.obj
 0001:000148b0       ??_G?$CTypedPtrArray@VCPtrArray@@PAU_SPR_LSP@@@@UAEPAXI@Z 004158b0 f i BloodRes.obj
 0001:000148b0       ??_E?$CTypedPtrArray@VCPtrArray@@PAU_SPR_LSP@@@@UAEPAXI@Z 004158b0 f i BloodRes.obj
 0001:00014900       ??1?$CTypedPtrArray@VCPtrArray@@PAU_SPR_LSP@@@@UAE@XZ 00415900 f i BloodRes.obj
 0001:00014940       ??1CBloodRes@@UAE@XZ       00415940 f   BloodRes.obj
 0001:00014ab0       ?AddRef@CBloodRes@@QAEXXZ  00415ab0 f   BloodRes.obj
 0001:00014af0       ?Release@CBloodRes@@QAEHXZ 00415af0 f   BloodRes.obj
 0001:00014b30       ?Draw@CBloodRes@@QAEHPAVCDDSurface@@VCPoint@@HH@Z 00415b30 f   BloodRes.obj
 0001:00014be0       ?LoadRes@CBloodRes@@QAEHH@Z 00415be0 f   BloodRes.obj
 0001:00014ed0       ?LoadRes@CBloodRes@@QAEHVCString@@@Z 00415ed0 f   BloodRes.obj
 0001:000151a0       ?GetAt@?$CTypedPtrArray@VCPtrArray@@PAG@@QBEPAGH@Z 004161a0 f i BloodRes.obj
 0001:000151e0       ??A?$CTypedPtrArray@VCPtrArray@@PAG@@QAEAAPAGH@Z 004161e0 f i BloodRes.obj
 0001:00015220       ?GetAt@?$CTypedPtrArray@VCPtrArray@@PAU_SPR_LSP@@@@QBEPAU_SPR_LSP@@H@Z 00416220 f i BloodRes.obj
 0001:00015260       ??A?$CTypedPtrArray@VCPtrArray@@PAU_SPR_LSP@@@@QAEAAPAU_SPR_LSP@@H@Z 00416260 f i BloodRes.obj
 0001:000152a0       ??0CBuildHouseManager@@QAE@XZ 004162a0 f   BuildHouseManager.obj
 0001:000152f0       ??_ECBuildHouseManager@@UAEPAXI@Z 004162f0 f i BuildHouseManager.obj
 0001:000152f0       ??_GCBuildHouseManager@@UAEPAXI@Z 004162f0 f i BuildHouseManager.obj
 0001:00015350       ??1CBuildHouseManager@@UAE@XZ 00416350 f   BuildHouseManager.obj
 0001:000153a0       ?TileMapSet@CBuildHouseManager@@QAE?AVCSize@@HHHHH@Z 004163a0 f   BuildHouseManager.obj
 0001:00015550       ?GetSafe@_TILE_SUB_SET_DATA_TOOL@@QAEHHH@Z 00416550 f i BuildHouseManager.obj
 0001:00015600       ?BuildHouse@CBuildHouseManager@@QAEXHHH@Z 00416600 f   BuildHouseManager.obj
 0001:00015c10       ?LoadHouseInfo@CBuildHouseManager@@QAEXVCString@@@Z 00416c10 f   BuildHouseManager.obj
 0001:00015ca0       ?HouseInfoSet@CBuildHouseManager@@QAEXHHH@Z 00416ca0 f   BuildHouseManager.obj
 0001:00015da0       ?BuildHouse@CBuildHouseManager@@QAEXVCRect@@H@Z 00416da0 f   BuildHouseManager.obj
 0001:00015e40       ?GetHouseSize@CBuildHouseManager@@QAE?AVCSize@@H@Z 00416e40 f   BuildHouseManager.obj
 0001:00015f00       ?GetInnerTopLeft@CBuildHouseManager@@QAE?AVCPoint@@HVCRect@@@Z 00416f00 f   BuildHouseManager.obj
 0001:00016360       ?GetTileSetRect@CBuildHouseManager@@QAE?AVCRect@@HH@Z 00417360 f   BuildHouseManager.obj
 0001:00016480       ?Lookup@?$CMap@HHPAVCHouseInfo@@AAPAV1@@@QBEHHAAPAVCHouseInfo@@@Z 00417480 f i BuildHouseManager.obj
 0001:000164f0       ?GetAssocAt@?$CMap@HHPAVCHouseInfo@@AAPAV1@@@IBEPAUCAssoc@1@HAAI@Z 004174f0 f i BuildHouseManager.obj
 0001:00016590       ??0CHAR_RES@@QAE@XZ        00417590 f   CharManager.obj
 0001:000165e0       ??1CHAR_RES@@QAE@XZ        004175e0 f   CharManager.obj
 0001:00016620       ??0CCharManager@@QAE@XZ    00417620 f   CharManager.obj
 0001:00016680       ??_ECCharManager@@UAEPAXI@Z 00417680 f i CharManager.obj
 0001:00016680       ??_GCCharManager@@UAEPAXI@Z 00417680 f i CharManager.obj
 0001:000166e0       ??1CCharManager@@UAE@XZ    004176e0 f   CharManager.obj
 0001:00016760       ?RemoveAllData@CCharManager@@QAEXXZ 00417760 f   CharManager.obj
 0001:00016800       ??_GCHAR_RES@@QAEPAXI@Z    00417800 f i CharManager.obj
 0001:00016860       ?LoadAllCharRes@CCharManager@@QAEXXZ 00417860 f   CharManager.obj
 0001:00016b50       ?LoadCharRes@CCharManager@@QAEHH@Z 00417b50 f   CharManager.obj
 0001:00016cb0       ?SetIndex@CCharRes@@QAEXH@Z 00417cb0 f i CharManager.obj
 0001:00016ce0       ?UnloadCharRes@CCharManager@@QAEXH@Z 00417ce0 f   CharManager.obj
 0001:00016d80       ?SetPixelFormat@CCharManager@@QAEXPAVCDDSurface@@@Z 00417d80 f   CharManager.obj
 0001:00016e00       ?GetIndexedCharRes@CCharManager@@QAEPAVCCharRes@@H@Z 00417e00 f   CharManager.obj
 0001:00016e50       ??0?$CMap@HHPAVCHAR_RES@@PAV1@@@QAE@H@Z 00417e50 f i CharManager.obj
 0001:00016f20       ?Lookup@?$CMap@HHPAVCHAR_RES@@PAV1@@@QBEHHAAPAVCHAR_RES@@@Z 00417f20 f i CharManager.obj
 0001:00016f90       ??A?$CMap@HHPAVCHAR_RES@@PAV1@@@QAEAAPAVCHAR_RES@@H@Z 00417f90 f i CharManager.obj
 0001:00017050       ?RemoveKey@?$CMap@HHPAVCHAR_RES@@PAV1@@@QAEHH@Z 00418050 f i CharManager.obj
 0001:00017110       ?RemoveAll@?$CMap@HHPAVCHAR_RES@@PAV1@@@QAEXXZ 00418110 f i CharManager.obj
 0001:00017200       ?GetStartPosition@?$CMap@HHPAVCHAR_RES@@PAV1@@@QBEPAU__POSITION@@XZ 00418200 f i CharManager.obj
 0001:00017230       ?GetNextAssoc@?$CMap@HHPAVCHAR_RES@@PAV1@@@QBEXAAPAU__POSITION@@AAHAAPAVCHAR_RES@@@Z 00418230 f i CharManager.obj
 0001:000173b0       ??1?$CMap@HHPAVCHAR_RES@@PAV1@@@UAE@XZ 004183b0 f i CharManager.obj
 0001:00017450       ?Serialize@?$CMap@HHPAVCHAR_RES@@PAV1@@@UAEXAAVCArchive@@@Z 00418450 f i CharManager.obj
 0001:000175a0       ?Dump@?$CMap@HHPAVCHAR_RES@@PAV1@@@UBEXAAVCDumpContext@@@Z 004185a0 f i CharManager.obj
 0001:00017680       ?AssertValid@?$CMap@HHPAVCHAR_RES@@PAV1@@@UBEXXZ 00418680 f i CharManager.obj
 0001:00017710       ??_E?$CMap@HHPAVCHAR_RES@@PAV1@@@UAEPAXI@Z 00418710 f i CharManager.obj
 0001:00017710       ??_G?$CMap@HHPAVCHAR_RES@@PAV1@@@UAEPAXI@Z 00418710 f i CharManager.obj
 0001:00017760       ?SetAt@?$CMap@HHPAVCHAR_RES@@PAV1@@@QAEXHPAVCHAR_RES@@@Z 00418760 f i CharManager.obj
 0001:000177b0       ?InitHashTable@?$CMap@HHPAVCHAR_RES@@PAV1@@@QAEXIH@Z 004187b0 f i CharManager.obj
 0001:000178b0       ?NewAssoc@?$CMap@HHPAVCHAR_RES@@PAV1@@@IAEPAUCAssoc@1@XZ 004188b0 f i CharManager.obj
 0001:000179f0       ?FreeAssoc@?$CMap@HHPAVCHAR_RES@@PAV1@@@IAEXPAUCAssoc@1@@Z 004189f0 f i CharManager.obj
 0001:00017aa0       ?GetAssocAt@?$CMap@HHPAVCHAR_RES@@PAV1@@@IBEPAUCAssoc@1@HAAI@Z 00418aa0 f i CharManager.obj
 0001:00017b40       ?DestructElements@@YGXPAPAVCHAR_RES@@H@Z 00418b40 f i CharManager.obj
 0001:00017bc0       ?SerializeElements@@YGXAAVCArchive@@PAPAVCHAR_RES@@H@Z 00418bc0 f i CharManager.obj
 0001:00017c60       ?DumpElements@@YGXAAVCDumpContext@@PBQAVCHAR_RES@@H@Z 00418c60 f i CharManager.obj
 0001:00017cc0       ?ConstructElements@@YGXPAPAVCHAR_RES@@H@Z 00418cc0 f i CharManager.obj
 0001:00017d70       ??0SPR_DATA@@QAE@XZ        00418d70 f   CharRes.obj
 0001:00017dc0       ??1SPR_DATA@@QAE@XZ        00418dc0 f   CharRes.obj
 0001:00017ea0       ??0CCharRes@@QAE@XZ        00418ea0 f   CharRes.obj
 0001:00017f10       ??_GCCharRes@@UAEPAXI@Z    00418f10 f i CharRes.obj
 0001:00017f10       ??_ECCharRes@@UAEPAXI@Z    00418f10 f i CharRes.obj
 0001:00017f70       ??1CCharRes@@UAE@XZ        00418f70 f   CharRes.obj
 0001:00017fb0       ?RemoveAllData@CCharRes@@QAEXXZ 00418fb0 f   CharRes.obj
 0001:00018050       ?LoadElement@CCharRes@@QAEHH@Z 00419050 f   CharRes.obj
 0001:00018560       ?Load@CCharRes@@QAEHPBDHH@Z 00419560 f   CharRes.obj
 0001:00018a20       ?Decode2_555@CCharRes@@SAXHPAG@Z 00419a20 f   CharRes.obj
 0001:00018b00       ?Decode2_565_0@CCharRes@@SAXHPAG@Z 00419b00 f   CharRes.obj
 0001:00018be0       ?GetSprData@CCharRes@@QAEPAVSPR_DATA@@H@Z 00419be0 f   CharRes.obj
 0001:0001d340       ??0CChildView@@QAE@XZ      0041e340 f   ChildView.obj
 0001:0001d880       ??_ECChildView@@UAEPAXI@Z  0041e880 f i ChildView.obj
 0001:0001d880       ??_GCChildView@@UAEPAXI@Z  0041e880 f i ChildView.obj
 0001:0001d8d0       ??1CChildView@@UAE@XZ      0041e8d0 f   ChildView.obj
 0001:0001def0       ??_G_tgCharData@@QAEPAXI@Z 0041eef0 f i ChildView.obj
 0001:0001df50       ??1_tgCharData@@QAE@XZ     0041ef50 f i ChildView.obj
 0001:0001dfc0       ?_GetBaseMessageMap@CChildView@@KGPBUAFX_MSGMAP@@XZ 0041efc0 f   ChildView.obj
 0001:0001dff0       ?GetMessageMap@CChildView@@MBEPBUAFX_MSGMAP@@XZ 0041eff0 f   ChildView.obj
 0001:0001e020       ?PreCreateWindow@CChildView@@MAEHAAUtagCREATESTRUCTA@@@Z 0041f020 f   ChildView.obj
 0001:0001e0c0       ?OnPaint@CChildView@@IAEXXZ 0041f0c0 f   ChildView.obj
 0001:0001e110       ?DDInit@CChildView@@QAEHXZ 0041f110 f   ChildView.obj
 0001:0001ec20       ?SetPixelFormat@CCharManager@@QAEXH@Z 0041fc20 f i ChildView.obj
 0001:0001ec50       ?SetOffset@CUIRes@@QAEXVCPoint@@@Z 0041fc50 f i ChildView.obj
 0001:0001ec90       ??_E?$CArray@HH@@UAEPAXI@Z 0041fc90 f i ChildView.obj
 0001:0001ed20       ?DDRelease@CChildView@@QAEHXZ 0041fd20 f   ChildView.obj
 0001:0001eef0       ?OnCreate@CChildView@@IAEHPAUtagCREATESTRUCTA@@@Z 0041fef0 f   ChildView.obj
 0001:0001f000       ?SetRelatedHwnd@DirectXMng@@QAEXPAUHWND__@@@Z 00420000 f i ChildView.obj
 0001:0001f030       ?OnDestroy@CChildView@@IAEXXZ 00420030 f   ChildView.obj
 0001:0001f0f0       ?OnEraseBkgnd@CChildView@@IAEHPAVCDC@@@Z 004200f0 f   ChildView.obj
 0001:0001f120       ?LogFrameRate@@YAXAAVDirectXMng@@VCPoint@@@Z 00420120 f   ChildView.obj
 0001:0001f2f0       ?DrawRainDrops@CChildView@@QAEXXZ 004202f0 f   ChildView.obj
 0001:0001f5b0       ?GetLightning@CRain@@SAHXZ 004205b0 f i ChildView.obj
 0001:0001f5e0       ?GetRainNum@CRain@@SAHXZ   004205e0 f i ChildView.obj
 0001:0001f630       ?DrawRains@CChildView@@QAEXXZ 00420630 f   ChildView.obj
 0001:0001fb40       ?GetRainChange@CWeather@@QAEHXZ 00420b40 f i ChildView.obj
 0001:0001fb70       ?SetLightning@CRain@@SAXH@Z 00420b70 f i ChildView.obj
 0001:0001fba0       ?DrawNight@CChildView@@QAEXXZ 00420ba0 f   ChildView.obj
 0001:0001fdf0       ?BackLoading@CChildView@@QAEXVCPoint@@@Z 00420df0 f   ChildView.obj
 0001:00020710       ?DrawNight1@CChildView@@QAEXH@Z 00421710 f   ChildView.obj
 0001:00020ac0       ??0TAG_LIGHT_INFO@@QAE@XZ  00421ac0 f i ChildView.obj
 0001:00020b00       ?IdleProcess@CChildView@@QAEHJ@Z 00421b00 f   ChildView.obj
 0001:000216f0       ?GetMouseInfoPtr@DirectXMng@@QAEPAVBBDX_MouseInformation@@XZ 004226f0 f i ChildView.obj
 0001:00021720       ?IsChangePos@CBaseDraw@@QAEHVCPoint@@@Z 00422720 f i ChildView.obj
 0001:00021770       ?NFocusIdleProcess@CChildView@@QAEHJ@Z 00422770 f   ChildView.obj
 0001:000217b0       ?SocketInit@CChildView@@QAEHXZ 004227b0 f   ChildView.obj
 0001:000217f0       ?SocketRelease@CChildView@@QAEHXZ 004227f0 f   ChildView.obj
 0001:00021830       ?PacketProcess@CChildView@@QAEXXZ 00422830 f   ChildView.obj
 0001:000218f0       ?OnPacketProcess@CChildView@@IAEJIJ@Z 004228f0 f   ChildView.obj
 0001:00021940       ?OnPacketPending@CChildView@@IAEJIJ@Z 00422940 f   ChildView.obj
 0001:00021990       ?MouseProcess@CChildView@@QAEHXZ 00422990 f   ChildView.obj
 0001:000220d0       ?GetCaptureStatus@CUIRes@@QAEHXZ 004230d0 f i ChildView.obj
 0001:00022100       ?IsCharDie@CUser@@QAEHXZ   00423100 f i ChildView.obj
 0001:00022150       ?AccountMouseProcess@CChildView@@QAEXPAH@Z 00423150 f   ChildView.obj
 0001:000221b0       ?LoginMouseProcess@CChildView@@QAEXPAVCDialog_Login@@@Z 004231b0 f   ChildView.obj
 0001:00022220       ?LBtnDown@CChildView@@QAEXAAVCPoint@@@Z 00423220 f   ChildView.obj
 0001:00022730       ?SetByte@CPacketParser@@SAXPAEAAHE@Z 00423730 f i ChildView.obj
 0001:00022770       ?MP_AddByte@SocketMng@@SAXPAEAAHE@Z 00423770 f i ChildView.obj
 0001:000227c0       ?IsSelectMode@CHousePlaceManager@@QAEHXZ 004237c0 f i ChildView.obj
 0001:000227f0       ?LBtnPressing@CChildView@@QAEXAAVCPoint@@@Z 004237f0 f   ChildView.obj
 0001:00022a70       ?IsCharAttack@CUser@@QAEHXZ 00423a70 f i ChildView.obj
 0001:00022ab0       ?LBtnUp@CChildView@@QAEXAAVCPoint@@@Z 00423ab0 f   ChildView.obj
 0001:00022ae0       ?RBtnDown@CChildView@@QAEXAAVCPoint@@@Z 00423ae0 f   ChildView.obj
 0001:00022c80       ?RBtnPressing@CChildView@@QAEXAAVCPoint@@@Z 00423c80 f   ChildView.obj
 0001:00022cb0       ?RBtnUp@CChildView@@QAEXAAVCPoint@@@Z 00423cb0 f   ChildView.obj
 0001:00022ce0       ?MouseMove@CChildView@@QAEXAAVCPoint@@H@Z 00423ce0 f   ChildView.obj
 0001:00022f90       ?OnLButtonDown@CChildView@@IAEXIVCPoint@@@Z 00423f90 f   ChildView.obj
 0001:00023000       ?IsDirectInputValid@DirectXMng@@QAEHXZ 00424000 f i ChildView.obj
 0001:00023040       ?OnLButtonDblClk@CChildView@@IAEXIVCPoint@@@Z 00424040 f   ChildView.obj
 0001:000230b0       ?OnLButtonUp@CChildView@@IAEXIVCPoint@@@Z 004240b0 f   ChildView.obj
 0001:00023120       ?OnMouseMove@CChildView@@IAEXIVCPoint@@@Z 00424120 f   ChildView.obj
 0001:00023190       ?OnRButtonDown@CChildView@@IAEXIVCPoint@@@Z 00424190 f   ChildView.obj
 0001:00023200       ?OnRButtonUp@CChildView@@IAEXIVCPoint@@@Z 00424200 f   ChildView.obj
 0001:00023270       ?SetMyUserId@CChildView@@QAEXH@Z 00424270 f   ChildView.obj
 0001:000232c0       ?SetMyUserId@CUserManager@@QAEXH@Z 004242c0 f i ChildView.obj
 0001:00023300       ?CreateEditor@CChildView@@QAEXXZ 00424300 f   ChildView.obj
 0001:000234b0       ?OnSetFocus@CChildView@@IAEXPAVCWnd@@@Z 004244b0 f   ChildView.obj
 0001:00023540       ?OnKeyDown@CChildView@@IAEXIII@Z 00424540 f   ChildView.obj
 0001:00023a90       ?IsVisible@CDialog_MagicCtrl@@QAEHXZ 00424a90 f i ChildView.obj
 0001:00023ac0       ?InitStaticVariables@CChildView@@QAEXXZ 00424ac0 f   ChildView.obj
 0001:00023b20       ?Search_Item@CChildView@@QAEXXZ 00424b20 f   ChildView.obj
 0001:00023d30       ?Item_Draw@CChildView@@QAEXXZ 00424d30 f   ChildView.obj
 0001:00023d90       ?ShopItem_Draw@CChildView@@QAEXXZ 00424d90 f   ChildView.obj
 0001:00023df0       ?Magic_Item_Draw@CChildView@@QAEXXZ 00424df0 f   ChildView.obj
 0001:00023e30       ?AuctionSell_Item_Draw@CChildView@@QAEXXZ 00424e30 f   ChildView.obj
 0001:00023e80       ?Item_Init@CChildView@@QAEXXZ 00424e80 f   ChildView.obj
 0001:00023ed0       ?ChangeItem@CChildView@@SAHH@Z 00424ed0 f   ChildView.obj
 0001:00023fa0       ?AttackMagic@CChildView@@QAEXHHH@Z 00424fa0 f   ChildView.obj
 0001:00023fd0       ?Rail_MagicProcess@CChildView@@QAEXXZ 00424fd0 f   ChildView.obj
 0001:00024000       ?LoginAcount@CChildView@@QAEHVCString@@0@Z 00425000 f   ChildView.obj
 0001:000241f0       ??1CMsg@@UAE@XZ            004251f0 f i ChildView.obj
 0001:00024230       ?LoginAcountNew@CChildView@@QAEHXZ 00425230 f   ChildView.obj
 0001:000245c0       ?LogIn@CChildView@@QAEHXZ  004255c0 f   ChildView.obj
 0001:000246e0       ?Login_Window@CChildView@@QAEXXZ 004256e0 f   ChildView.obj
 0001:00024bd0       ?InitLogin@CChildView@@QAEHXZ 00425bd0 f   ChildView.obj
 0001:00027ab0       ?GetViewMode@CDialog_AccountLogin@@QAEHXZ 00428ab0 f i ChildView.obj
 0001:00027ae0       ?InitChar@CChildView@@QAEXXZ 00428ae0 f   ChildView.obj
 0001:00027e50       ?ReStart@CChildView@@QAEXXZ 00428e50 f   ChildView.obj
 0001:00028470       ?GameLogin@CChildView@@QAEXXZ 00429470 f   ChildView.obj
 0001:0002a210       ?GetSessionLoginStatus@CPacketParser@@QAEHXZ 0042b210 f i ChildView.obj
 0001:0002a240       ??0_tgCharData@@QAE@XZ     0042b240 f i ChildView.obj
 0001:0002a290       ?LoginCharterView@CChildView@@QAEXXZ 0042b290 f   ChildView.obj
 0001:0002a2d0       ?LoginView@CChildView@@QAEXXZ 0042b2d0 f   ChildView.obj
 0001:0002a460       ?SendNewHero@CChildView@@QAEHVCString@@PAVCDialog_Login@@@Z 0042b460 f   ChildView.obj
 0001:0002a6c0       ?SetShort@CPacketParser@@SAXPAEAAHF@Z 0042b6c0 f i ChildView.obj
 0001:0002a700       ?MP_AddShort@SocketMng@@SAXPAEAAHF@Z 0042b700 f i ChildView.obj
 0001:0002a750       ?SetString@CPacketParser@@SAXPAEAAH0H@Z 0042b750 f i ChildView.obj
 0001:0002a7a0       ?MP_AddString@SocketMng@@SAXPAEAAH0H@Z 0042b7a0 f i ChildView.obj
 0001:0002a7f0       ?SendDelHero@CChildView@@QAEXVCString@@@Z 0042b7f0 f   ChildView.obj
 0001:0002a8d0       ?NewHeroProcess@CChildView@@QAEXPAE@Z 0042b8d0 f   ChildView.obj
 0001:0002b540       ?GetShort@CPacketParser@@SAAAFPAEAAH@Z 0042c540 f i ChildView.obj
 0001:0002b580       ?Parse_GetShort@SocketMng@@SAAAFPAEAAH@Z 0042c580 f i ChildView.obj
 0001:0002b5c0       ?GetInt@CPacketParser@@SAAAHPAEAAH@Z 0042c5c0 f i ChildView.obj
 0001:0002b600       ?GetByte@CPacketParser@@SAAAEPAEAAH@Z 0042c600 f i ChildView.obj
 0001:0002b640       ?Parse_GetByte@SocketMng@@SAAAEPAEAAH@Z 0042c640 f i ChildView.obj
 0001:0002b680       ?GetString@CPacketParser@@SAXPAEAAH0H@Z 0042c680 f i ChildView.obj
 0001:0002b6d0       ?Parse_GetString@SocketMng@@SAXPAEAAH0H@Z 0042c6d0 f i ChildView.obj
 0001:0002b730       ?DelHeroProcess@CChildView@@QAEXPAE@Z 0042c730 f   ChildView.obj
 0001:0002bb20       ?NewCharter@CChildView@@QAEXXZ 0042cb20 f   ChildView.obj
 0001:0002bcc0       ?UseItemProcess@CChildView@@SAXPAE@Z 0042ccc0 f   ChildView.obj
 0001:0002c000       ?ThrowItemProcess@CChildView@@SAXPAE@Z 0042d000 f   ChildView.obj
 0001:0002c1f0       ?PickUpItemProcess@CChildView@@SAXPAE@Z 0042d1f0 f   ChildView.obj
 0001:0002c2f0       ?OutItemProcess@CChildView@@SAXPAE@Z 0042d2f0 f   ChildView.obj
 0001:0002c370       ?GetItemProcess@CChildView@@SAXPAE@Z 0042d370 f   ChildView.obj
 0001:0002c440       ?MoneyChangeProcess@CChildView@@SAXPAE@Z 0042d440 f   ChildView.obj
 0001:0002c4a0       ?GetDword@CPacketParser@@SAAAKPAEAAH@Z 0042d4a0 f i ChildView.obj
 0001:0002c4e0       ?Parse_GetDword@SocketMng@@SAAAKPAEAAH@Z 0042d4e0 f i ChildView.obj
 0001:0002c520       ?FieldInfoItemProcess@CChildView@@SAXPAE@Z 0042d520 f   ChildView.obj
 0001:0002c6c0       ?CharacterDataProcess@CChildView@@SAXPAE@Z 0042d6c0 f   ChildView.obj
 0001:0002cef0       ?SetDeposition@CUser@@QAEXF@Z 0042def0 f i ChildView.obj
 0001:0002d0b0       ?ClearScreen@CChildView@@QAEXXZ 0042e0b0 f   ChildView.obj
 0001:0002d130       ?PixelToCellUnit@CChildView@@SA?AVCPoint@@V2@@Z 0042e130 f   ChildView.obj
 0001:0002d280       ?CellUnitToPixel@CChildView@@SA?AVCPoint@@V2@@Z 0042e280 f   ChildView.obj
 0001:0002d2e0       ?DrawObject@CChildView@@QAEXXZ 0042e2e0 f   ChildView.obj
 0001:0002d330       ?ChatMode@CChildView@@QAEXH@Z 0042e330 f   ChildView.obj
 0001:0002d3d0       ?DrawHousePlace@CChildView@@QAEXXZ 0042e3d0 f   ChildView.obj
 0001:0002d570       ?ViewSelectBox@CChildView@@QAEXVCRect@@H@Z 0042e570 f   ChildView.obj
 0001:0002d600       ?ReadItemIndex@CChildView@@QAEXXZ 0042e600 f   ChildView.obj
 0001:0002d850       ?GetItemArmTypeIndex@CChildView@@QAEHH@Z 0042e850 f   ChildView.obj
 0001:0002d8a0       ?GetItemDrawOrderIndex@CChildView@@QAEHH@Z 0042e8a0 f   ChildView.obj
 0001:0002d8f0       ?GetItemPicIndex@CChildView@@QAEHH@Z 0042e8f0 f   ChildView.obj
 0001:0002d940       ?DrawTile@CChildView@@QAEXH@Z 0042e940 f   ChildView.obj
 0001:0002e0a0       ?OnTimer@CChildView@@IAEXI@Z 0042f0a0 f   ChildView.obj
 0001:0002e100       ?SendMagicBelt@@YAXXZ      0042f100 f   ChildView.obj
 0001:0002e1b0       ?OnSysKeyDown@CChildView@@IAEXIII@Z 0042f1b0 f   ChildView.obj
 0001:0002e250       ?DrawShawdowObj@CChildView@@QAEXPAVCDDSurface@@@Z 0042f250 f   ChildView.obj
 0001:0002e660       ?DrawShawdowObj@CChildView@@QAEXXZ 0042f660 f   ChildView.obj
 0001:0002e920       ?DrawShawdowObjEx@CChildView@@QAEXXZ 0042f920 f   ChildView.obj
 0001:0002ed40       ?DrawObj@CChildView@@QAEXH@Z 0042fd40 f   ChildView.obj
 0001:0002f0f0       ?DisplayDate@CChildView@@QAEXXZ 004300f0 f   ChildView.obj
 0001:0002f340       ?DisplayRRStats@@YAXAAVDirectXMng@@@Z 00430340 f   ChildView.obj
 0001:0002f8e0       ?FieldCheck@CChildView@@QAEHVCPoint@@HHPAUtagRECT@@PAG@Z 004308e0 f   ChildView.obj
 0001:0002fa20       ?LineCheck@CChildView@@QAEHVCPoint@@HHPAUtagRECT@@PAG@Z 00430a20 f   ChildView.obj
 0001:0002fc90       ?DrawObjEx@CChildView@@QAEXHVCPoint@@00H@Z 00430c90 f   ChildView.obj
 0001:000302f0       ?DrawHouseIn@CChildView@@QAEXHHVCPoint@@0H@Z 004312f0 f   ChildView.obj
 0001:00030970       ?BackLoadingEx@CChildView@@QAEXVCPoint@@@Z 00431970 f   ChildView.obj
 0001:000317a0       ?ArrangeTileResource@CChildView@@QAEXXZ 004327a0 f   ChildView.obj
 0001:000318d0       ?OnChar@CChildView@@IAEXIII@Z 004328d0 f   ChildView.obj
 0001:00031970       ?GetFocusStatus@BBDX_Editor@@QAEHXZ 00432970 f i ChildView.obj
 0001:000319a0       ?OnImeStartComposition@CChildView@@IAEJIJ@Z 004329a0 f   ChildView.obj
 0001:00031a10       ?OnImeComposition@CChildView@@IAEJIJ@Z 00432a10 f   ChildView.obj
 0001:00031a80       ?OnImeEndComposition@CChildView@@IAEJIJ@Z 00432a80 f   ChildView.obj
 0001:00031af0       ?OnImeCompositionFull@CChildView@@IAEJIJ@Z 00432af0 f   ChildView.obj
 0001:00031b60       ?OnKeyUp@CChildView@@IAEXIII@Z 00432b60 f   ChildView.obj
 0001:00031bd0       ?OnSysKeyUp@CChildView@@IAEXIII@Z 00432bd0 f   ChildView.obj
 0001:00031c30       ?SendLivePacket@CChildView@@QAEXXZ 00432c30 f   ChildView.obj
 0001:00031cf0       ?Notice@CChildView@@QAEXPAE@Z 00432cf0 f   ChildView.obj
 0001:00032030       ?RemoveUnUseLSP@CChildView@@QAEXXZ 00433030 f   ChildView.obj
 0001:000320d0       ?DrawMyInObj@CChildView@@QAE?AVCPoint@@HV2@00H@Z 004330d0 f   ChildView.obj
 0001:00032200       ?DrawCommonObj@CChildView@@QAEXHVCPoint@@00H@Z 00433200 f   ChildView.obj
 0001:00032980       ?DrawMyInHouseAndInCheck@CChildView@@QAE?AVCPoint@@HV2@00H@Z 00433980 f   ChildView.obj
 0001:00032fc0       ?GetHousePoint@CHouse@@QAE?AVCPoint@@XZ 00433fc0 f i ChildView.obj
 0001:00033000       ?IsChange@CHouse@@QAEHXZ   00434000 f i ChildView.obj
 0001:00033030       ?SetHousePoint@CHouse@@QAEXVCPoint@@@Z 00434030 f i ChildView.obj
 0001:00033070       ?DrawMyOutObj@CChildView@@QAEXHVCPoint@@00H@Z 00434070 f   ChildView.obj
 0001:00033120       ?DrawTransOutHouse@CChildView@@QAEXHHVCPoint@@0HH@Z 00434120 f   ChildView.obj
 0001:000333a0       ?DrawMyOutHouse@CChildView@@QAEXHVCPoint@@00H@Z 004343a0 f   ChildView.obj
 0001:00033aa0       ?SetMainMode@CChildView@@QAEXH@Z 00434aa0 f   ChildView.obj
 0001:00033bc0       ?GetDXVersion@@YAXPAK0@Z   00434bc0 f   ChildView.obj
 0001:00034330       ?GetAt@?$CArray@PAU_TAG_MAGIC_TABLE@@PAU1@@@QBEPAU_TAG_MAGIC_TABLE@@H@Z 00435330 f i ChildView.obj
 0001:000343a0       ?GetStartPosition@?$CMap@HHPAV_TILE_SET_TOOL@@PAV1@@@QBEPAU__POSITION@@XZ 004353a0 f i ChildView.obj
 0001:000343d0       ?GetNextAssoc@?$CMap@HHPAV_TILE_SET_TOOL@@PAV1@@@QBEXAAPAU__POSITION@@AAHAAPAV_TILE_SET_TOOL@@@Z 004353d0 f i ChildView.obj
 0001:00034550       ??0?$CArray@UTAG_LIGHT_INFO@@U1@@@QAE@XZ 00435550 f i ChildView.obj
 0001:000345c0       ?RemoveAll@?$CArray@UTAG_LIGHT_INFO@@U1@@@QAEXXZ 004355c0 f i ChildView.obj
 0001:00034600       ?Add@?$CArray@UTAG_LIGHT_INFO@@U1@@@QAEHUTAG_LIGHT_INFO@@@Z 00435600 f i ChildView.obj
 0001:00034660       ??1?$CArray@UTAG_LIGHT_INFO@@U1@@@UAE@XZ 00435660 f i ChildView.obj
 0001:00034710       ?Serialize@?$CArray@UTAG_LIGHT_INFO@@U1@@@UAEXAAVCArchive@@@Z 00435710 f i ChildView.obj
 0001:000347b0       ?Dump@?$CArray@UTAG_LIGHT_INFO@@U1@@@UBEXAAVCDumpContext@@@Z 004357b0 f i ChildView.obj
 0001:00034850       ?AssertValid@?$CArray@UTAG_LIGHT_INFO@@U1@@@UBEXXZ 00435850 f i ChildView.obj
 0001:00034980       ??0?$CMap@HHPADAAPAD@@QAE@H@Z 00435980 f i ChildView.obj
 0001:00034a50       ?IsEmpty@?$CMap@HHPADAAPAD@@QBEHXZ 00435a50 f i ChildView.obj
 0001:00034a90       ?Lookup@?$CMap@HHPADAAPAD@@QBEHHAAPAD@Z 00435a90 f i ChildView.obj
 0001:00034b00       ??A?$CMap@HHPADAAPAD@@QAEAAPADH@Z 00435b00 f i ChildView.obj
 0001:00034bc0       ?RemoveAll@?$CMap@HHPADAAPAD@@QAEXXZ 00435bc0 f i ChildView.obj
 0001:00034cb0       ?GetStartPosition@?$CMap@HHPADAAPAD@@QBEPAU__POSITION@@XZ 00435cb0 f i ChildView.obj
 0001:00034ce0       ?GetNextAssoc@?$CMap@HHPADAAPAD@@QBEXAAPAU__POSITION@@AAHAAPAD@Z 00435ce0 f i ChildView.obj
 0001:00034e60       ??1?$CMap@HHPADAAPAD@@UAE@XZ 00435e60 f i ChildView.obj
 0001:00034f00       ?Serialize@?$CMap@HHPADAAPAD@@UAEXAAVCArchive@@@Z 00435f00 f i ChildView.obj
 0001:00035050       ?Dump@?$CMap@HHPADAAPAD@@UBEXAAVCDumpContext@@@Z 00436050 f i ChildView.obj
 0001:00035130       ?AssertValid@?$CMap@HHPADAAPAD@@UBEXXZ 00436130 f i ChildView.obj
 0001:000351c0       ??_G?$CArray@UTAG_LIGHT_INFO@@U1@@@UAEPAXI@Z 004361c0 f i ChildView.obj
 0001:000351c0       ??_E?$CArray@UTAG_LIGHT_INFO@@U1@@@UAEPAXI@Z 004361c0 f i ChildView.obj
 0001:00035210       ??_G?$CMap@HHPADAAPAD@@UAEPAXI@Z 00436210 f i ChildView.obj
 0001:00035210       ??_E?$CMap@HHPADAAPAD@@UAEPAXI@Z 00436210 f i ChildView.obj
 0001:00035260       ?SetSize@?$CArray@UTAG_LIGHT_INFO@@U1@@@QAEXHH@Z 00436260 f i ChildView.obj
 0001:00035590       ?SetAtGrow@?$CArray@UTAG_LIGHT_INFO@@U1@@@QAEXHUTAG_LIGHT_INFO@@@Z 00436590 f i ChildView.obj
 0001:00035630       ?DestructElements@@YGXPAUTAG_LIGHT_INFO@@H@Z 00436630 f i ChildView.obj
 0001:000356b0       ?SerializeElements@@YGXAAVCArchive@@PAUTAG_LIGHT_INFO@@H@Z 004366b0 f i ChildView.obj
 0001:00035750       ?DumpElements@@YGXAAVCDumpContext@@PBUTAG_LIGHT_INFO@@H@Z 00436750 f i ChildView.obj
 0001:000357b0       ?SetAt@?$CMap@HHPADAAPAD@@QAEXHAAPAD@Z 004367b0 f i ChildView.obj
 0001:00035800       ?InitHashTable@?$CMap@HHPADAAPAD@@QAEXIH@Z 00436800 f i ChildView.obj
 0001:00035900       ?NewAssoc@?$CMap@HHPADAAPAD@@IAEPAUCAssoc@1@XZ 00436900 f i ChildView.obj
 0001:00035a40       ?GetAssocAt@?$CMap@HHPADAAPAD@@IBEPAUCAssoc@1@HAAI@Z 00436a40 f i ChildView.obj
 0001:00035ae0       ?DestructElements@@YGXPAPADH@Z 00436ae0 f i ChildView.obj
 0001:00035b60       ?SerializeElements@@YGXAAVCArchive@@PAPADH@Z 00436b60 f i ChildView.obj
 0001:00035c00       ?DumpElements@@YGXAAVCDumpContext@@PBQADH@Z 00436c00 f i ChildView.obj
 0001:00035c60       ?ConstructElements@@YGXPAUTAG_LIGHT_INFO@@H@Z 00436c60 f i ChildView.obj
 0001:00035d50       ?ConstructElements@@YGXPAPADH@Z 00436d50 f i ChildView.obj
 0001:00035e00       ??0CDialog_AccountLogin@@QAE@XZ 00436e00 f   Dialog_AccountLogin.obj
 0001:00035fe0       ?DragDraw@CUIRes@@UAEHPAVCDDSurface@@@Z 00436fe0 f i Dialog_AccountLogin.obj
 0001:00036010       ?OnLButtonDblClk@CUIRes@@UAEHPAVBBDX_MouseInformation@@@Z 00437010 f i Dialog_AccountLogin.obj
 0001:00036040       ?OnKeyUp@CUIRes@@UAEHIII@Z 00437040 f i Dialog_AccountLogin.obj
 0001:00036070       ?TapHopping@CUIRes@@UAEXXZ 00437070 f i Dialog_AccountLogin.obj
 0001:000360a0       ?CallBack_MessageBox@CUIRes@@UAEXHH@Z 004370a0 f i Dialog_AccountLogin.obj
 0001:000360d0       ?HideAllWindow@CUIRes@@UAEXXZ 004370d0 f i Dialog_AccountLogin.obj
 0001:00036100       ??1SWater@@QAE@XZ          00437100 f i Dialog_AccountLogin.obj
 0001:00036130       ??_ECDialog_AccountLogin@@UAEPAXI@Z 00437130 f i Dialog_AccountLogin.obj
 0001:00036130       ??_GCDialog_AccountLogin@@UAEPAXI@Z 00437130 f i Dialog_AccountLogin.obj
 0001:00036190       ??1CDialog_AccountLogin@@UAE@XZ 00437190 f   Dialog_AccountLogin.obj
 0001:00036530       ?KillFocus@CDialog_AccountLogin@@QAEXXZ 00437530 f   Dialog_AccountLogin.obj
 0001:00036560       ?SetFocus@CDialog_AccountLogin@@UAEXXZ 00437560 f   Dialog_AccountLogin.obj
 0001:00036590       ?DrawEditorText@CDialog_AccountLogin@@QAEXPAVCDDSurface@@HH@Z 00437590 f   Dialog_AccountLogin.obj
 0001:00036a80       ?CreateEditor@CDialog_AccountLogin@@QAEXPAVCWnd@@H@Z 00437a80 f   Dialog_AccountLogin.obj
 0001:00037f10       ?DeletePersonalCheck@CDialog_AccountLogin@@QAEXXZ 00438f10 f   Dialog_AccountLogin.obj
 0001:00038060       ?Create@CDialog_AccountLogin@@QAEHPAVCDirectDraw@@VCString@@HHH@Z 00439060 f   Dialog_AccountLogin.obj
 0001:000381a0       ?GetTextOutRect@CDialog_AccountLogin@@QAE?AVCRect@@H@Z 004391a0 f   Dialog_AccountLogin.obj
 0001:00038220       ?MouseProcess@CDialog_AccountLogin@@QAEHPAVBBDX_MouseInformation@@PAH@Z 00439220 f   Dialog_AccountLogin.obj
 0001:00038340       ?Draw@CDialog_AccountLogin@@UAEHPAVCDDSurface@@@Z 00439340 f   Dialog_AccountLogin.obj
 0001:000386d0       ?DrawErrorText@CDialog_AccountLogin@@QAEXAAU_DDSURFACEDESC2@@@Z 004396d0 f   Dialog_AccountLogin.obj
 0001:000388d0       ?GameOpen@CDialog_AccountLogin@@QAEXXZ 004398d0 f   Dialog_AccountLogin.obj
 0001:00038900       ?SetMessage@CDialog_AccountLogin@@QAEXVCString@@@Z 00439900 f   Dialog_AccountLogin.obj
 0001:00038980       ?OnLButtonDown@CDialog_AccountLogin@@UAEHPAVBBDX_MouseInformation@@@Z 00439980 f   Dialog_AccountLogin.obj
 0001:00039420       ?OnLButtonUp@CDialog_AccountLogin@@UAEHPAVBBDX_MouseInformation@@@Z 0043a420 f   Dialog_AccountLogin.obj
 0001:000396e0       ?OnMouseMove@CDialog_AccountLogin@@UAEHPAVBBDX_MouseInformation@@@Z 0043a6e0 f   Dialog_AccountLogin.obj
 0001:000398f0       ?SetViewMode@CDialog_AccountLogin@@QAEXH@Z 0043a8f0 f   Dialog_AccountLogin.obj
 0001:00039980       ?InitAccount@CDialog_AccountLogin@@QAEXXZ 0043a980 f   Dialog_AccountLogin.obj
 0001:000399c0       ?InitNewAccount@CDialog_AccountLogin@@QAEXXZ 0043a9c0 f   Dialog_AccountLogin.obj
 0001:00039a00       ?InitMsg@CDialog_AccountLogin@@QAEXXZ 0043aa00 f   Dialog_AccountLogin.obj
 0001:00039a40       ??A?$CTypedPtrArray@VCPtrArray@@PAVMAreaCtrl@@@@QAEAAPAVMAreaCtrl@@H@Z 0043aa40 f i Dialog_AccountLogin.obj
 0001:00039a80       ??A?$CTypedPtrArray@VCPtrArray@@PAVMBtnCtrl@@@@QAEAAPAVMBtnCtrl@@H@Z 0043aa80 f i Dialog_AccountLogin.obj
 0001:00039ac0       ??0CDialog_AuctionBuy@@QAE@XZ 0043aac0 f   Dialog_Auctionbuy.obj
 0001:00039b80       ??_GCDialog_AuctionBuy@@UAEPAXI@Z 0043ab80 f i Dialog_Auctionbuy.obj
 0001:00039b80       ??_ECDialog_AuctionBuy@@UAEPAXI@Z 0043ab80 f i Dialog_Auctionbuy.obj
 0001:00039be0       ??0?$CTypedPtrArray@VCPtrArray@@PAVITEM_AUCTION@@@@QAE@XZ 0043abe0 f i Dialog_Auctionbuy.obj
 0001:00039c30       ??_G?$CTypedPtrArray@VCPtrArray@@PAVITEM_AUCTION@@@@UAEPAXI@Z 0043ac30 f i Dialog_Auctionbuy.obj
 0001:00039c30       ??_E?$CTypedPtrArray@VCPtrArray@@PAVITEM_AUCTION@@@@UAEPAXI@Z 0043ac30 f i Dialog_Auctionbuy.obj
 0001:00039c80       ??1?$CTypedPtrArray@VCPtrArray@@PAVITEM_AUCTION@@@@UAE@XZ 0043ac80 f i Dialog_Auctionbuy.obj
 0001:00039cc0       ??1CDialog_AuctionBuy@@UAE@XZ 0043acc0 f   Dialog_Auctionbuy.obj
 0001:00039e20       ??_ECString@@QAEPAXI@Z     0043ae20 f i Dialog_Auctionbuy.obj
 0001:00039ec0       ?Create@CDialog_AuctionBuy@@UAEHPAVCDirectDraw@@VCString@@HHHH@Z 0043aec0 f   Dialog_Auctionbuy.obj
 0001:0003a0a0       ?InitData@CDialog_AuctionBuy@@QAEXXZ 0043b0a0 f   Dialog_Auctionbuy.obj
 0001:0003a0e0       ?DeleteContents@CDialog_AuctionBuy@@QAEXXZ 0043b0e0 f   Dialog_Auctionbuy.obj
 0001:0003a1d0       ??_GITEM_AUCTION@@QAEPAXI@Z 0043b1d0 f i Dialog_Auctionbuy.obj
 0001:0003a230       ??1ITEM_AUCTION@@QAE@XZ    0043b230 f i Dialog_Auctionbuy.obj
 0001:0003a2c0       ?ShowWindow@CDialog_AuctionBuy@@UAEXXZ 0043b2c0 f   Dialog_Auctionbuy.obj
 0001:0003a370       ?IsLoading@CUIRes@@QAEHXZ  0043b370 f i Dialog_Auctionbuy.obj
 0001:0003a3a0       ?HideWindow@CDialog_AuctionBuy@@UAEXXZ 0043b3a0 f   Dialog_Auctionbuy.obj
 0001:0003a3f0       ?HideAllWindow@CDialog_AuctionBuy@@UAEXXZ 0043b3f0 f   Dialog_Auctionbuy.obj
 0001:0003a430       ?OnButtonAction@CDialog_AuctionBuy@@UAEHHH@Z 0043b430 f   Dialog_Auctionbuy.obj
 0001:0003a4d0       ?ScrollDown@CUIScrollBar@@QAEXXZ 0043b4d0 f i Dialog_Auctionbuy.obj
 0001:0003a540       ?ScrollUp@CUIScrollBar@@QAEXXZ 0043b540 f i Dialog_Auctionbuy.obj
 0001:0003a5b0       ?Draw@CDialog_AuctionBuy@@UAEHPAVCDDSurface@@@Z 0043b5b0 f   Dialog_Auctionbuy.obj
 0001:0003aa30       ?GetStartLine@CUIScrollBar@@QAEHXZ 0043ba30 f i Dialog_Auctionbuy.obj
 0001:0003aa60       ?SetScrollData@CDialog_AuctionBuy@@QAEXXZ 0043ba60 f   Dialog_Auctionbuy.obj
 0001:0003ab00       ?SetMaxLineCount@CUIScrollBar@@QAEXH@Z 0043bb00 f i Dialog_Auctionbuy.obj
 0001:0003ab30       ?SetViewLineCount@CUIScrollBar@@QAEXH@Z 0043bb30 f i Dialog_Auctionbuy.obj
 0001:0003ab60       ?OnLButtonDown@CDialog_AuctionBuy@@UAEHPAVBBDX_MouseInformation@@@Z 0043bb60 f   Dialog_Auctionbuy.obj
 0001:0003ad30       ?CallBack_MessageBox@CDialog_AuctionBuy@@UAEXHH@Z 0043bd30 f   Dialog_Auctionbuy.obj
 0001:0003add0       ?SendAuction@CDialog_AuctionBuy@@QAEXK@Z 0043bdd0 f   Dialog_Auctionbuy.obj
 0001:0003ae90       ?SetInt@CPacketParser@@SAXPAEAAHH@Z 0043be90 f i Dialog_Auctionbuy.obj
 0001:0003aed0       ?MP_AddInt@SocketMng@@SAXPAEAAHH@Z 0043bed0 f i Dialog_Auctionbuy.obj
 0001:0003af20       ?SetDword@CPacketParser@@SAXPAEAAHK@Z 0043bf20 f i Dialog_Auctionbuy.obj
 0001:0003af60       ?MP_AddDword@SocketMng@@SAXPAEAAHK@Z 0043bf60 f i Dialog_Auctionbuy.obj
 0001:0003afb0       ?RcvOpen@CDialog_AuctionBuy@@QAEXPAE@Z 0043bfb0 f   Dialog_Auctionbuy.obj
 0001:0003b580       ??0ITEM_AUCTION@@QAE@XZ    0043c580 f i Dialog_Auctionbuy.obj
 0001:0003b6c0       ?RcvAuction@CDialog_AuctionBuy@@QAEXPAE@Z 0043c6c0 f   Dialog_Auctionbuy.obj
 0001:0003b790       ?OnLButtonUp@CDialog_AuctionBuy@@UAEHPAVBBDX_MouseInformation@@@Z 0043c790 f   Dialog_Auctionbuy.obj
 0001:0003b7f0       ?OnMouseMove@CDialog_AuctionBuy@@UAEHPAVBBDX_MouseInformation@@@Z 0043c7f0 f   Dialog_Auctionbuy.obj
 0001:0003b850       ?Add@?$CTypedPtrArray@VCPtrArray@@PAVITEM_AUCTION@@@@QAEHPAVITEM_AUCTION@@@Z 0043c850 f i Dialog_Auctionbuy.obj
 0001:0003b890       ??A?$CTypedPtrArray@VCPtrArray@@PAVITEM_AUCTION@@@@QAEAAPAVITEM_AUCTION@@H@Z 0043c890 f i Dialog_Auctionbuy.obj
 0001:0003b8d0       ??0CDialog_AuctionDetail@@QAE@XZ 0043c8d0 f   Dialog_AuctionDetail.obj
 0001:0003b9a0       ??_GCDialog_AuctionDetail@@UAEPAXI@Z 0043c9a0 f i Dialog_AuctionDetail.obj
 0001:0003b9a0       ??_ECDialog_AuctionDetail@@UAEPAXI@Z 0043c9a0 f i Dialog_AuctionDetail.obj
 0001:0003ba00       ??1CDialog_AuctionDetail@@UAE@XZ 0043ca00 f   Dialog_AuctionDetail.obj
 0001:0003bb00       ?OnButtonAction@CDialog_AuctionDetail@@UAEHHH@Z 0043cb00 f   Dialog_AuctionDetail.obj
 0001:0003bd60       ?OnKeyDown@CDialog_AuctionDetail@@UAEHIII@Z 0043cd60 f   Dialog_AuctionDetail.obj
 0001:0003bfb0       ?Draw@CDialog_AuctionDetail@@UAEHPAVCDDSurface@@@Z 0043cfb0 f   Dialog_AuctionDetail.obj
 0001:0003c2b0       ?Create@CDialog_AuctionDetail@@UAEHPAVCDirectDraw@@VCString@@HHHH@Z 0043d2b0 f   Dialog_AuctionDetail.obj
 0001:0003c490       ?ShowWindow@CDialog_AuctionDetail@@QAEXHPAVCUIRes@@PAVITEM_AUCTION@@@Z 0043d490 f   Dialog_AuctionDetail.obj
 0001:0003ce30       ?SetWnd@CUIRes@@QAEXPAVCWnd@@@Z 0043de30 f i Dialog_AuctionDetail.obj
 0001:0003ce70       ?HideWindow@CDialog_AuctionDetail@@UAEXXZ 0043de70 f   Dialog_AuctionDetail.obj
 0001:0003cf30       ?HideAllWindow@CDialog_AuctionDetail@@UAEXXZ 0043df30 f   Dialog_AuctionDetail.obj
 0001:0003cfb0       ??0CDialog_AuctionSell@@QAE@XZ 0043dfb0 f   Dialog_AuctionSell.obj
 0001:0003d0b0       ??_GCDialog_AuctionSell@@UAEPAXI@Z 0043e0b0 f i Dialog_AuctionSell.obj
 0001:0003d0b0       ??_ECDialog_AuctionSell@@UAEPAXI@Z 0043e0b0 f i Dialog_AuctionSell.obj
 0001:0003d110       ??0?$CTypedPtrArray@VCPtrArray@@PAVITEM_DETAIL@@@@QAE@XZ 0043e110 f i Dialog_AuctionSell.obj
 0001:0003d160       ??_G?$CTypedPtrArray@VCPtrArray@@PAVITEM_DETAIL@@@@UAEPAXI@Z 0043e160 f i Dialog_AuctionSell.obj
 0001:0003d160       ??_E?$CTypedPtrArray@VCPtrArray@@PAVITEM_DETAIL@@@@UAEPAXI@Z 0043e160 f i Dialog_AuctionSell.obj
 0001:0003d1b0       ??1?$CTypedPtrArray@VCPtrArray@@PAVITEM_DETAIL@@@@UAE@XZ 0043e1b0 f i Dialog_AuctionSell.obj
 0001:0003d1f0       ??1CDialog_AuctionSell@@UAE@XZ 0043e1f0 f   Dialog_AuctionSell.obj
 0001:0003d330       ?OnButtonAction@CDialog_AuctionSell@@UAEHHH@Z 0043e330 f   Dialog_AuctionSell.obj
 0001:0003d540       ?Draw@CDialog_AuctionSell@@UAEHPAVCDDSurface@@@Z 0043e540 f   Dialog_AuctionSell.obj
 0001:0003f090       ?SetScrollData@CDialog_AuctionSell@@QAEXXZ 00440090 f   Dialog_AuctionSell.obj
 0001:0003f130       ?RefreshData@CDialog_AuctionSell@@QAEXXZ 00440130 f   Dialog_AuctionSell.obj
 0001:0003f450       ??0ITEM_DETAIL@@QAE@XZ     00440450 f i Dialog_AuctionSell.obj
 0001:0003f560       ??_GITEM_DETAIL@@QAEPAXI@Z 00440560 f i Dialog_AuctionSell.obj
 0001:0003f5c0       ??1ITEM_DETAIL@@QAE@XZ     004405c0 f i Dialog_AuctionSell.obj
 0001:0003f640       ?Create@CDialog_AuctionSell@@UAEHPAVCDirectDraw@@VCString@@HHHH@Z 00440640 f   Dialog_AuctionSell.obj
 0001:0003f820       ?InitData@CDialog_AuctionSell@@QAEXXZ 00440820 f   Dialog_AuctionSell.obj
 0001:0003f880       ?DeleteContents@CDialog_AuctionSell@@QAEXXZ 00440880 f   Dialog_AuctionSell.obj
 0001:0003f970       ?SetAuctionData@CDialog_AuctionSell@@QAEXPAVITEM_AUCTION@@@Z 00440970 f   Dialog_AuctionSell.obj
 0001:0003fa20       ?OnLButtonDown@CDialog_AuctionSell@@UAEHPAVBBDX_MouseInformation@@@Z 00440a20 f   Dialog_AuctionSell.obj
 0001:0003faa0       ?OnLButtonUp@CDialog_AuctionSell@@UAEHPAVBBDX_MouseInformation@@@Z 00440aa0 f   Dialog_AuctionSell.obj
 0001:0003fb00       ?OnMouseMove@CDialog_AuctionSell@@UAEHPAVBBDX_MouseInformation@@@Z 00440b00 f   Dialog_AuctionSell.obj
 0001:0003fc70       ?AskAuctionMoney@CDialog_AuctionSell@@QAEXXZ 00440c70 f   Dialog_AuctionSell.obj
 0001:0003fcb0       ?CallBack_MessageBox@CDialog_AuctionSell@@UAEXHH@Z 00440cb0 f   Dialog_AuctionSell.obj
 0001:0003fd70       ?SendAuctionItem@CDialog_AuctionSell@@QAEXK@Z 00440d70 f   Dialog_AuctionSell.obj
 0001:0003fe60       ?RcvAuctionItem@CDialog_AuctionSell@@QAEXPAE@Z 00440e60 f   Dialog_AuctionSell.obj
 0001:000402a0       ?ShowWindow@CDialog_AuctionSell@@UAEXXZ 004412a0 f   Dialog_AuctionSell.obj
 0001:00040360       ?HideWindow@CDialog_AuctionSell@@UAEXXZ 00441360 f   Dialog_AuctionSell.obj
 0001:000403b0       ?HideAllWindow@CDialog_AuctionSell@@UAEXXZ 004413b0 f   Dialog_AuctionSell.obj
 0001:00040400       ?AuctionOpen@CDialog_AuctionSell@@QAEXPAE@Z 00441400 f   Dialog_AuctionSell.obj
 0001:00040790       ?SendGetAuctionItem@CDialog_AuctionSell@@QAEXXZ 00441790 f   Dialog_AuctionSell.obj
 0001:00040810       ?RcvGetAuctionItem@CDialog_AuctionSell@@QAEXPAE@Z 00441810 f   Dialog_AuctionSell.obj
 0001:00040910       ?DrawTipRect@CDialog_AuctionSell@@QAEXPAVCDDSurface@@AAVCRect@@H@Z 00441910 f   Dialog_AuctionSell.obj
 0001:00040dc0       ?ViewCaption@CDialog_AuctionSell@@QAEXPAVCDDSurface@@VCPoint@@VCString@@H@Z 00441dc0 f   Dialog_AuctionSell.obj
 0001:00040fe0       ?Add@?$CTypedPtrArray@VCPtrArray@@PAVITEM_DETAIL@@@@QAEHPAVITEM_DETAIL@@@Z 00441fe0 f i Dialog_AuctionSell.obj
 0001:00041020       ??A?$CTypedPtrArray@VCPtrArray@@PAVITEM_DETAIL@@@@QAEAAPAVITEM_DETAIL@@H@Z 00442020 f i Dialog_AuctionSell.obj
 0001:00041060       ??0CDialog_BlackMagic@@QAE@PAVCWnd@@@Z 00442060 f   Dialog_BlackMagic.obj
 0001:00041130       ??_ECDialog_BlackMagic@@UAEPAXI@Z 00442130 f i Dialog_BlackMagic.obj
 0001:00041130       ??_GCDialog_BlackMagic@@UAEPAXI@Z 00442130 f i Dialog_BlackMagic.obj
 0001:00041190       ??1CDialog_BlackMagic@@UAE@XZ 00442190 f   Dialog_BlackMagic.obj
 0001:000412a0       ?Create@CDialog_BlackMagic@@UAEHPAVCDirectDraw@@VCString@@HHHH@Z 004422a0 f   Dialog_BlackMagic.obj
 0001:00041480       ?Draw@CDialog_BlackMagic@@UAEHPAVCDDSurface@@@Z 00442480 f   Dialog_BlackMagic.obj
 0001:00041920       ?DragDraw@CDialog_BlackMagic@@UAEHPAVCDDSurface@@@Z 00442920 f   Dialog_BlackMagic.obj
 0001:00041a70       ?OnButtonAction@CDialog_BlackMagic@@UAEHHH@Z 00442a70 f   Dialog_BlackMagic.obj
 0001:00041b90       ?SetScrollData@CDialog_BlackMagic@@QAEXXZ 00442b90 f   Dialog_BlackMagic.obj
 0001:00041c40       ?InitData@CDialog_BlackMagic@@QAEXXZ 00442c40 f   Dialog_BlackMagic.obj
 0001:00041c90       ?OnLButtonDown@CDialog_BlackMagic@@UAEHPAVBBDX_MouseInformation@@@Z 00442c90 f   Dialog_BlackMagic.obj
 0001:00041e50       ?OnMouseMove@CDialog_BlackMagic@@UAEHPAVBBDX_MouseInformation@@@Z 00442e50 f   Dialog_BlackMagic.obj
 0001:00041eb0       ?OnLButtonUp@CDialog_BlackMagic@@UAEHPAVBBDX_MouseInformation@@@Z 00442eb0 f   Dialog_BlackMagic.obj
 0001:00042000       ?ShowWindow@CDialog_BlackMagic@@UAEXXZ 00443000 f   Dialog_BlackMagic.obj
 0001:000420b0       ?HideWindow@CDialog_BlackMagic@@UAEXXZ 004430b0 f   Dialog_BlackMagic.obj
 0001:000420f0       ?HideAllWindow@CDialog_BlackMagic@@UAEXXZ 004430f0 f   Dialog_BlackMagic.obj
 0001:00042130       ?OnKeyDown@CDialog_BlackMagic@@UAEHIII@Z 00443130 f   Dialog_BlackMagic.obj
 0001:00042180       ??A?$CTypedPtrArray@VCPtrArray@@PAVCMyMagicData@@@@QAEAAPAVCMyMagicData@@H@Z 00443180 f i Dialog_BlackMagic.obj
 0001:000421c0       ??0CDialog_BlueMagic@@QAE@PAVCWnd@@@Z 004431c0 f   Dialog_BlueMagic.obj
 0001:00042290       ??_ECDialog_BlueMagic@@UAEPAXI@Z 00443290 f i Dialog_BlueMagic.obj
 0001:00042290       ??_GCDialog_BlueMagic@@UAEPAXI@Z 00443290 f i Dialog_BlueMagic.obj
 0001:000422f0       ??1CDialog_BlueMagic@@UAE@XZ 004432f0 f   Dialog_BlueMagic.obj
 0001:00042400       ?Create@CDialog_BlueMagic@@UAEHPAVCDirectDraw@@VCString@@HHHH@Z 00443400 f   Dialog_BlueMagic.obj
 0001:000425e0       ?Draw@CDialog_BlueMagic@@UAEHPAVCDDSurface@@@Z 004435e0 f   Dialog_BlueMagic.obj
 0001:00042aa0       ?DragDraw@CDialog_BlueMagic@@UAEHPAVCDDSurface@@@Z 00443aa0 f   Dialog_BlueMagic.obj
 0001:00042bf0       ?OnButtonAction@CDialog_BlueMagic@@UAEHHH@Z 00443bf0 f   Dialog_BlueMagic.obj
 0001:00042d30       ?SetScrollData@CDialog_BlueMagic@@QAEXXZ 00443d30 f   Dialog_BlueMagic.obj
 0001:00042de0       ?InitData@CDialog_BlueMagic@@QAEXXZ 00443de0 f   Dialog_BlueMagic.obj
 0001:00042e30       ?OnLButtonDown@CDialog_BlueMagic@@UAEHPAVBBDX_MouseInformation@@@Z 00443e30 f   Dialog_BlueMagic.obj
 0001:00042ff0       ?OnMouseMove@CDialog_BlueMagic@@UAEHPAVBBDX_MouseInformation@@@Z 00443ff0 f   Dialog_BlueMagic.obj
 0001:00043050       ?OnLButtonUp@CDialog_BlueMagic@@UAEHPAVBBDX_MouseInformation@@@Z 00444050 f   Dialog_BlueMagic.obj
 0001:000431a0       ?ShowWindow@CDialog_BlueMagic@@UAEXXZ 004441a0 f   Dialog_BlueMagic.obj
 0001:00043280       ?HideWindow@CDialog_BlueMagic@@UAEXXZ 00444280 f   Dialog_BlueMagic.obj
 0001:000432c0       ?HideAllWindow@CDialog_BlueMagic@@UAEXXZ 004442c0 f   Dialog_BlueMagic.obj
 0001:00043300       ?OnKeyDown@CDialog_BlueMagic@@UAEHIII@Z 00444300 f   Dialog_BlueMagic.obj
 0001:00043350       ??A?$CTypedPtrArray@VCPtrArray@@PAVMBtnCtrlEx@@@@QAEAAPAVMBtnCtrlEx@@H@Z 00444350 f i Dialog_BlueMagic.obj
 0001:00043390       ??0CDialog_BoardCtrl@@QAE@XZ 00444390 f   Dialog_BoardCtrl.obj
 0001:00043440       ??_ECDialog_BoardCtrl@@UAEPAXI@Z 00444440 f i Dialog_BoardCtrl.obj
 0001:00043440       ??_GCDialog_BoardCtrl@@UAEPAXI@Z 00444440 f i Dialog_BoardCtrl.obj
 0001:000434a0       ??0?$CTypedPtrArray@VCPtrArray@@PAVLIST_DATA@@@@QAE@XZ 004444a0 f i Dialog_BoardCtrl.obj
 0001:000434f0       ??_G?$CTypedPtrArray@VCPtrArray@@PAVLIST_DATA@@@@UAEPAXI@Z 004444f0 f i Dialog_BoardCtrl.obj
 0001:000434f0       ??_E?$CTypedPtrArray@VCPtrArray@@PAVLIST_DATA@@@@UAEPAXI@Z 004444f0 f i Dialog_BoardCtrl.obj
 0001:00043540       ??1?$CTypedPtrArray@VCPtrArray@@PAVLIST_DATA@@@@UAE@XZ 00444540 f i Dialog_BoardCtrl.obj
 0001:00043580       ??1CDialog_BoardCtrl@@UAE@XZ 00444580 f   Dialog_BoardCtrl.obj
 0001:000436e0       ?Draw@CDialog_BoardCtrl@@QAEXPAVCDDSurface@@@Z 004446e0 f   Dialog_BoardCtrl.obj
 0001:00043740       ?InitData@CDialog_BoardCtrl@@QAEHPAVCDirectDraw@@PAVCChildView@@@Z 00444740 f   Dialog_BoardCtrl.obj
 0001:00043950       ?BoardMouseProcess@CDialog_BoardCtrl@@QAEHPAVBBDX_MouseInformation@@@Z 00444950 f   Dialog_BoardCtrl.obj
 0001:00043ab0       ?DrawMode@CDialog_BoardCtrl@@QAEXH@Z 00444ab0 f   Dialog_BoardCtrl.obj
 0001:00043c40       ?RemoveAllSaveList@CDialog_BoardCtrl@@QAEXXZ 00444c40 f   Dialog_BoardCtrl.obj
 0001:00043ce0       ??_GLIST_DATA@@QAEPAXI@Z   00444ce0 f i Dialog_BoardCtrl.obj
 0001:00043d40       ??1LIST_DATA@@QAE@XZ       00444d40 f i Dialog_BoardCtrl.obj
 0001:00043d90       ?BBS_PKT_Process@CDialog_BoardCtrl@@QAEXPAE@Z 00444d90 f   Dialog_BoardCtrl.obj
 0001:00043f90       ?BBS_SetOpen@CDialog_BoardCtrl@@QAEXPAE@Z 00444f90 f   Dialog_BoardCtrl.obj
 0001:00044030       ?BBS_SetList@CDialog_BoardCtrl@@QAEHPAE@Z 00445030 f   Dialog_BoardCtrl.obj
 0001:000440c0       ?BBS_SetRead@CDialog_BoardCtrl@@QAEXPAE@Z 004450c0 f   Dialog_BoardCtrl.obj
 0001:00044170       ?IsUnique@CDialog_BoardCtrl@@QAEHH@Z 00445170 f   Dialog_BoardCtrl.obj
 0001:000441f0       ?GetAt@?$CTypedPtrArray@VCPtrArray@@PAVLIST_DATA@@@@QBEPAVLIST_DATA@@H@Z 004451f0 f i Dialog_BoardCtrl.obj
 0001:00044230       ??0CDialog_BoardList@@QAE@PAVCWnd@@@Z 00445230 f   Dialog_BoardList.obj
 0001:00044310       ??_ECDialog_BoardList@@UAEPAXI@Z 00445310 f i Dialog_BoardList.obj
 0001:00044310       ??_GCDialog_BoardList@@UAEPAXI@Z 00445310 f i Dialog_BoardList.obj
 0001:00044370       ??1CDialog_BoardList@@UAE@XZ 00445370 f   Dialog_BoardList.obj
 0001:00044440       ?OnButtonAction@CDialog_BoardList@@UAEHHH@Z 00445440 f   Dialog_BoardList.obj
 0001:00044520       ?Draw@CDialog_BoardList@@UAEHPAVCDDSurface@@@Z 00445520 f   Dialog_BoardList.obj
 0001:00044790       ?Create@CDialog_BoardList@@UAEHPAVCDirectDraw@@VCString@@HHHH@Z 00445790 f   Dialog_BoardList.obj
 0001:00044900       ?InitLister@CDialog_BoardList@@QAEXXZ 00445900 f   Dialog_BoardList.obj
 0001:000449c0       ?ListBack@CDialog_BoardList@@QAEXXZ 004459c0 f   Dialog_BoardList.obj
 0001:00044a30       ?ListNext@CDialog_BoardList@@QAEXXZ 00445a30 f   Dialog_BoardList.obj
 0001:00044b40       ?GetBoardNum@CDialog_BoardCtrl@@QAEHXZ 00445b40 f i Dialog_BoardList.obj
 0001:00044b70       ?SetList@CDialog_BoardList@@QAEHPAE@Z 00445b70 f   Dialog_BoardList.obj
 0001:00044de0       ??0LIST_DATA@@QAE@XZ       00445de0 f i Dialog_BoardList.obj
 0001:00044e30       ?Read@CDialog_BoardList@@QAEXXZ 00445e30 f   Dialog_BoardList.obj
 0001:00044f30       ?ShowInList@CDialog_BoardList@@QAEXH@Z 00445f30 f   Dialog_BoardList.obj
 0001:00045110       ?ShowWindow@CDialog_BoardList@@UAEXXZ 00446110 f   Dialog_BoardList.obj
 0001:000451d0       ?HideWindow@CDialog_BoardList@@UAEXXZ 004461d0 f   Dialog_BoardList.obj
 0001:00045220       ?HideAllWindow@CDialog_BoardList@@UAEXXZ 00446220 f   Dialog_BoardList.obj
 0001:00045270       ?MouseProcess@CDialog_BoardList@@UAEHPAVBBDX_MouseInformation@@@Z 00446270 f   Dialog_BoardList.obj
 0001:000453c0       ?IsModal@CUIRes@@QAEHXZ    004463c0 f i Dialog_BoardList.obj
 0001:000453f0       ?OnLButtonDblClk@CDialog_BoardList@@UAEHPAVBBDX_MouseInformation@@@Z 004463f0 f   Dialog_BoardList.obj
 0001:00045480       ?Add@?$CTypedPtrArray@VCPtrArray@@PAVLIST_DATA@@@@QAEHPAVLIST_DATA@@@Z 00446480 f i Dialog_BoardList.obj
 0001:000454c0       ??0CDialog_BoardRead@@QAE@PAVCWnd@@@Z 004464c0 f   Dialog_BoardRead.obj
 0001:000455d0       ??_ECDialog_BoardRead@@UAEPAXI@Z 004465d0 f i Dialog_BoardRead.obj
 0001:000455d0       ??_GCDialog_BoardRead@@UAEPAXI@Z 004465d0 f i Dialog_BoardRead.obj
 0001:00045630       ??1CDialog_BoardRead@@UAE@XZ 00446630 f   Dialog_BoardRead.obj
 0001:00045750       ?OnButtonAction@CDialog_BoardRead@@UAEHHH@Z 00446750 f   Dialog_BoardRead.obj
 0001:00045880       ?Draw@CDialog_BoardRead@@UAEHPAVCDDSurface@@@Z 00446880 f   Dialog_BoardRead.obj
 0001:00045a90       ?Create@CDialog_BoardRead@@UAEHPAVCDirectDraw@@VCString@@HHHH@Z 00446a90 f   Dialog_BoardRead.obj
 0001:00045d10       ?InitReader@CDialog_BoardRead@@QAEXXZ 00446d10 f   Dialog_BoardRead.obj
 0001:00045df0       ?SetScrollData@CDialog_BoardRead@@QAEXXZ 00446df0 f   Dialog_BoardRead.obj
 0001:00045f20       ?GetFontSize@BBDX_Editor@@QAE?AVCSize@@XZ 00446f20 f i Dialog_BoardRead.obj
 0001:00045f60       ?OnLButtonDown@CDialog_BoardRead@@UAEHPAVBBDX_MouseInformation@@@Z 00446f60 f   Dialog_BoardRead.obj
 0001:00046020       ?OnLButtonUp@CDialog_BoardRead@@UAEHPAVBBDX_MouseInformation@@@Z 00447020 f   Dialog_BoardRead.obj
 0001:000460c0       ?OnMouseMove@CDialog_BoardRead@@UAEHPAVBBDX_MouseInformation@@@Z 004470c0 f   Dialog_BoardRead.obj
 0001:00046160       ?SetRead@CDialog_BoardRead@@QAEXPAE@Z 00447160 f   Dialog_BoardRead.obj
 0001:00046460       ?ReadBack@CDialog_BoardRead@@QAEXXZ 00447460 f   Dialog_BoardRead.obj
 0001:00046550       ?ReadNext@CDialog_BoardRead@@QAEXXZ 00447550 f   Dialog_BoardRead.obj
 0001:000466f0       ?Delete@CDialog_BoardRead@@QAEXXZ 004476f0 f   Dialog_BoardRead.obj
 0001:000467b0       ?ShowWindow@CDialog_BoardRead@@UAEXXZ 004477b0 f   Dialog_BoardRead.obj
 0001:00046840       ?HideWindow@CDialog_BoardRead@@UAEXXZ 00447840 f   Dialog_BoardRead.obj
 0001:00046890       ?HideAllWindow@CDialog_BoardRead@@UAEXXZ 00447890 f   Dialog_BoardRead.obj
 0001:000468e0       ??0CDialog_BoardWrite@@QAE@PAVCWnd@@@Z 004478e0 f   Dialog_BoardWrite.obj
 0001:00046980       ??_GCDialog_BoardWrite@@UAEPAXI@Z 00447980 f i Dialog_BoardWrite.obj
 0001:00046980       ??_ECDialog_BoardWrite@@UAEPAXI@Z 00447980 f i Dialog_BoardWrite.obj
 0001:000469e0       ??1CDialog_BoardWrite@@UAE@XZ 004479e0 f   Dialog_BoardWrite.obj
 0001:00046af0       ?OnButtonAction@CDialog_BoardWrite@@UAEHHH@Z 00447af0 f   Dialog_BoardWrite.obj
 0001:00046c00       ?Draw@CDialog_BoardWrite@@UAEHPAVCDDSurface@@@Z 00447c00 f   Dialog_BoardWrite.obj
 0001:00046cc0       ?Create@CDialog_BoardWrite@@UAEHPAVCDirectDraw@@VCString@@HHHH@Z 00447cc0 f   Dialog_BoardWrite.obj
 0001:00046f60       ?InitWriter@CDialog_BoardWrite@@QAEXXZ 00447f60 f   Dialog_BoardWrite.obj
 0001:00046fd0       ?SetScrollData@CDialog_BoardWrite@@QAEXXZ 00447fd0 f   Dialog_BoardWrite.obj
 0001:00047100       ?OnLButtonDown@CDialog_BoardWrite@@UAEHPAVBBDX_MouseInformation@@@Z 00448100 f   Dialog_BoardWrite.obj
 0001:000471c0       ?OnLButtonUp@CDialog_BoardWrite@@UAEHPAVBBDX_MouseInformation@@@Z 004481c0 f   Dialog_BoardWrite.obj
 0001:00047260       ?OnMouseMove@CDialog_BoardWrite@@UAEHPAVBBDX_MouseInformation@@@Z 00448260 f   Dialog_BoardWrite.obj
 0001:00047300       ?Write@CDialog_BoardWrite@@QAEXXZ 00448300 f   Dialog_BoardWrite.obj
 0001:00047500       ?ShowWindow@CDialog_BoardWrite@@UAEXXZ 00448500 f   Dialog_BoardWrite.obj
 0001:00047580       ?HideWindow@CDialog_BoardWrite@@UAEXXZ 00448580 f   Dialog_BoardWrite.obj
 0001:000475d0       ?HideAllWindow@CDialog_BoardWrite@@UAEXXZ 004485d0 f   Dialog_BoardWrite.obj
 0001:00047620       ?OnKeyDown@CDialog_BoardWrite@@UAEHIII@Z 00448620 f   Dialog_BoardWrite.obj
 0001:000476c0       ?SetFocus@CDialog_BoardWrite@@UAEXXZ 004486c0 f   Dialog_BoardWrite.obj
 0001:00047720       ??0CDialog_Chat@@QAE@XZ    00448720 f   Dialog_Chat.obj
 0001:00047780       ??_ECDialog_Chat@@UAEPAXI@Z 00448780 f i Dialog_Chat.obj
 0001:00047780       ??_GCDialog_Chat@@UAEPAXI@Z 00448780 f i Dialog_Chat.obj
 0001:000477e0       ??1CDialog_Chat@@UAE@XZ    004487e0 f   Dialog_Chat.obj
 0001:000478a0       ?ShowWindow@CDialog_Chat@@UAEXXZ 004488a0 f   Dialog_Chat.obj
 0001:00047a00       ?GetChatOuter@CChildView@@QAEPAVBBDX_ChatOuter@@XZ 00448a00 f i Dialog_Chat.obj
 0001:00047a30       ?HideWindow@CDialog_Chat@@UAEXXZ 00448a30 f   Dialog_Chat.obj
 0001:00047a80       ?HideAllWindow@CDialog_Chat@@UAEXXZ 00448a80 f   Dialog_Chat.obj
 0001:00047ad0       ?Create@CDialog_Chat@@UAEHPAVCDirectDraw@@VCString@@HHHH@Z 00448ad0 f   Dialog_Chat.obj
 0001:00047c30       ?Draw@CDialog_Chat@@UAEHPAVCDDSurface@@@Z 00448c30 f   Dialog_Chat.obj
 0001:00047cc0       ?SetScrollData@CDialog_Chat@@QAEXXZ 00448cc0 f   Dialog_Chat.obj
 0001:00047d50       ?GetLineCount@BBDX_ChatOuter@@QAEHXZ 00448d50 f i Dialog_Chat.obj
 0001:00047d90       ?GetShowLineNum@BBDX_ChatOuter@@QAEHXZ 00448d90 f i Dialog_Chat.obj
 0001:00047dc0       ?GetScrollPos@BBDX_ChatOuter@@QAEHXZ 00448dc0 f i Dialog_Chat.obj
 0001:00047df0       ?OnLButtonDown@CDialog_Chat@@UAEHPAVBBDX_MouseInformation@@@Z 00448df0 f   Dialog_Chat.obj
 0001:00047e70       ?OnLButtonUp@CDialog_Chat@@UAEHPAVBBDX_MouseInformation@@@Z 00448e70 f   Dialog_Chat.obj
 0001:00047ed0       ?OnMouseMove@CDialog_Chat@@UAEHPAVBBDX_MouseInformation@@@Z 00448ed0 f   Dialog_Chat.obj
 0001:00047f30       ?OnButtonAction@CDialog_Chat@@UAEHHH@Z 00448f30 f   Dialog_Chat.obj
 0001:00047fd0       ?ScrollDown@CDialog_Chat@@QAEXXZ 00448fd0 f   Dialog_Chat.obj
 0001:00048010       ?ScrollUp@CDialog_Chat@@QAEXXZ 00449010 f   Dialog_Chat.obj
 0001:00048050       ?OnKeyDown@CDialog_Chat@@UAEHIII@Z 00449050 f   Dialog_Chat.obj
 0001:00048160       ??0CDialog_Crest@@QAE@XZ   00449160 f   Dialog_Crest.obj
 0001:000481f0       ??_GCDialog_Crest@@UAEPAXI@Z 004491f0 f i Dialog_Crest.obj
 0001:000481f0       ??_ECDialog_Crest@@UAEPAXI@Z 004491f0 f i Dialog_Crest.obj
 0001:00048250       ??1CDialog_Crest@@UAE@XZ   00449250 f   Dialog_Crest.obj
 0001:000483f0       ?Create@CDialog_Crest@@UAEHPAVCDirectDraw@@VCString@@HHHH@Z 004493f0 f   Dialog_Crest.obj
 0001:00048630       ?SetSplitRegion@BBDX_TextOuter@@QAEXH@Z 00449630 f i Dialog_Crest.obj
 0001:00048660       ?Draw@CDialog_Crest@@UAEHPAVCDDSurface@@@Z 00449660 f   Dialog_Crest.obj
 0001:000487f0       ?OnButtonAction@CDialog_Crest@@UAEHHH@Z 004497f0 f   Dialog_Crest.obj
 0001:000488e0       ?SetMessage@CDialog_Crest@@QAEXAAVCString@@@Z 004498e0 f   Dialog_Crest.obj
 0001:00048a30       ?ClearString@BBDX_TextOuter@@QAEXXZ 00449a30 f i Dialog_Crest.obj
 0001:00048a70       ?ShowWindow@CDialog_Crest@@QAEHHPAVCUIRes@@@Z 00449a70 f   Dialog_Crest.obj
 0001:00048d20       ?HideWindow@CDialog_Crest@@UAEXXZ 00449d20 f   Dialog_Crest.obj
 0001:00048dd0       ?HideAllWindow@CDialog_Crest@@UAEXXZ 00449dd0 f   Dialog_Crest.obj
 0001:00048ee0       ?OnKeyDown@CDialog_Crest@@UAEHIII@Z 00449ee0 f   Dialog_Crest.obj
 0001:00048fd0       ??0CDialog_DeadMain@@QAE@XZ 00449fd0 f   Dialog_DeadMain.obj
 0001:00049050       ??_ECDialog_DeadMain@@UAEPAXI@Z 0044a050 f i Dialog_DeadMain.obj
 0001:00049050       ??_GCDialog_DeadMain@@UAEPAXI@Z 0044a050 f i Dialog_DeadMain.obj
 0001:000490b0       ??1CDialog_DeadMain@@UAE@XZ 0044a0b0 f   Dialog_DeadMain.obj
 0001:000490f0       ?OnButtonAction@CDialog_DeadMain@@UAEHHH@Z 0044a0f0 f   Dialog_DeadMain.obj
 0001:000491a0       ?Draw@CDialog_DeadMain@@UAEHPAVCDDSurface@@@Z 0044a1a0 f   Dialog_DeadMain.obj
 0001:000492b0       ?ShowWindow@CDialog_DeadMain@@UAEXXZ 0044a2b0 f   Dialog_DeadMain.obj
 0001:00049360       ?OnLButtonDown@CDialog_DeadMain@@UAEHPAVBBDX_MouseInformation@@@Z 0044a360 f   Dialog_DeadMain.obj
 0001:000493a0       ?OnLButtonUp@CDialog_DeadMain@@UAEHPAVBBDX_MouseInformation@@@Z 0044a3a0 f   Dialog_DeadMain.obj
 0001:000493e0       ?OnMouseMove@CDialog_DeadMain@@UAEHPAVBBDX_MouseInformation@@@Z 0044a3e0 f   Dialog_DeadMain.obj
 0001:00049420       ?MouseProcess@CDialog_DeadMain@@UAEHPAVBBDX_MouseInformation@@@Z 0044a420 f   Dialog_DeadMain.obj
 0001:00049540       ?StartCountDown@CDialog_DeadMain@@QAEXXZ 0044a540 f   Dialog_DeadMain.obj
 0001:000495a0       ?CountDown@CDialog_DeadMain@@QAEXXZ 0044a5a0 f   Dialog_DeadMain.obj
 0001:00049620       ?SendAliveFromHere@CDialog_DeadMain@@QAEXXZ 0044a620 f   Dialog_DeadMain.obj
 0001:000496a0       ?SendAliveFromTown@CDialog_DeadMain@@QAEXXZ 0044a6a0 f   Dialog_DeadMain.obj
 0001:00049720       ??0CDialog_EventMessage@@QAE@XZ 0044a720 f   Dialog_EventMessage.obj
 0001:00049850       ??_GCDialog_EventMessage@@UAEPAXI@Z 0044a850 f i Dialog_EventMessage.obj
 0001:00049850       ??_ECDialog_EventMessage@@UAEPAXI@Z 0044a850 f i Dialog_EventMessage.obj
 0001:000498b0       ??1CDialog_EventMessage@@UAE@XZ 0044a8b0 f   Dialog_EventMessage.obj
 0001:000499a0       ?Create@CDialog_EventMessage@@UAEHPAVCDirectDraw@@VCString@@HHHH@Z 0044a9a0 f   Dialog_EventMessage.obj
 0001:00049af0       ?Draw@CDialog_EventMessage@@UAEHPAVCDDSurface@@@Z 0044aaf0 f   Dialog_EventMessage.obj
 0001:00049fc0       ?ShowWindow@CDialog_EventMessage@@UAEXXZ 0044afc0 f   Dialog_EventMessage.obj
 0001:0004a110       ?HideWindow@CDialog_EventMessage@@UAEXXZ 0044b110 f   Dialog_EventMessage.obj
 0001:0004a190       ?HideAllWindow@CDialog_EventMessage@@UAEXXZ 0044b190 f   Dialog_EventMessage.obj
 0001:0004a1d0       ?OnLButtonDown@CDialog_EventMessage@@UAEHPAVBBDX_MouseInformation@@@Z 0044b1d0 f   Dialog_EventMessage.obj
 0001:0004a370       ?OnLButtonUp@CDialog_EventMessage@@UAEHPAVBBDX_MouseInformation@@@Z 0044b370 f   Dialog_EventMessage.obj
 0001:0004a750       ?OnLButtonUp2@CDialog_EventMessage@@QAEHPAVBBDX_MouseInformation@@@Z 0044b750 f   Dialog_EventMessage.obj
 0001:0004a9b0       ?MouseProcess@CDialog_EventMessage@@UAEHPAVBBDX_MouseInformation@@@Z 0044b9b0 f   Dialog_EventMessage.obj
 0001:0004ab10       ?OnMouseMove@CDialog_EventMessage@@UAEHPAVBBDX_MouseInformation@@@Z 0044bb10 f   Dialog_EventMessage.obj
 0001:0004ac30       ?OnRButtonDown@CDialog_EventMessage@@QAEHPAVBBDX_MouseInformation@@@Z 0044bc30 f   Dialog_EventMessage.obj
 0001:0004ac70       ?OnRButtonUp@CDialog_EventMessage@@QAEHPAVBBDX_MouseInformation@@@Z 0044bc70 f   Dialog_EventMessage.obj
 0001:0004ace0       ?AddString@CDialog_EventMessage@@QAEXPAE@Z 0044bce0 f   Dialog_EventMessage.obj
 0001:0004af50       ?SendClickNum@CDialog_EventMessage@@QAEXH@Z 0044bf50 f   Dialog_EventMessage.obj
 0001:0004afe0       ??0CDialog_EventMessage1@@QAE@XZ 0044bfe0 f   Dialog_EventMessage1.obj
 0001:0004b090       ??_ECDialog_EventMessage1@@UAEPAXI@Z 0044c090 f i Dialog_EventMessage1.obj
 0001:0004b090       ??_GCDialog_EventMessage1@@UAEPAXI@Z 0044c090 f i Dialog_EventMessage1.obj
 0001:0004b0f0       ??1CDialog_EventMessage1@@UAE@XZ 0044c0f0 f   Dialog_EventMessage1.obj
 0001:0004b1d0       ?Create@CDialog_EventMessage1@@UAEHPAVCDirectDraw@@VCString@@HHHH@Z 0044c1d0 f   Dialog_EventMessage1.obj
 0001:0004b320       ?Draw@CDialog_EventMessage1@@UAEHPAVCDDSurface@@@Z 0044c320 f   Dialog_EventMessage1.obj
 0001:0004b600       ?ShowWindow@CDialog_EventMessage1@@UAEXXZ 0044c600 f   Dialog_EventMessage1.obj
 0001:0004b6b0       ?HideWindow@CDialog_EventMessage1@@UAEXXZ 0044c6b0 f   Dialog_EventMessage1.obj
 0001:0004b700       ?HideAllWindow@CDialog_EventMessage1@@UAEXXZ 0044c700 f   Dialog_EventMessage1.obj
 0001:0004b740       ?OnLButtonDown@CDialog_EventMessage1@@UAEHPAVBBDX_MouseInformation@@@Z 0044c740 f   Dialog_EventMessage1.obj
 0001:0004b920       ?OnLButtonUp@CDialog_EventMessage1@@UAEHPAVBBDX_MouseInformation@@@Z 0044c920 f   Dialog_EventMessage1.obj
 0001:0004bab0       ?MouseProcess@CDialog_EventMessage1@@UAEHPAVBBDX_MouseInformation@@@Z 0044cab0 f   Dialog_EventMessage1.obj
 0001:0004bc20       ?OnMouseMove@CDialog_EventMessage1@@UAEHPAVBBDX_MouseInformation@@@Z 0044cc20 f   Dialog_EventMessage1.obj
 0001:0004bc60       ?OnRButtonDown@CDialog_EventMessage1@@QAEHPAVBBDX_MouseInformation@@@Z 0044cc60 f   Dialog_EventMessage1.obj
 0001:0004bd30       ?OnRButtonUp@CDialog_EventMessage1@@QAEHPAVBBDX_MouseInformation@@@Z 0044cd30 f   Dialog_EventMessage1.obj
 0001:0004be00       ?AddString@CDialog_EventMessage1@@QAEXPAE@Z 0044ce00 f   Dialog_EventMessage1.obj
 0001:0004bee0       ??0CDialog_EventMessage2@@QAE@XZ 0044cee0 f   Dialog_EventMessage2.obj
 0001:0004bfb0       ??_ECDialog_EventMessage2@@UAEPAXI@Z 0044cfb0 f i Dialog_EventMessage2.obj
 0001:0004bfb0       ??_GCDialog_EventMessage2@@UAEPAXI@Z 0044cfb0 f i Dialog_EventMessage2.obj
 0001:0004c010       ??1CDialog_EventMessage2@@UAE@XZ 0044d010 f   Dialog_EventMessage2.obj
 0001:0004c100       ?Create@CDialog_EventMessage2@@UAEHPAVCDirectDraw@@VCString@@HHHH@Z 0044d100 f   Dialog_EventMessage2.obj
 0001:0004c250       ?Draw@CDialog_EventMessage2@@UAEHPAVCDDSurface@@@Z 0044d250 f   Dialog_EventMessage2.obj
 0001:0004c590       ?ShowWindow@CDialog_EventMessage2@@UAEXXZ 0044d590 f   Dialog_EventMessage2.obj
 0001:0004c660       ?HideWindow@CDialog_EventMessage2@@UAEXXZ 0044d660 f   Dialog_EventMessage2.obj
 0001:0004c6e0       ?HideAllWindow@CDialog_EventMessage2@@UAEXXZ 0044d6e0 f   Dialog_EventMessage2.obj
 0001:0004c720       ?OnLButtonDown@CDialog_EventMessage2@@UAEHPAVBBDX_MouseInformation@@@Z 0044d720 f   Dialog_EventMessage2.obj
 0001:0004c800       ?OnLButtonUp@CDialog_EventMessage2@@UAEHPAVBBDX_MouseInformation@@@Z 0044d800 f   Dialog_EventMessage2.obj
 0001:0004cc10       ?OnLButtonUp2@CDialog_EventMessage2@@QAEHPAVBBDX_MouseInformation@@@Z 0044dc10 f   Dialog_EventMessage2.obj
 0001:0004cf00       ?MouseProcess@CDialog_EventMessage2@@UAEHPAVBBDX_MouseInformation@@@Z 0044df00 f   Dialog_EventMessage2.obj
 0001:0004d060       ?OnMouseMove@CDialog_EventMessage2@@UAEHPAVBBDX_MouseInformation@@@Z 0044e060 f   Dialog_EventMessage2.obj
 0001:0004d090       ?OnRButtonDown@CDialog_EventMessage2@@QAEHPAVBBDX_MouseInformation@@@Z 0044e090 f   Dialog_EventMessage2.obj
 0001:0004d0d0       ?OnRButtonUp@CDialog_EventMessage2@@QAEHPAVBBDX_MouseInformation@@@Z 0044e0d0 f   Dialog_EventMessage2.obj
 0001:0004d140       ?AddString@CDialog_EventMessage2@@QAEXPAE@Z 0044e140 f   Dialog_EventMessage2.obj
 0001:0004d380       ??0CDialog_Exchange@@QAE@XZ 0044e380 f   Dialog_Exchange.obj
 0001:0004d4f0       ??_GCDialog_Exchange@@UAEPAXI@Z 0044e4f0 f i Dialog_Exchange.obj
 0001:0004d4f0       ??_ECDialog_Exchange@@UAEPAXI@Z 0044e4f0 f i Dialog_Exchange.obj
 0001:0004d550       ??1CDialog_Exchange@@UAE@XZ 0044e550 f   Dialog_Exchange.obj
 0001:0004d790       ?ShowWindow@CDialog_Exchange@@UAEXXZ 0044e790 f   Dialog_Exchange.obj
 0001:0004d890       ?HideWindow@CDialog_Exchange@@UAEXXZ 0044e890 f   Dialog_Exchange.obj
 0001:0004d900       ?HideAllWindow@CDialog_Exchange@@UAEXXZ 0044e900 f   Dialog_Exchange.obj
 0001:0004d960       ?RefreshData@CDialog_Exchange@@QAEXXZ 0044e960 f   Dialog_Exchange.obj
 0001:0004dc80       ?DeleteContents@CDialog_Exchange@@QAEXXZ 0044ec80 f   Dialog_Exchange.obj
 0001:0004de10       ?SetScrollMeData@CDialog_Exchange@@QAEXXZ 0044ee10 f   Dialog_Exchange.obj
 0001:0004df20       ?SetScrollOtherData@CDialog_Exchange@@QAEXXZ 0044ef20 f   Dialog_Exchange.obj
 0001:0004dfc0       ?Create@CDialog_Exchange@@UAEHPAVCDirectDraw@@VCString@@HHHH@Z 0044efc0 f   Dialog_Exchange.obj
 0001:0004e2d0       ?Draw@CDialog_Exchange@@UAEHPAVCDDSurface@@@Z 0044f2d0 f   Dialog_Exchange.obj
 0001:0004f140       ?OnButtonAction@CDialog_Exchange@@UAEHHH@Z 00450140 f   Dialog_Exchange.obj
 0001:0004f270       ?OnLButtonDown@CDialog_Exchange@@UAEHPAVBBDX_MouseInformation@@@Z 00450270 f   Dialog_Exchange.obj
 0001:0004f4b0       ?OnLButtonUp@CDialog_Exchange@@UAEHPAVBBDX_MouseInformation@@@Z 004504b0 f   Dialog_Exchange.obj
 0001:0004f6d0       ?OnMouseMove@CDialog_Exchange@@UAEHPAVBBDX_MouseInformation@@@Z 004506d0 f   Dialog_Exchange.obj
 0001:0004f900       ?AskTrade@CDialog_Exchange@@QAEXVCString@@H@Z 00450900 f   Dialog_Exchange.obj
 0001:0004fa40       ?WaitTrade@CDialog_Exchange@@QAEXXZ 00450a40 f   Dialog_Exchange.obj
 0001:0004fb10       ?CallBack_MessageBox@CDialog_Exchange@@UAEXHH@Z 00450b10 f   Dialog_Exchange.obj
 0001:0004ff90       ?SendTradeOther@CDialog_Exchange@@QAEXXZ 00450f90 f   Dialog_Exchange.obj
 0001:00050020       ?SendTradeAck@CDialog_Exchange@@QAEXE@Z 00451020 f   Dialog_Exchange.obj
 0001:00050100       ?SendTradeCancel@CDialog_Exchange@@QAEXXZ 00451100 f   Dialog_Exchange.obj
 0001:00050190       ?RcvReqTrade@CDialog_Exchange@@QAEXPAE@Z 00451190 f   Dialog_Exchange.obj
 0001:00050370       ?RcvAckTrade@CDialog_Exchange@@QAEXPAE@Z 00451370 f   Dialog_Exchange.obj
 0001:00050470       ?SendTradeAddItem@CDialog_Exchange@@QAEXFF@Z 00451470 f   Dialog_Exchange.obj
 0001:00050500       ?RcvTradeItem@CDialog_Exchange@@QAEXPAE@Z 00451500 f   Dialog_Exchange.obj
 0001:00050910       ?SendTradeSetMoney@CDialog_Exchange@@QAEXK@Z 00451910 f   Dialog_Exchange.obj
 0001:00050980       ?RcvTradeMoney@CDialog_Exchange@@QAEXPAE@Z 00451980 f   Dialog_Exchange.obj
 0001:000509f0       ?AskHowMuch@CDialog_Exchange@@QAEXXZ 004519f0 f   Dialog_Exchange.obj
 0001:00050a30       ?SendTradeOk@CDialog_Exchange@@QAEXXZ 00451a30 f   Dialog_Exchange.obj
 0001:00050a90       ?RcvTradeResult@CDialog_Exchange@@QAEXPAE@Z 00451a90 f   Dialog_Exchange.obj
 0001:00050be0       ?RcvTradeCancel@CDialog_Exchange@@QAEXXZ 00451be0 f   Dialog_Exchange.obj
 0001:00050cd0       ?RcvTradeOk@CDialog_Exchange@@QAEXXZ 00451cd0 f   Dialog_Exchange.obj
 0001:00050d10       ?InitData@CDialog_Exchange@@QAEXXZ 00451d10 f   Dialog_Exchange.obj
 0001:00050d90       ?DrawTipRect@CDialog_Exchange@@QAEXPAVCDDSurface@@AAVCRect@@H@Z 00451d90 f   Dialog_Exchange.obj
 0001:00051240       ?ViewCaption@CDialog_Exchange@@QAEXPAVCDDSurface@@VCPoint@@VCString@@H@Z 00452240 f   Dialog_Exchange.obj
 0001:00051460       ?MakeCaption@CDialog_Exchange@@QAE?AVCString@@PAVITEM_DETAIL@@@Z 00452460 f   Dialog_Exchange.obj
 0001:00051ce0       ??0CDialog_Guild@@QAE@XZ   00452ce0 f   Dialog_Guild.obj
 0001:00051e20       ??_ECDialog_Guild@@UAEPAXI@Z 00452e20 f i Dialog_Guild.obj
 0001:00051e20       ??_GCDialog_Guild@@UAEPAXI@Z 00452e20 f i Dialog_Guild.obj
 0001:00051e80       ??1CDialog_Guild@@UAE@XZ   00452e80 f   Dialog_Guild.obj
 0001:00052020       ?InitData@CDialog_Guild@@QAEXXZ 00453020 f   Dialog_Guild.obj
 0001:000520a0       ?ShowWindow@CDialog_Guild@@UAEXXZ 004530a0 f   Dialog_Guild.obj
 0001:00052180       ?HideWindow@CDialog_Guild@@UAEXXZ 00453180 f   Dialog_Guild.obj
 0001:000521d0       ?HideAllWindow@CDialog_Guild@@UAEXXZ 004531d0 f   Dialog_Guild.obj
 0001:00052210       ?DeleteContents@CDialog_Guild@@QAEXXZ 00453210 f   Dialog_Guild.obj
 0001:00052250       ?SetScrollData@CDialog_Guild@@QAEXXZ 00453250 f   Dialog_Guild.obj
 0001:00052300       ?Create@CDialog_Guild@@UAEHPAVCDirectDraw@@VCString@@HHHH@Z 00453300 f   Dialog_Guild.obj
 0001:000524e0       ?Draw@CDialog_Guild@@UAEHPAVCDDSurface@@@Z 004534e0 f   Dialog_Guild.obj
 0001:00053370       ?OnButtonAction@CDialog_Guild@@UAEHHH@Z 00454370 f   Dialog_Guild.obj
 0001:00053610       ?OnLButtonDown@CDialog_Guild@@UAEHPAVBBDX_MouseInformation@@@Z 00454610 f   Dialog_Guild.obj
 0001:00053df0       ?OnLButtonUp@CDialog_Guild@@UAEHPAVBBDX_MouseInformation@@@Z 00454df0 f   Dialog_Guild.obj
 0001:00054680       ?OnMouseMove@CDialog_Guild@@UAEHPAVBBDX_MouseInformation@@@Z 00455680 f   Dialog_Guild.obj
 0001:000546e0       ?OnRButtonDown@CDialog_Guild@@QAEHPAVBBDX_MouseInformation@@@Z 004556e0 f   Dialog_Guild.obj
 0001:00054840       ?CallBack_MessageBox@CDialog_Guild@@UAEXHH@Z 00455840 f   Dialog_Guild.obj
 0001:00054a00       ?MouseProcess@CDialog_Guild@@UAEHPAVBBDX_MouseInformation@@@Z 00455a00 f   Dialog_Guild.obj
 0001:00054b50       ?SendChangeTaxRate@CDialog_Guild@@QAEXH@Z 00455b50 f   Dialog_Guild.obj
 0001:00054bf0       ?RcvChangeTaxRate@CDialog_Guild@@QAEXPAE@Z 00455bf0 f   Dialog_Guild.obj
 0001:00054d00       ?SendChangePosName@CDialog_Guild@@QAEXHH@Z 00455d00 f   Dialog_Guild.obj
 0001:00054f00       ?RcvChangePosName@CDialog_Guild@@QAEXPAE@Z 00455f00 f   Dialog_Guild.obj
 0001:000552b0       ?SendChangePos@CDialog_Guild@@QAEXVCString@@@Z 004562b0 f   Dialog_Guild.obj
 0001:00055450       ?RcvChangePos@CDialog_Guild@@QAEXPAE@Z 00456450 f   Dialog_Guild.obj
 0001:00055600       ?SendDissolveGuild@CDialog_Guild@@QAEXXZ 00456600 f   Dialog_Guild.obj
 0001:00055670       ?RcvDissolveGuild@CDialog_Guild@@QAEXPAE@Z 00456670 f   Dialog_Guild.obj
 0001:00055870       ?SendDonation@CDialog_Guild@@QAEXK@Z 00456870 f   Dialog_Guild.obj
 0001:000558f0       ?RcvDonation@CDialog_Guild@@QAEXPAE@Z 004568f0 f   Dialog_Guild.obj
 0001:000559f0       ?OpenGuild@CDialog_Guild@@QAEXPAE@Z 004569f0 f   Dialog_Guild.obj
 0001:00055dc0       ?SendRemoveMember@CDialog_Guild@@QAEXXZ 00456dc0 f   Dialog_Guild.obj
 0001:00055fb0       ?RcvRemoveMember@CDialog_Guild@@QAEXPAE@Z 00456fb0 f   Dialog_Guild.obj
 0001:00056240       ?AddMember@CDialog_Guild@@QAEXVCString@@@Z 00457240 f   Dialog_Guild.obj
 0001:00056350       ??0CDialog_GuildApply@@QAE@XZ 00457350 f   Dialog_GuildApply.obj
 0001:00056420       ??_GCDialog_GuildApply@@UAEPAXI@Z 00457420 f i Dialog_GuildApply.obj
 0001:00056420       ??_ECDialog_GuildApply@@UAEPAXI@Z 00457420 f i Dialog_GuildApply.obj
 0001:00056480       ??1CDialog_GuildApply@@UAE@XZ 00457480 f   Dialog_GuildApply.obj
 0001:000565d0       ?DeleteContents@CDialog_GuildApply@@QAEXXZ 004575d0 f   Dialog_GuildApply.obj
 0001:00056640       ?SendApplyGuild@CDialog_GuildApply@@QAEXXZ 00457640 f   Dialog_GuildApply.obj
 0001:000567b0       ?OnButtonAction@CDialog_GuildApply@@UAEHHH@Z 004577b0 f   Dialog_GuildApply.obj
 0001:00056900       ?Draw@CDialog_GuildApply@@UAEHPAVCDDSurface@@@Z 00457900 f   Dialog_GuildApply.obj
 0001:00056c30       ?ShowWindow@CDialog_GuildApply@@QAEXHPAVCUIRes@@@Z 00457c30 f   Dialog_GuildApply.obj
 0001:00056d80       ?HideWindow@CDialog_GuildApply@@UAEXXZ 00457d80 f   Dialog_GuildApply.obj
 0001:00056e40       ?HideAllWindow@CDialog_GuildApply@@UAEXXZ 00457e40 f   Dialog_GuildApply.obj
 0001:00056ec0       ?DialogOpen@CDialog_GuildApply@@QAEXPAE@Z 00457ec0 f   Dialog_GuildApply.obj
 0001:00057040       ?Create@CDialog_GuildApply@@UAEHPAVCDirectDraw@@VCString@@HHHH@Z 00458040 f   Dialog_GuildApply.obj
 0001:00057220       ?OnLButtonDown@CDialog_GuildApply@@UAEHPAVBBDX_MouseInformation@@@Z 00458220 f   Dialog_GuildApply.obj
 0001:000572a0       ?OnLButtonUp@CDialog_GuildApply@@UAEHPAVBBDX_MouseInformation@@@Z 004582a0 f   Dialog_GuildApply.obj
 0001:00057300       ?OnMouseMove@CDialog_GuildApply@@UAEHPAVBBDX_MouseInformation@@@Z 00458300 f   Dialog_GuildApply.obj
 0001:00057360       ?RcvApplyGuild@CDialog_GuildApply@@QAEXPAE@Z 00458360 f   Dialog_GuildApply.obj
 0001:000574d0       ?DrawTipRect@CDialog_GuildApply@@QAEXPAVCDDSurface@@AAVCRect@@H@Z 004584d0 f   Dialog_GuildApply.obj
 0001:00057980       ?ViewCaption@CDialog_GuildApply@@QAEXPAVCDDSurface@@VCPoint@@VCString@@H@Z 00458980 f   Dialog_GuildApply.obj
 0001:00057ba0       ?SendAskGuildDesc@CDialog_GuildApply@@QAEXXZ 00458ba0 f   Dialog_GuildApply.obj
 0001:00057ce0       ?RcvGuildDesc@CDialog_GuildApply@@QAEXPAE@Z 00458ce0 f   Dialog_GuildApply.obj
 0001:00057de0       ?InitData@CDialog_GuildApply@@QAEXXZ 00458de0 f   Dialog_GuildApply.obj
 0001:00057e30       ?AddGuild@CDialog_GuildApply@@QAEXVCString@@@Z 00458e30 f   Dialog_GuildApply.obj
 0001:00057fb0       ??0CDialog_GuildJoin@@QAE@XZ 00458fb0 f   Dialog_GuildJoin.obj
 0001:000580a0       ??_GCDialog_GuildJoin@@UAEPAXI@Z 004590a0 f i Dialog_GuildJoin.obj
 0001:000580a0       ??_ECDialog_GuildJoin@@UAEPAXI@Z 004590a0 f i Dialog_GuildJoin.obj
 0001:00058100       ??1CDialog_GuildJoin@@UAE@XZ 00459100 f   Dialog_GuildJoin.obj
 0001:00058250       ?DeleteContents@CDialog_GuildJoin@@QAEXXZ 00459250 f   Dialog_GuildJoin.obj
 0001:000582b0       ?SendJoinPerson@CDialog_GuildJoin@@QAEXXZ 004592b0 f   Dialog_GuildJoin.obj
 0001:000583f0       ?SendRejectPerson@CDialog_GuildJoin@@QAEXXZ 004593f0 f   Dialog_GuildJoin.obj
 0001:00058530       ?OnButtonAction@CDialog_GuildJoin@@UAEHHH@Z 00459530 f   Dialog_GuildJoin.obj
 0001:00058690       ?Draw@CDialog_GuildJoin@@UAEHPAVCDDSurface@@@Z 00459690 f   Dialog_GuildJoin.obj
 0001:000589c0       ?ShowWindow@CDialog_GuildJoin@@QAEXHPAVCUIRes@@@Z 004599c0 f   Dialog_GuildJoin.obj
 0001:00058b20       ?HideWindow@CDialog_GuildJoin@@UAEXXZ 00459b20 f   Dialog_GuildJoin.obj
 0001:00058be0       ?HideAllWindow@CDialog_GuildJoin@@UAEXXZ 00459be0 f   Dialog_GuildJoin.obj
 0001:00058c60       ?DialogOpen@CDialog_GuildJoin@@QAEXPAE@Z 00459c60 f   Dialog_GuildJoin.obj
 0001:00058db0       ?SetScrollData@CDialog_GuildJoin@@QAEXXZ 00459db0 f   Dialog_GuildJoin.obj
 0001:00058e30       ?Create@CDialog_GuildJoin@@UAEHPAVCDirectDraw@@VCString@@HHHH@Z 00459e30 f   Dialog_GuildJoin.obj
 0001:00059010       ?OnLButtonDown@CDialog_GuildJoin@@UAEHPAVBBDX_MouseInformation@@@Z 0045a010 f   Dialog_GuildJoin.obj
 0001:00059090       ?OnLButtonUp@CDialog_GuildJoin@@UAEHPAVBBDX_MouseInformation@@@Z 0045a090 f   Dialog_GuildJoin.obj
 0001:000590f0       ?OnMouseMove@CDialog_GuildJoin@@UAEHPAVBBDX_MouseInformation@@@Z 0045a0f0 f   Dialog_GuildJoin.obj
 0001:00059150       ?RcvJoinPerson@CDialog_GuildJoin@@QAEXPAE@Z 0045a150 f   Dialog_GuildJoin.obj
 0001:000593e0       ?RcvRejectPerson@CDialog_GuildJoin@@QAEXPAE@Z 0045a3e0 f   Dialog_GuildJoin.obj
 0001:00059680       ?SendAskUserInfo@CDialog_GuildJoin@@QAEXXZ 0045a680 f   Dialog_GuildJoin.obj
 0001:000597c0       ?RcvAskUserInfo@CDialog_GuildJoin@@QAEXPAE@Z 0045a7c0 f   Dialog_GuildJoin.obj
 0001:000599f0       ?DrawTipRect@CDialog_GuildJoin@@QAEXPAVCDDSurface@@AAVCRect@@H@Z 0045a9f0 f   Dialog_GuildJoin.obj
 0001:00059ea0       ?ViewCaption@CDialog_GuildJoin@@QAEXPAVCDDSurface@@VCPoint@@VCString@@H@Z 0045aea0 f   Dialog_GuildJoin.obj
 0001:0005a0c0       ?AddPerson@CDialog_GuildJoin@@QAEXVCString@@@Z 0045b0c0 f   Dialog_GuildJoin.obj
 0001:0005a240       ??0CDialog_GuildMenu1@@QAE@XZ 0045b240 f   Dialog_GuildMenu1.obj
 0001:0005a2c0       ??_ECDialog_GuildMenu1@@UAEPAXI@Z 0045b2c0 f i Dialog_GuildMenu1.obj
 0001:0005a2c0       ??_GCDialog_GuildMenu1@@UAEPAXI@Z 0045b2c0 f i Dialog_GuildMenu1.obj
 0001:0005a320       ??1CDialog_GuildMenu1@@UAE@XZ 0045b320 f   Dialog_GuildMenu1.obj
 0001:0005a3a0       ?OnButtonAction@CDialog_GuildMenu1@@UAEHHH@Z 0045b3a0 f   Dialog_GuildMenu1.obj
 0001:0005a600       ?Draw@CDialog_GuildMenu1@@UAEHPAVCDDSurface@@@Z 0045b600 f   Dialog_GuildMenu1.obj
 0001:0005a680       ?MouseProcess@CDialog_GuildMenu1@@UAEHPAVBBDX_MouseInformation@@@Z 0045b680 f   Dialog_GuildMenu1.obj
 0001:0005a7b0       ?ShowWindow@CDialog_GuildMenu1@@QAEXHVCString@@KF@Z 0045b7b0 f   Dialog_GuildMenu1.obj
 0001:0005a970       ?CallBack_MessageBox@CDialog_GuildMenu1@@UAEXHH@Z 0045b970 f   Dialog_GuildMenu1.obj
 0001:0005aae0       ?SendGuildList@CDialog_GuildMenu1@@QAEXXZ 0045bae0 f   Dialog_GuildMenu1.obj
 0001:0005ab50       ?SendCancelApplyGuild@CDialog_GuildMenu1@@QAEXXZ 0045bb50 f   Dialog_GuildMenu1.obj
 0001:0005abc0       ?HideWindow@CDialog_GuildMenu1@@UAEXXZ 0045bbc0 f   Dialog_GuildMenu1.obj
 0001:0005ac10       ?HideAllWindow@CDialog_GuildMenu1@@UAEXXZ 0045bc10 f   Dialog_GuildMenu1.obj
 0001:0005ac50       ?RcvGuildList@@YAXPAE@Z    0045bc50 f   Dialog_GuildMenu1.obj
 0001:0005ad30       ?RcvCancelApplyGuild@@YAXPAE@Z 0045bd30 f   Dialog_GuildMenu1.obj
 0001:0005ae90       ??0CDialog_GuildMenu2@@QAE@XZ 0045be90 f   Dialog_GuildMenu2.obj
 0001:0005aee0       ??_GCDialog_GuildMenu2@@UAEPAXI@Z 0045bee0 f i Dialog_GuildMenu2.obj
 0001:0005aee0       ??_ECDialog_GuildMenu2@@UAEPAXI@Z 0045bee0 f i Dialog_GuildMenu2.obj
 0001:0005af40       ??1CDialog_GuildMenu2@@UAE@XZ 0045bf40 f   Dialog_GuildMenu2.obj
 0001:0005af80       ?OnButtonAction@CDialog_GuildMenu2@@UAEHHH@Z 0045bf80 f   Dialog_GuildMenu2.obj
 0001:0005b020       ?Draw@CDialog_GuildMenu2@@UAEHPAVCDDSurface@@@Z 0045c020 f   Dialog_GuildMenu2.obj
 0001:0005b090       ?MouseProcess@CDialog_GuildMenu2@@UAEHPAVBBDX_MouseInformation@@@Z 0045c090 f   Dialog_GuildMenu2.obj
 0001:0005b1c0       ?ShowWindow@CDialog_GuildMenu2@@UAEXXZ 0045c1c0 f   Dialog_GuildMenu2.obj
 0001:0005b290       ?SendGuildManList@CDialog_GuildMenu2@@QAEXXZ 0045c290 f   Dialog_GuildMenu2.obj
 0001:0005b300       ??0CDialog_GuildMenu3@@QAE@XZ 0045c300 f   Dialog_GuildMenu3.obj
 0001:0005b350       ??_ECDialog_GuildMenu3@@UAEPAXI@Z 0045c350 f i Dialog_GuildMenu3.obj
 0001:0005b350       ??_GCDialog_GuildMenu3@@UAEPAXI@Z 0045c350 f i Dialog_GuildMenu3.obj
 0001:0005b3b0       ??1CDialog_GuildMenu3@@UAE@XZ 0045c3b0 f   Dialog_GuildMenu3.obj
 0001:0005b3f0       ?OnButtonAction@CDialog_GuildMenu3@@UAEHHH@Z 0045c3f0 f   Dialog_GuildMenu3.obj
 0001:0005b520       ?Draw@CDialog_GuildMenu3@@UAEHPAVCDDSurface@@@Z 0045c520 f   Dialog_GuildMenu3.obj
 0001:0005b590       ?MouseProcess@CDialog_GuildMenu3@@UAEHPAVBBDX_MouseInformation@@@Z 0045c590 f   Dialog_GuildMenu3.obj
 0001:0005b6c0       ?ShowWindow@CDialog_GuildMenu3@@UAEXXZ 0045c6c0 f   Dialog_GuildMenu3.obj
 0001:0005b790       ?SendApplicationList@CDialog_GuildMenu3@@QAEXXZ 0045c790 f   Dialog_GuildMenu3.obj
 0001:0005b800       ?SendGuildManList@CDialog_GuildMenu3@@QAEXXZ 0045c800 f   Dialog_GuildMenu3.obj
 0001:0005b870       ?RcvGuildManList@@YAXPAE@Z 0045c870 f   Dialog_GuildMenu3.obj
 0001:0005b950       ?RcvApplicationList@@YAXPAE@Z 0045c950 f   Dialog_GuildMenu3.obj
 0001:0005ba30       ??0CDialog_GuildMenu4@@QAE@XZ 0045ca30 f   Dialog_GuildMenu4.obj
 0001:0005ba80       ??_GCDialog_GuildMenu4@@UAEPAXI@Z 0045ca80 f i Dialog_GuildMenu4.obj
 0001:0005ba80       ??_ECDialog_GuildMenu4@@UAEPAXI@Z 0045ca80 f i Dialog_GuildMenu4.obj
 0001:0005bae0       ??1CDialog_GuildMenu4@@UAE@XZ 0045cae0 f   Dialog_GuildMenu4.obj
 0001:0005bb20       ?OnButtonAction@CDialog_GuildMenu4@@UAEHHH@Z 0045cb20 f   Dialog_GuildMenu4.obj
 0001:0005bbf0       ?Draw@CDialog_GuildMenu4@@UAEHPAVCDDSurface@@@Z 0045cbf0 f   Dialog_GuildMenu4.obj
 0001:0005bc60       ?MouseProcess@CDialog_GuildMenu4@@UAEHPAVBBDX_MouseInformation@@@Z 0045cc60 f   Dialog_GuildMenu4.obj
 0001:0005bd90       ?ShowWindow@CDialog_GuildMenu4@@UAEXXZ 0045cd90 f   Dialog_GuildMenu4.obj
 0001:0005be20       ??0CDialog_GuildMenu5@@QAE@XZ 0045ce20 f   Dialog_GuildMenu5.obj
 0001:0005be70       ??_ECDialog_GuildMenu5@@UAEPAXI@Z 0045ce70 f i Dialog_GuildMenu5.obj
 0001:0005be70       ??_GCDialog_GuildMenu5@@UAEPAXI@Z 0045ce70 f i Dialog_GuildMenu5.obj
 0001:0005bed0       ??1CDialog_GuildMenu5@@UAE@XZ 0045ced0 f   Dialog_GuildMenu5.obj
 0001:0005bf10       ?OnButtonAction@CDialog_GuildMenu5@@UAEHHH@Z 0045cf10 f   Dialog_GuildMenu5.obj
 0001:0005c080       ?Draw@CDialog_GuildMenu5@@UAEHPAVCDDSurface@@@Z 0045d080 f   Dialog_GuildMenu5.obj
 0001:0005c0f0       ?MouseProcess@CDialog_GuildMenu5@@UAEHPAVBBDX_MouseInformation@@@Z 0045d0f0 f   Dialog_GuildMenu5.obj
 0001:0005c220       ?ShowWindow@CDialog_GuildMenu5@@UAEXXZ 0045d220 f   Dialog_GuildMenu5.obj
 0001:0005c2f0       ?SendApplicationList@CDialog_GuildMenu5@@QAEXXZ 0045d2f0 f   Dialog_GuildMenu5.obj
 0001:0005c360       ??0CDialog_GuildName@@QAE@XZ 0045d360 f   Dialog_GuildName.obj
 0001:0005c410       ??_GCDialog_GuildName@@UAEPAXI@Z 0045d410 f i Dialog_GuildName.obj
 0001:0005c410       ??_ECDialog_GuildName@@UAEPAXI@Z 0045d410 f i Dialog_GuildName.obj
 0001:0005c470       ??1CDialog_GuildName@@UAE@XZ 0045d470 f   Dialog_GuildName.obj
 0001:0005c550       ?OnButtonAction@CDialog_GuildName@@UAEHHH@Z 0045d550 f   Dialog_GuildName.obj
 0001:0005c670       ?Draw@CDialog_GuildName@@UAEHPAVCDDSurface@@@Z 0045d670 f   Dialog_GuildName.obj
 0001:0005c720       ?Create@CDialog_GuildName@@UAEHPAVCDirectDraw@@VCString@@HHHH@Z 0045d720 f   Dialog_GuildName.obj
 0001:0005c970       ?ShowWindow@CDialog_GuildName@@QAEXHPAVCUIRes@@@Z 0045d970 f   Dialog_GuildName.obj
 0001:0005cae0       ?SetWnd@CDialog_GuildName@@QAEXPAVCWnd@@@Z 0045dae0 f i Dialog_GuildName.obj
 0001:0005cb20       ?OnKeyDown@CDialog_GuildName@@UAEHIII@Z 0045db20 f   Dialog_GuildName.obj
 0001:0005cc20       ?HideWindow@CDialog_GuildName@@UAEXXZ 0045dc20 f   Dialog_GuildName.obj
 0001:0005ccd0       ?HideAllWindow@CDialog_GuildName@@UAEXXZ 0045dcd0 f   Dialog_GuildName.obj
 0001:0005cd50       ?SetName@CDialog_GuildName@@QAEXVCString@@0@Z 0045dd50 f   Dialog_GuildName.obj
 0001:0005cdf0       ?SendMakeGuild@CDialog_GuildName@@QAEXXZ 0045ddf0 f   Dialog_GuildName.obj
 0001:0005cff0       ?RcvMakeGuild@CDialog_GuildName@@QAEXPAE@Z 0045dff0 f   Dialog_GuildName.obj
 0001:0005d1f0       ?IsValidName@CDialog_GuildName@@QAEHVCString@@@Z 0045e1f0 f   Dialog_GuildName.obj
 0001:0005d3a0       ??0CDialog_GuildPositionName@@QAE@XZ 0045e3a0 f   Dialog_GuildPositionName.obj
 0001:0005d430       ??_ECDialog_GuildPositionName@@UAEPAXI@Z 0045e430 f i Dialog_GuildPositionName.obj
 0001:0005d430       ??_GCDialog_GuildPositionName@@UAEPAXI@Z 0045e430 f i Dialog_GuildPositionName.obj
 0001:0005d490       ??1CDialog_GuildPositionName@@UAE@XZ 0045e490 f   Dialog_GuildPositionName.obj
 0001:0005d510       ?OnButtonAction@CDialog_GuildPositionName@@UAEHHH@Z 0045e510 f   Dialog_GuildPositionName.obj
 0001:0005d620       ?Draw@CDialog_GuildPositionName@@UAEHPAVCDDSurface@@@Z 0045e620 f   Dialog_GuildPositionName.obj
 0001:0005d6b0       ?Create@CDialog_GuildPositionName@@UAEHPAVCDirectDraw@@VCString@@HHHH@Z 0045e6b0 f   Dialog_GuildPositionName.obj
 0001:0005d840       ?ShowWindow@CDialog_GuildPositionName@@QAEXHPAVCUIRes@@H@Z 0045e840 f   Dialog_GuildPositionName.obj
 0001:0005d9b0       ?SetWnd@CDialog_GuildPositionName@@QAEXPAVCWnd@@@Z 0045e9b0 f i Dialog_GuildPositionName.obj
 0001:0005d9f0       ?OnKeyDown@CDialog_GuildPositionName@@UAEHIII@Z 0045e9f0 f   Dialog_GuildPositionName.obj
 0001:0005db00       ?HideWindow@CDialog_GuildPositionName@@UAEXXZ 0045eb00 f   Dialog_GuildPositionName.obj
 0001:0005dbb0       ?HideAllWindow@CDialog_GuildPositionName@@UAEXXZ 0045ebb0 f   Dialog_GuildPositionName.obj
 0001:0005dc30       ?SetName@CDialog_GuildPositionName@@QAEXVCString@@@Z 0045ec30 f   Dialog_GuildPositionName.obj
 0001:0005dcb0       ??0CDialog_HowMany@@QAE@XZ 0045ecb0 f   Dialog_HowMany.obj
 0001:0005dd10       ??_GCDialog_HowMany@@UAEPAXI@Z 0045ed10 f i Dialog_HowMany.obj
 0001:0005dd10       ??_ECDialog_HowMany@@UAEPAXI@Z 0045ed10 f i Dialog_HowMany.obj
 0001:0005dd70       ??1CDialog_HowMany@@UAE@XZ 0045ed70 f   Dialog_HowMany.obj
 0001:0005ddb0       ?OnButtonAction@CDialog_HowMany@@UAEHHH@Z 0045edb0 f   Dialog_HowMany.obj
 0001:0005dfa0       ?Draw@CDialog_HowMany@@UAEHPAVCDDSurface@@@Z 0045efa0 f   Dialog_HowMany.obj
 0001:0005e030       ?Create@CDialog_HowMany@@UAEHPAVCDirectDraw@@VCString@@HHHH@Z 0045f030 f   Dialog_HowMany.obj
 0001:0005e1c0       ?ShowWindow@CDialog_HowMany@@QAEXHPAVCUIRes@@@Z 0045f1c0 f   Dialog_HowMany.obj
 0001:0005e320       ?SetWnd@CDialog_HowMany@@QAEXPAVCWnd@@@Z 0045f320 f i Dialog_HowMany.obj
 0001:0005e360       ?OnKeyDown@CDialog_HowMany@@UAEHIII@Z 0045f360 f   Dialog_HowMany.obj
 0001:0005e5a0       ?HideWindow@CDialog_HowMany@@UAEXXZ 0045f5a0 f   Dialog_HowMany.obj
 0001:0005e650       ?HideAllWindow@CDialog_HowMany@@UAEXXZ 0045f650 f   Dialog_HowMany.obj
 0001:0005e6d0       ??0CDialog_HowMuch@@QAE@XZ 0045f6d0 f   Dialog_HowMuch.obj
 0001:0005e730       ??_GCDialog_HowMuch@@UAEPAXI@Z 0045f730 f i Dialog_HowMuch.obj
 0001:0005e730       ??_ECDialog_HowMuch@@UAEPAXI@Z 0045f730 f i Dialog_HowMuch.obj
 0001:0005e790       ??1CDialog_HowMuch@@UAE@XZ 0045f790 f   Dialog_HowMuch.obj
 0001:0005e7d0       ?OnButtonAction@CDialog_HowMuch@@UAEHHH@Z 0045f7d0 f   Dialog_HowMuch.obj
 0001:0005e9c0       ?Draw@CDialog_HowMuch@@UAEHPAVCDDSurface@@@Z 0045f9c0 f   Dialog_HowMuch.obj
 0001:0005ea50       ?Create@CDialog_HowMuch@@UAEHPAVCDirectDraw@@VCString@@HHHH@Z 0045fa50 f   Dialog_HowMuch.obj
 0001:0005ebe0       ?ShowWindow@CDialog_HowMuch@@QAEXHPAVCUIRes@@@Z 0045fbe0 f   Dialog_HowMuch.obj
 0001:0005ed40       ?SetWnd@CDialog_HowMuch@@QAEXPAVCWnd@@@Z 0045fd40 f i Dialog_HowMuch.obj
 0001:0005ed80       ?OnKeyDown@CDialog_HowMuch@@UAEHIII@Z 0045fd80 f   Dialog_HowMuch.obj
 0001:0005efc0       ?HideWindow@CDialog_HowMuch@@UAEXXZ 0045ffc0 f   Dialog_HowMuch.obj
 0001:0005f070       ?HideAllWindow@CDialog_HowMuch@@UAEXXZ 00460070 f   Dialog_HowMuch.obj
 0001:0005f0f0       ??0CDialog_Inv@@QAE@XZ     004600f0 f   Dialog_Inv.obj
 0001:0005f240       ??_ECDialog_Inv@@UAEPAXI@Z 00460240 f i Dialog_Inv.obj
 0001:0005f240       ??_GCDialog_Inv@@UAEPAXI@Z 00460240 f i Dialog_Inv.obj
 0001:0005f2a0       ??1CDialog_Inv@@UAE@XZ     004602a0 f   Dialog_Inv.obj
 0001:0005f3d0       ?OnButtonAction@CDialog_Inv@@UAEHHH@Z 004603d0 f   Dialog_Inv.obj
 0001:0005f490       ?Draw@CDialog_Inv@@UAEHPAVCDDSurface@@@Z 00460490 f   Dialog_Inv.obj
 0001:00060860       ?DragDraw@CDialog_Inv@@UAEHPAVCDDSurface@@@Z 00461860 f   Dialog_Inv.obj
 0001:000609e0       ?ShowWindow@CDialog_Inv@@UAEXXZ 004619e0 f   Dialog_Inv.obj
 0001:00060aa0       ?HideWindow@CDialog_Inv@@UAEXXZ 00461aa0 f   Dialog_Inv.obj
 0001:00060af0       ?HideAllWindow@CDialog_Inv@@UAEXXZ 00461af0 f   Dialog_Inv.obj
 0001:00060b40       ?RefreshData@CDialog_Inv@@QAEXXZ 00461b40 f   Dialog_Inv.obj
 0001:000610a0       ??0ITEM_INV@@QAE@XZ        004620a0 f i Dialog_Inv.obj
 0001:000611b0       ?DeleteContents@CDialog_Inv@@QAEXXZ 004621b0 f   Dialog_Inv.obj
 0001:000612c0       ??_GITEM_INV@@QAEPAXI@Z    004622c0 f i Dialog_Inv.obj
 0001:00061320       ??1ITEM_INV@@QAE@XZ        00462320 f i Dialog_Inv.obj
 0001:000613a0       ?SetScrollData@CDialog_Inv@@QAEXXZ 004623a0 f   Dialog_Inv.obj
 0001:00061490       ?Create@CDialog_Inv@@UAEHPAVCDirectDraw@@VCString@@HHHH@Z 00462490 f   Dialog_Inv.obj
 0001:00061670       ?OnLButtonDown@CDialog_Inv@@UAEHPAVBBDX_MouseInformation@@@Z 00462670 f   Dialog_Inv.obj
 0001:00061920       ?OnLButtonUp@CDialog_Inv@@UAEHPAVBBDX_MouseInformation@@@Z 00462920 f   Dialog_Inv.obj
 0001:00061f10       ?OnMouseMove@CDialog_Inv@@UAEHPAVBBDX_MouseInformation@@@Z 00462f10 f   Dialog_Inv.obj
 0001:00062050       ?OnRButtonDown@CDialog_Inv@@QAEHPAVBBDX_MouseInformation@@@Z 00463050 f   Dialog_Inv.obj
 0001:00062240       ?MouseProcess@CDialog_Inv@@UAEHPAVBBDX_MouseInformation@@@Z 00463240 f   Dialog_Inv.obj
 0001:000623b0       ?ChangeItem@CDialog_Inv@@QAEXFF@Z 004633b0 f   Dialog_Inv.obj
 0001:00062950       ?SendChangeItem@CDialog_Inv@@QAEXF@Z 00463950 f   Dialog_Inv.obj
 0001:00062aa0       ?SendChangeItem@CDialog_Inv@@QAEXFF@Z 00463aa0 f   Dialog_Inv.obj
 0001:00062b50       ?SendThrowItem@CDialog_Inv@@QAEXFF@Z 00463b50 f   Dialog_Inv.obj
 0001:00062c20       ?SendUseItem@CDialog_Inv@@QAEXF@Z 00463c20 f   Dialog_Inv.obj
 0001:00062cc0       ?SendItemToBelt@CDialog_Inv@@QAEXFF@Z 00463cc0 f   Dialog_Inv.obj
 0001:00062d90       ?RcvItemToBelt@CDialog_Inv@@QAEXPAE@Z 00463d90 f   Dialog_Inv.obj
 0001:00062ea0       ?DrawTipRect@CDialog_Inv@@QAEXPAVCDDSurface@@AAVCRect@@H@Z 00463ea0 f   Dialog_Inv.obj
 0001:00063350       ?ViewCaption@CDialog_Inv@@QAEXPAVCDDSurface@@VCPoint@@VCString@@H@Z 00464350 f   Dialog_Inv.obj
 0001:00063570       ?CallBack_MessageBox@CDialog_Inv@@UAEXHH@Z 00464570 f   Dialog_Inv.obj
 0001:00063690       ?SendDumpMoney@CDialog_Inv@@QAEXK@Z 00464690 f   Dialog_Inv.obj
 0001:00063740       ?MovingSoundPlay@@YAXHF@Z  00464740 f   Dialog_Inv.obj
 0001:000638c0       ?OnLButtonDblClk@CDialog_Inv@@UAEHPAVBBDX_MouseInformation@@@Z 004648c0 f   Dialog_Inv.obj
 0001:00063ab0       ?TransParentItem@CDialog_Inv@@QAEXPAVCDDSurface@@VCPoint@@VCRect@@@Z 00464ab0 f   Dialog_Inv.obj
 0001:00063c30       ?PutPixelHalf@CDialog_Inv@@SAXPBGPBKHKK@Z 00464c30 f i Dialog_Inv.obj
 0001:00063ca0       ?GetClippedRect@@YAHPAUtagRECT@@0@Z 00464ca0 f   Dialog_Inv.obj
 0001:00063d70       ?GetScreenSize@DirectXMng@@QAEAAVCSize@@XZ 00464d70 f i Dialog_Inv.obj
 0001:00063da0       ?BltBlackTrans@@YAXPAVCDDSurface@@VCRect@@@Z 00464da0 f   Dialog_Inv.obj
 0001:00063ee0       ?PutPixelShadowEx@@YAXPBGHKK@Z 00464ee0 f i Dialog_Inv.obj
 0001:00063f40       ??0?$CMap@HHPAVITEM_INV@@AAPAV1@@@QAE@H@Z 00464f40 f i Dialog_Inv.obj
 0001:00064010       ?Lookup@?$CMap@HHPAVITEM_INV@@AAPAV1@@@QBEHHAAPAVITEM_INV@@@Z 00465010 f i Dialog_Inv.obj
 0001:00064080       ??A?$CMap@HHPAVITEM_INV@@AAPAV1@@@QAEAAPAVITEM_INV@@H@Z 00465080 f i Dialog_Inv.obj
 0001:00064140       ?RemoveKey@?$CMap@HHPAVITEM_INV@@AAPAV1@@@QAEHH@Z 00465140 f i Dialog_Inv.obj
 0001:00064200       ?RemoveAll@?$CMap@HHPAVITEM_INV@@AAPAV1@@@QAEXXZ 00465200 f i Dialog_Inv.obj
 0001:000642f0       ?GetStartPosition@?$CMap@HHPAVITEM_INV@@AAPAV1@@@QBEPAU__POSITION@@XZ 004652f0 f i Dialog_Inv.obj
 0001:00064320       ?GetNextAssoc@?$CMap@HHPAVITEM_INV@@AAPAV1@@@QBEXAAPAU__POSITION@@AAHAAPAVITEM_INV@@@Z 00465320 f i Dialog_Inv.obj
 0001:000644a0       ??1?$CMap@HHPAVITEM_INV@@AAPAV1@@@UAE@XZ 004654a0 f i Dialog_Inv.obj
 0001:00064540       ?Serialize@?$CMap@HHPAVITEM_INV@@AAPAV1@@@UAEXAAVCArchive@@@Z 00465540 f i Dialog_Inv.obj
 0001:00064690       ?Dump@?$CMap@HHPAVITEM_INV@@AAPAV1@@@UBEXAAVCDumpContext@@@Z 00465690 f i Dialog_Inv.obj
 0001:00064770       ?AssertValid@?$CMap@HHPAVITEM_INV@@AAPAV1@@@UBEXXZ 00465770 f i Dialog_Inv.obj
 0001:00064800       ??_G?$CMap@HHPAVITEM_INV@@AAPAV1@@@UAEPAXI@Z 00465800 f i Dialog_Inv.obj
 0001:00064800       ??_E?$CMap@HHPAVITEM_INV@@AAPAV1@@@UAEPAXI@Z 00465800 f i Dialog_Inv.obj
 0001:00064850       ?SetAt@?$CMap@HHPAVITEM_INV@@AAPAV1@@@QAEXHAAPAVITEM_INV@@@Z 00465850 f i Dialog_Inv.obj
 0001:000648a0       ?InitHashTable@?$CMap@HHPAVITEM_INV@@AAPAV1@@@QAEXIH@Z 004658a0 f i Dialog_Inv.obj
 0001:000649a0       ?NewAssoc@?$CMap@HHPAVITEM_INV@@AAPAV1@@@IAEPAUCAssoc@1@XZ 004659a0 f i Dialog_Inv.obj
 0001:00064ae0       ?FreeAssoc@?$CMap@HHPAVITEM_INV@@AAPAV1@@@IAEXPAUCAssoc@1@@Z 00465ae0 f i Dialog_Inv.obj
 0001:00064b90       ?GetAssocAt@?$CMap@HHPAVITEM_INV@@AAPAV1@@@IBEPAUCAssoc@1@HAAI@Z 00465b90 f i Dialog_Inv.obj
 0001:00064c30       ?DestructElements@@YGXPAPAVITEM_INV@@H@Z 00465c30 f i Dialog_Inv.obj
 0001:00064cb0       ?SerializeElements@@YGXAAVCArchive@@PAPAVITEM_INV@@H@Z 00465cb0 f i Dialog_Inv.obj
 0001:00064d50       ?DumpElements@@YGXAAVCDumpContext@@PBQAVITEM_INV@@H@Z 00465d50 f i Dialog_Inv.obj
 0001:00064db0       ?ConstructElements@@YGXPAPAVITEM_INV@@H@Z 00465db0 f i Dialog_Inv.obj
 0001:00064e60       ??0CDialog_Login@@QAE@PAVCChildView@@@Z 00465e60 f   Dialog_Login.obj
 0001:000651e0       ??_ECDialog_Login@@UAEPAXI@Z 004661e0 f i Dialog_Login.obj
 0001:000651e0       ??_GCDialog_Login@@UAEPAXI@Z 004661e0 f i Dialog_Login.obj
 0001:00065240       ??_H@YGXPAXIHP6EX0@Z@Z     00466240 f i Dialog_Login.obj
 0001:000652a0       ??1CDialog_Login@@UAE@XZ   004662a0 f   Dialog_Login.obj
 0001:00065640       ?Create@CDialog_Login@@QAEHPAVCDirectDraw@@VCString@@HHH@Z 00466640 f   Dialog_Login.obj
 0001:000659c0       ?MouseProcess@CDialog_Login@@UAEHPAVBBDX_MouseInformation@@@Z 004669c0 f   Dialog_Login.obj
 0001:00065ac0       ?OnLButtonDown@CDialog_Login@@UAEHPAVBBDX_MouseInformation@@@Z 00466ac0 f   Dialog_Login.obj
 0001:00065c50       ?OnLButtonUp@CDialog_Login@@UAEHPAVBBDX_MouseInformation@@@Z 00466c50 f   Dialog_Login.obj
 0001:00066290       ?HairStyleChange@CDialog_Login@@QAEXH@Z 00467290 f   Dialog_Login.obj
 0001:00066450       ?HairColorChange@CDialog_Login@@QAEXH@Z 00467450 f   Dialog_Login.obj
 0001:00066630       ?SkinChange@CDialog_Login@@QAEXH@Z 00467630 f   Dialog_Login.obj
 0001:000666d0       ?SetCharNum@CDialog_Login@@QAEXXZ 004676d0 f   Dialog_Login.obj
 0001:00066a20       ?OnMouseMove@CDialog_Login@@UAEHPAVBBDX_MouseInformation@@@Z 00467a20 f   Dialog_Login.obj
 0001:00066d00       ?DrawNewCharExplain@CDialog_Login@@QAEXXZ 00467d00 f   Dialog_Login.obj
 0001:00066fa0       ?SetCharTypeData@CDialog_Login@@QAEXH@Z 00467fa0 f   Dialog_Login.obj
 0001:00067330       ?SetMakeCharData@CDialog_Login@@QAEXH@Z 00468330 f   Dialog_Login.obj
 0001:00067a10       ?Draw@CDialog_Login@@UAEHPAVCDDSurface@@@Z 00468a10 f   Dialog_Login.obj
 0001:00067c20       ?MovePixelDraw@CDialog_Login@@QAEXPAVCDDSurface@@@Z 00468c20 f   Dialog_Login.obj
 0001:00067cd0       ?LoginDraw@CDialog_Login@@QAEXPAVCDDSurface@@@Z 00468cd0 f   Dialog_Login.obj
 0001:00067f00       ?MakeCharData@CDialog_Login@@QAEXPAVCDDSurface@@@Z 00468f00 f   Dialog_Login.obj
 0001:000681b0       ?DrawCharData@CDialog_Login@@IAEXPAVCDDSurface@@H@Z 004691b0 f   Dialog_Login.obj
 0001:000689e0       ?SetCharData@CDialog_Login@@IAEXPAVCItem_Inv@@H@Z 004699e0 f   Dialog_Login.obj
 0001:00069230       ?GetTextOutRect@CDialog_Login@@IAE?AVCRect@@H@Z 0046a230 f   Dialog_Login.obj
 0001:000692b0       ?NewCharDraw@CDialog_Login@@QAEXPAVCDDSurface@@@Z 0046a2b0 f   Dialog_Login.obj
 0001:00069a20       ?ResetData@CDialog_Login@@QAEXXZ 0046aa20 f   Dialog_Login.obj
 0001:00069a90       ?ChangeCharacter@CDialog_Login@@QAEXH@Z 0046aa90 f   Dialog_Login.obj
 0001:00069ad0       ?SetCharacter@CDialog_Login@@QAEXPAVCItem_Inv@@00@Z 0046aad0 f   Dialog_Login.obj
 0001:00069b60       ?LoginMouseProcess@CDialog_Login@@QAEXPAVBBDX_MouseInformation@@@Z 0046ab60 f   Dialog_Login.obj
 0001:00069b90       ?InitLogin@CDialog_Login@@QAEXXZ 0046ab90 f   Dialog_Login.obj
 0001:00069bc0       ?InitNewChar@CDialog_Login@@QAEXXZ 0046abc0 f   Dialog_Login.obj
 0001:00069e00       ?SetMode@CDialog_Login@@QAEXH@Z 0046ae00 f   Dialog_Login.obj
 0001:00069e40       ?SetMessage@CDialog_Login@@QAEXVCString@@@Z 0046ae40 f   Dialog_Login.obj
 0001:00069ec0       ?DrawErrorText@CDialog_Login@@QAEXPAVCDDSurface@@@Z 0046aec0 f   Dialog_Login.obj
 0001:00069fd0       ?LoginCharData@CDialog_Login@@QAE_NHHM@Z 0046afd0 f   Dialog_Login.obj
 0001:0006a400       ?SDrawLine@CDialog_Login@@QAE_NAAJ0JJHM@Z 0046b400 f   Dialog_Login.obj
 0001:0006a4f0       ?ChangeVerticesColor@CDialog_Login@@QAE_NHHPAVCItem_Inv@@0@Z 0046b4f0 f   Dialog_Login.obj
 0001:0006a5f0       ??0CDialog_MagicCtrl@@QAE@XZ 0046b5f0 f   Dialog_MagicCtrl.obj
 0001:0006a670       ??_GCDialog_MagicCtrl@@UAEPAXI@Z 0046b670 f i Dialog_MagicCtrl.obj
 0001:0006a670       ??_ECDialog_MagicCtrl@@UAEPAXI@Z 0046b670 f i Dialog_MagicCtrl.obj
 0001:0006a6d0       ??1CDialog_MagicCtrl@@UAE@XZ 0046b6d0 f   Dialog_MagicCtrl.obj
 0001:0006a830       ?Draw@CDialog_MagicCtrl@@QAEXPAVCDDSurface@@@Z 0046b830 f   Dialog_MagicCtrl.obj
 0001:0006a890       ?InitData@CDialog_MagicCtrl@@QAEHPAVCDirectDraw@@PAVCChildView@@@Z 0046b890 f   Dialog_MagicCtrl.obj
 0001:0006ab40       ?MouseProcess@CDialog_MagicCtrl@@QAEHPAVBBDX_MouseInformation@@@Z 0046bb40 f   Dialog_MagicCtrl.obj
 0001:0006acb0       ?DrawMode@CDialog_MagicCtrl@@QAEXH@Z 0046bcb0 f   Dialog_MagicCtrl.obj
 0001:0006add0       ?ShowWindow@CDialog_MagicCtrl@@QAEXXZ 0046bdd0 f   Dialog_MagicCtrl.obj
 0001:0006aee0       ?HideWindow@CDialog_MagicCtrl@@QAEXXZ 0046bee0 f   Dialog_MagicCtrl.obj
 0001:0006af40       ??0CDialog_Main@@QAE@XZ    0046bf40 f   Dialog_Main.obj
 0001:0006b0c0       ??_GCDialog_Main@@UAEPAXI@Z 0046c0c0 f i Dialog_Main.obj
 0001:0006b0c0       ??_ECDialog_Main@@UAEPAXI@Z 0046c0c0 f i Dialog_Main.obj
 0001:0006b120       ??1CDialog_Main@@UAE@XZ    0046c120 f   Dialog_Main.obj
 0001:0006b200       ?InitData@CDialog_Main@@QAEXXZ 0046c200 f   Dialog_Main.obj
 0001:0006b290       ?OnButtonAction@CDialog_Main@@UAEHHH@Z 0046c290 f   Dialog_Main.obj
 0001:0006b460       ?Draw@CDialog_Main@@UAEHPAVCDDSurface@@@Z 0046c460 f   Dialog_Main.obj
 0001:0006c4c0       ?DragDraw@CDialog_Main@@UAEHPAVCDDSurface@@@Z 0046d4c0 f   Dialog_Main.obj
 0001:0006c700       ?HideWindow@CDialog_Main@@UAEXXZ 0046d700 f   Dialog_Main.obj
 0001:0006c750       ?OnLButtonDown@CDialog_Main@@UAEHPAVBBDX_MouseInformation@@@Z 0046d750 f   Dialog_Main.obj
 0001:0006c9d0       ?OnLButtonUp@CDialog_Main@@UAEHPAVBBDX_MouseInformation@@@Z 0046d9d0 f   Dialog_Main.obj
 0001:0006cc90       ?OnMouseMove@CDialog_Main@@UAEHPAVBBDX_MouseInformation@@@Z 0046dc90 f   Dialog_Main.obj
 0001:0006d230       ?OnRButtonDown@CDialog_Main@@QAEHPAVBBDX_MouseInformation@@@Z 0046e230 f   Dialog_Main.obj
 0001:0006d3a0       ?MouseProcess@CDialog_Main@@UAEHPAVBBDX_MouseInformation@@@Z 0046e3a0 f   Dialog_Main.obj
 0001:0006d520       ?ResetStatus@CDialog_Main@@QAEXXZ 0046e520 f   Dialog_Main.obj
 0001:0006d600       ?SetMagicData@CDialog_Main@@QAEXHPAVCMyMagicData@@@Z 0046e600 f   Dialog_Main.obj
 0001:0006d690       ?LoadMagicData@CDialog_Main@@QAEXQAPAVCMyMagicData@@@Z 0046e690 f   Dialog_Main.obj
 0001:0006d6f0       ?SendUseItem@CDialog_Main@@QAEXF@Z 0046e6f0 f   Dialog_Main.obj
 0001:0006d780       ?SendItemToInv@CDialog_Main@@QAEXFF@Z 0046e780 f   Dialog_Main.obj
 0001:0006d850       ?RcvItemToInv@CDialog_Main@@QAEXPAE@Z 0046e850 f   Dialog_Main.obj
 0001:0006d980       ?Create@CDialog_Main@@UAEHPAVCDirectDraw@@VCString@@HHHH@Z 0046e980 f   Dialog_Main.obj
 0001:0006db00       ?SetBattleMode@CDialog_Main@@QAEXH@Z 0046eb00 f   Dialog_Main.obj
 0001:0006dc20       ?SendThrowItem@CDialog_Main@@QAEXFF@Z 0046ec20 f   Dialog_Main.obj
 0001:0006dcf0       ?DrawTipRect@CDialog_Main@@QAEXPAVCDDSurface@@AAVCRect@@V3@H@Z 0046ecf0 f   Dialog_Main.obj
 0001:0006e1e0       ?ViewCaption@CDialog_Main@@QAEXPAVCDDSurface@@VCRect@@VCString@@H@Z 0046f1e0 f   Dialog_Main.obj
 0001:0006e400       ?OnLButtonDblClk@CDialog_Main@@UAEHPAVBBDX_MouseInformation@@@Z 0046f400 f   Dialog_Main.obj
 0001:0006e510       ?SetSelMagic@CDialog_Main@@QAEXH@Z 0046f510 f   Dialog_Main.obj
 0001:0006e560       ??0CDialog_MakeItem@@QAE@XZ 0046f560 f   Dialog_MakeItem.obj
 0001:0006e720       ??_GCDialog_MakeItem@@UAEPAXI@Z 0046f720 f i Dialog_MakeItem.obj
 0001:0006e720       ??_ECDialog_MakeItem@@UAEPAXI@Z 0046f720 f i Dialog_MakeItem.obj
 0001:0006e780       ??1CDialog_MakeItem@@UAE@XZ 0046f780 f   Dialog_MakeItem.obj
 0001:0006e8f0       ?MakerOpen@CDialog_MakeItem@@QAEXPAE@Z 0046f8f0 f   Dialog_MakeItem.obj
 0001:0006ea10       ?ReceiveProduct@CDialog_MakeItem@@QAEXPAE@Z 0046fa10 f   Dialog_MakeItem.obj
 0001:0006f050       ?SendProduce@CDialog_MakeItem@@QAEXXZ 00470050 f   Dialog_MakeItem.obj
 0001:0006f220       ?OnButtonAction@CDialog_MakeItem@@UAEHHH@Z 00470220 f   Dialog_MakeItem.obj
 0001:0006f370       ?Draw@CDialog_MakeItem@@UAEHPAVCDDSurface@@@Z 00470370 f   Dialog_MakeItem.obj
 0001:00070090       ?ShowWindow@CDialog_MakeItem@@UAEXXZ 00471090 f   Dialog_MakeItem.obj
 0001:00070160       ?SetWnd@CDialog_MakeItem@@QAEXPAVCWnd@@@Z 00471160 f i Dialog_MakeItem.obj
 0001:000701a0       ?HideWindow@CDialog_MakeItem@@UAEXXZ 004711a0 f   Dialog_MakeItem.obj
 0001:000701f0       ?HideAllWindow@CDialog_MakeItem@@UAEXXZ 004711f0 f   Dialog_MakeItem.obj
 0001:00070240       ?DeleteContents@CDialog_MakeItem@@QAEXXZ 00471240 f   Dialog_MakeItem.obj
 0001:000702f0       ?RefreshData@CDialog_MakeItem@@QAEXXZ 004712f0 f   Dialog_MakeItem.obj
 0001:00070680       ?Create@CDialog_MakeItem@@UAEHPAVCDirectDraw@@VCString@@HHHH@Z 00471680 f   Dialog_MakeItem.obj
 0001:00070890       ?InitData@CDialog_MakeItem@@QAEXXZ 00471890 f   Dialog_MakeItem.obj
 0001:00070950       ?SetScrollData@CDialog_MakeItem@@QAEXXZ 00471950 f   Dialog_MakeItem.obj
 0001:00070a00       ?OnLButtonDown@CDialog_MakeItem@@UAEHPAVBBDX_MouseInformation@@@Z 00471a00 f   Dialog_MakeItem.obj
 0001:00070da0       ?OnLButtonUp@CDialog_MakeItem@@UAEHPAVBBDX_MouseInformation@@@Z 00471da0 f   Dialog_MakeItem.obj
 0001:00071300       ?OnMouseMove@CDialog_MakeItem@@UAEHPAVBBDX_MouseInformation@@@Z 00472300 f   Dialog_MakeItem.obj
 0001:000714a0       ?MouseProcess@CDialog_MakeItem@@UAEHPAVBBDX_MouseInformation@@@Z 004724a0 f   Dialog_MakeItem.obj
 0001:000715c0       ?CallBack_MessageBox@CDialog_MakeItem@@UAEXHH@Z 004725c0 f   Dialog_MakeItem.obj
 0001:00071610       ?DrawTipRect@CDialog_MakeItem@@QAEXPAVCDDSurface@@AAVCRect@@H@Z 00472610 f   Dialog_MakeItem.obj
 0001:00071ac0       ?ViewCaption@CDialog_MakeItem@@QAEXPAVCDDSurface@@VCPoint@@VCString@@H@Z 00472ac0 f   Dialog_MakeItem.obj
 0001:00071ce0       ?SetGender@CDialog_MakeItem@@QAEXH@Z 00472ce0 f   Dialog_MakeItem.obj
 0001:00071df0       ??0CDialog_Memo@@QAE@PAVCWnd@@@Z 00472df0 f   Dialog_Memo.obj
 0001:00071f00       ??_GCDialog_Memo@@UAEPAXI@Z 00472f00 f i Dialog_Memo.obj
 0001:00071f00       ??_ECDialog_Memo@@UAEPAXI@Z 00472f00 f i Dialog_Memo.obj
 0001:00071f60       ??1CDialog_Memo@@UAE@XZ    00472f60 f   Dialog_Memo.obj
 0001:000720d0       ?ShowWindow@CDialog_Memo@@QAEXH@Z 004730d0 f   Dialog_Memo.obj
 0001:000721d0       ?HideWindow@CDialog_Memo@@UAEXXZ 004731d0 f   Dialog_Memo.obj
 0001:00072230       ?SetUserName@CDialog_Memo@@QAEXVCString@@@Z 00473230 f   Dialog_Memo.obj
 0001:000722b0       ?AddMessage@CDialog_Memo@@QAEXHVCString@@@Z 004732b0 f   Dialog_Memo.obj
 0001:00072360       ?Draw@CDialog_Memo@@UAEHPAVCDDSurface@@@Z 00473360 f   Dialog_Memo.obj
 0001:00072720       ?SetScrollData@CDialog_Memo@@QAEXXZ 00473720 f   Dialog_Memo.obj
 0001:000727b0       ?SetFocus@CDialog_Memo@@UAEXXZ 004737b0 f   Dialog_Memo.obj
 0001:000727f0       ?Create@CDialog_Memo@@UAEHPAVCDirectDraw@@VCString@@HHHH@Z 004737f0 f   Dialog_Memo.obj
 0001:00072b40       ?OnLButtonDown@CDialog_Memo@@UAEHPAVBBDX_MouseInformation@@@Z 00473b40 f   Dialog_Memo.obj
 0001:00072bd0       ?OnLButtonUp@CDialog_Memo@@UAEHPAVBBDX_MouseInformation@@@Z 00473bd0 f   Dialog_Memo.obj
 0001:00072c30       ?OnMouseMove@CDialog_Memo@@UAEHPAVBBDX_MouseInformation@@@Z 00473c30 f   Dialog_Memo.obj
 0001:00072c90       ?OnKeyDown@CDialog_Memo@@UAEHIII@Z 00473c90 f   Dialog_Memo.obj
 0001:00072ea0       ?OnButtonAction@CDialog_Memo@@UAEHHH@Z 00473ea0 f   Dialog_Memo.obj
 0001:00072f60       ?SendChat@CDialog_Memo@@QAEXVCString@@@Z 00473f60 f   Dialog_Memo.obj
 0001:000730d0       ?MouseProcess@CDialog_Memo@@UAEHPAVBBDX_MouseInformation@@@Z 004740d0 f   Dialog_Memo.obj
 0001:000732d0       ?OnRButtonDown@CDialog_Memo@@QAEHPAVBBDX_MouseInformation@@@Z 004742d0 f   Dialog_Memo.obj
 0001:00073400       ?OnKeyUp@CDialog_Memo@@UAEHIII@Z 00474400 f   Dialog_Memo.obj
 0001:00073480       ??0CDialog_MemoCtrl@@QAE@XZ 00474480 f   Dialog_MemoCtrl.obj
 0001:00073510       ??_GCDialog_MemoCtrl@@UAEPAXI@Z 00474510 f i Dialog_MemoCtrl.obj
 0001:00073510       ??_ECDialog_MemoCtrl@@UAEPAXI@Z 00474510 f i Dialog_MemoCtrl.obj
 0001:00073570       ??1?$CTypedPtrList@VCPtrList@@PAVCDialog_Memo@@@@UAE@XZ 00474570 f i Dialog_MemoCtrl.obj
 0001:000735b0       ??0?$CTypedPtrArray@VCPtrArray@@PAVCDialog_Memo@@@@QAE@XZ 004745b0 f i Dialog_MemoCtrl.obj
 0001:00073600       ??1?$_CTypedPtrList@VCPtrList@@PAVCDialog_Memo@@@@UAE@XZ 00474600 f i Dialog_MemoCtrl.obj
 0001:00073640       ??_G?$CTypedPtrArray@VCPtrArray@@PAVCDialog_Memo@@@@UAEPAXI@Z 00474640 f i Dialog_MemoCtrl.obj
 0001:00073640       ??_E?$CTypedPtrArray@VCPtrArray@@PAVCDialog_Memo@@@@UAEPAXI@Z 00474640 f i Dialog_MemoCtrl.obj
 0001:00073690       ??1?$CTypedPtrArray@VCPtrArray@@PAVCDialog_Memo@@@@UAE@XZ 00474690 f i Dialog_MemoCtrl.obj
 0001:000736d0       ??1CDialog_MemoCtrl@@UAE@XZ 004746d0 f   Dialog_MemoCtrl.obj
 0001:00073760       ?DeleteContents@CDialog_MemoCtrl@@QAEXXZ 00474760 f   Dialog_MemoCtrl.obj
 0001:00073870       ?AddMemoChat@CDialog_MemoCtrl@@QAEXVCString@@0@Z 00474870 f   Dialog_MemoCtrl.obj
 0001:00073a70       ?AddEchoMemoChat@CDialog_MemoCtrl@@QAEXVCString@@0@Z 00474a70 f   Dialog_MemoCtrl.obj
 0001:00073c70       ?InitData@CDialog_MemoCtrl@@QAEXPAVCDirectDraw@@PAVCChildView@@@Z 00474c70 f   Dialog_MemoCtrl.obj
 0001:00073cb0       ?Draw@CDialog_MemoCtrl@@QAEXPAVCDDSurface@@@Z 00474cb0 f   Dialog_MemoCtrl.obj
 0001:00073e10       ?MouseProcess@CDialog_MemoCtrl@@QAEHPAVBBDX_MouseInformation@@@Z 00474e10 f   Dialog_MemoCtrl.obj
 0001:00073ed0       ?HideMemo@CDialog_MemoCtrl@@QAEXPAVCUIRes@@@Z 00474ed0 f   Dialog_MemoCtrl.obj
 0001:00073f50       ??0?$CTypedPtrList@VCPtrList@@PAVCDialog_Memo@@@@QAE@H@Z 00474f50 f i Dialog_MemoCtrl.obj
 0001:00073fa0       ?AddTail@?$CTypedPtrList@VCPtrList@@PAVCDialog_Memo@@@@QAEPAU__POSITION@@PAVCDialog_Memo@@@Z 00474fa0 f i Dialog_MemoCtrl.obj
 0001:00073fe0       ?GetNext@?$_CTypedPtrList@VCPtrList@@PAVCDialog_Memo@@@@QAEAAPAVCDialog_Memo@@AAPAU__POSITION@@@Z 00474fe0 f i Dialog_MemoCtrl.obj
 0001:00074020       ?GetPrev@?$_CTypedPtrList@VCPtrList@@PAVCDialog_Memo@@@@QAEAAPAVCDialog_Memo@@AAPAU__POSITION@@@Z 00475020 f i Dialog_MemoCtrl.obj
 0001:00074060       ?Add@?$CTypedPtrArray@VCPtrArray@@PAVCDialog_Memo@@@@QAEHPAVCDialog_Memo@@@Z 00475060 f i Dialog_MemoCtrl.obj
 0001:000740a0       ??A?$CTypedPtrArray@VCPtrArray@@PAVCDialog_Memo@@@@QAEAAPAVCDialog_Memo@@H@Z 004750a0 f i Dialog_MemoCtrl.obj
 0001:000740e0       ??_G?$CTypedPtrList@VCPtrList@@PAVCDialog_Memo@@@@UAEPAXI@Z 004750e0 f i Dialog_MemoCtrl.obj
 0001:000740e0       ??_E?$CTypedPtrList@VCPtrList@@PAVCDialog_Memo@@@@UAEPAXI@Z 004750e0 f i Dialog_MemoCtrl.obj
 0001:00074130       ??0?$_CTypedPtrList@VCPtrList@@PAVCDialog_Memo@@@@QAE@H@Z 00475130 f i Dialog_MemoCtrl.obj
 0001:00074180       ??_E?$_CTypedPtrList@VCPtrList@@PAVCDialog_Memo@@@@UAEPAXI@Z 00475180 f i Dialog_MemoCtrl.obj
 0001:00074180       ??_G?$_CTypedPtrList@VCPtrList@@PAVCDialog_Memo@@@@UAEPAXI@Z 00475180 f i Dialog_MemoCtrl.obj
 0001:000741d0       ??0CDialog_Message@@QAE@XZ 004751d0 f   Dialog_Message.obj
 0001:00074260       ??_ECDialog_Message@@UAEPAXI@Z 00475260 f i Dialog_Message.obj
 0001:00074260       ??_GCDialog_Message@@UAEPAXI@Z 00475260 f i Dialog_Message.obj
 0001:000742c0       ??1CDialog_Message@@UAE@XZ 004752c0 f   Dialog_Message.obj
 0001:00074390       ?Create@CDialog_Message@@UAEHPAVCDirectDraw@@VCString@@HHHH@Z 00475390 f   Dialog_Message.obj
 0001:000744e0       ?Draw@CDialog_Message@@UAEHPAVCDDSurface@@@Z 004754e0 f   Dialog_Message.obj
 0001:00074640       ?OnButtonAction@CDialog_Message@@UAEHHH@Z 00475640 f   Dialog_Message.obj
 0001:000746d0       ?SetMessage@CDialog_Message@@QAEXAAVCString@@@Z 004756d0 f   Dialog_Message.obj
 0001:00074720       ?ShowWindow@CDialog_Message@@QAEXHPAVCUIRes@@@Z 00475720 f   Dialog_Message.obj
 0001:00074860       ?HideWindow@CDialog_Message@@UAEXXZ 00475860 f   Dialog_Message.obj
 0001:00074910       ?HideAllWindow@CDialog_Message@@UAEXXZ 00475910 f   Dialog_Message.obj
 0001:00074990       ?OnKeyDown@CDialog_Message@@UAEHIII@Z 00475990 f   Dialog_Message.obj
 0001:00074a30       ??0CDialog_Message2@@QAE@XZ 00475a30 f   Dialog_Message2.obj
 0001:00074ad0       ??_ECDialog_Message2@@UAEPAXI@Z 00475ad0 f i Dialog_Message2.obj
 0001:00074ad0       ??_GCDialog_Message2@@UAEPAXI@Z 00475ad0 f i Dialog_Message2.obj
 0001:00074b30       ??1CDialog_Message2@@UAE@XZ 00475b30 f   Dialog_Message2.obj
 0001:00074c00       ?Create@CDialog_Message2@@UAEHPAVCDirectDraw@@VCString@@HHHH@Z 00475c00 f   Dialog_Message2.obj
 0001:00074d50       ?Draw@CDialog_Message2@@UAEHPAVCDDSurface@@@Z 00475d50 f   Dialog_Message2.obj
 0001:00074eb0       ?OnButtonAction@CDialog_Message2@@UAEHHH@Z 00475eb0 f   Dialog_Message2.obj
 0001:00074fa0       ?SetMessage@CDialog_Message2@@QAEXAAVCString@@@Z 00475fa0 f   Dialog_Message2.obj
 0001:00074ff0       ?ShowWindow@CDialog_Message2@@QAEXHPAVCUIRes@@@Z 00475ff0 f   Dialog_Message2.obj
 0001:00075130       ?HideWindow@CDialog_Message2@@UAEXXZ 00476130 f   Dialog_Message2.obj
 0001:000751e0       ?HideAllWindow@CDialog_Message2@@UAEXXZ 004761e0 f   Dialog_Message2.obj
 0001:00075260       ?OnKeyDown@CDialog_Message2@@UAEHIII@Z 00476260 f   Dialog_Message2.obj
 0001:00075350       ??0CDialog_Message3@@QAE@XZ 00476350 f   Dialog_Message3.obj
 0001:000753e0       ??_ECDialog_Message3@@UAEPAXI@Z 004763e0 f i Dialog_Message3.obj
 0001:000753e0       ??_GCDialog_Message3@@UAEPAXI@Z 004763e0 f i Dialog_Message3.obj
 0001:00075440       ??1CDialog_Message3@@UAE@XZ 00476440 f   Dialog_Message3.obj
 0001:00075510       ?Create@CDialog_Message3@@UAEHPAVCDirectDraw@@VCString@@HHHH@Z 00476510 f   Dialog_Message3.obj
 0001:00075660       ?Draw@CDialog_Message3@@UAEHPAVCDDSurface@@@Z 00476660 f   Dialog_Message3.obj
 0001:000757c0       ?OnButtonAction@CDialog_Message3@@UAEHHH@Z 004767c0 f   Dialog_Message3.obj
 0001:00075850       ?SetMessage@CDialog_Message3@@QAEXAAVCString@@@Z 00476850 f   Dialog_Message3.obj
 0001:000758a0       ?ShowWindow@CDialog_Message3@@QAEXHPAVCUIRes@@@Z 004768a0 f   Dialog_Message3.obj
 0001:000759e0       ?HideWindow@CDialog_Message3@@UAEXXZ 004769e0 f   Dialog_Message3.obj
 0001:00075a90       ?HideAllWindow@CDialog_Message3@@UAEXXZ 00476a90 f   Dialog_Message3.obj
 0001:00075b10       ?OnKeyDown@CDialog_Message3@@UAEHIII@Z 00476b10 f   Dialog_Message3.obj
 0001:00075bb0       ??0CDialog_Name@@QAE@XZ    00476bb0 f   Dialog_Name.obj
 0001:00075c40       ??_GCDialog_Name@@UAEPAXI@Z 00476c40 f i Dialog_Name.obj
 0001:00075c40       ??_ECDialog_Name@@UAEPAXI@Z 00476c40 f i Dialog_Name.obj
 0001:00075ca0       ??1CDialog_Name@@UAE@XZ    00476ca0 f   Dialog_Name.obj
 0001:00075d20       ?OnButtonAction@CDialog_Name@@UAEHHH@Z 00476d20 f   Dialog_Name.obj
 0001:00075e30       ?Draw@CDialog_Name@@UAEHPAVCDDSurface@@@Z 00476e30 f   Dialog_Name.obj
 0001:00075ec0       ?Create@CDialog_Name@@UAEHPAVCDirectDraw@@VCString@@HHHH@Z 00476ec0 f   Dialog_Name.obj
 0001:00076050       ?ShowWindow@CDialog_Name@@QAEXHPAVCUIRes@@I@Z 00477050 f   Dialog_Name.obj
 0001:000761c0       ?SetWnd@CDialog_Name@@QAEXPAVCWnd@@@Z 004771c0 f i Dialog_Name.obj
 0001:00076200       ?OnKeyDown@CDialog_Name@@UAEHIII@Z 00477200 f   Dialog_Name.obj
 0001:00076310       ?HideWindow@CDialog_Name@@UAEXXZ 00477310 f   Dialog_Name.obj
 0001:000763c0       ?HideAllWindow@CDialog_Name@@UAEXXZ 004773c0 f   Dialog_Name.obj
 0001:00076440       ?SetName@CDialog_Name@@QAEXVCString@@@Z 00477440 f   Dialog_Name.obj
 0001:000764c0       ??0CDialog_Option@@QAE@XZ  004774c0 f   Dialog_Option.obj
 0001:00076560       ??_GCDialog_Option@@UAEPAXI@Z 00477560 f i Dialog_Option.obj
 0001:00076560       ??_ECDialog_Option@@UAEPAXI@Z 00477560 f i Dialog_Option.obj
 0001:000765c0       ??1CDialog_Option@@UAE@XZ  004775c0 f   Dialog_Option.obj
 0001:00076730       ?OnButtonAction@CDialog_Option@@UAEHHH@Z 00477730 f   Dialog_Option.obj
 0001:00076830       ?Draw@CDialog_Option@@UAEHPAVCDDSurface@@@Z 00477830 f   Dialog_Option.obj
 0001:00076ab0       ?OnLButtonDown@CDialog_Option@@UAEHPAVBBDX_MouseInformation@@@Z 00477ab0 f   Dialog_Option.obj
 0001:00076d00       ?GetStartLine@CUIHorzScrollBar@@QAEHXZ 00477d00 f i Dialog_Option.obj
 0001:00076d30       ?OnMouseMove@CDialog_Option@@UAEHPAVBBDX_MouseInformation@@@Z 00477d30 f   Dialog_Option.obj
 0001:00077070       ?OnLButtonUp@CDialog_Option@@UAEHPAVBBDX_MouseInformation@@@Z 00478070 f   Dialog_Option.obj
 0001:000772e0       ?MouseProcess@CDialog_Option@@UAEHPAVBBDX_MouseInformation@@@Z 004782e0 f   Dialog_Option.obj
 0001:00077430       ?ShowWindow@CDialog_Option@@UAEXXZ 00478430 f   Dialog_Option.obj
 0001:00077620       ?GetGammaRate@DirectXMng@@QAEJXZ 00478620 f i Dialog_Option.obj
 0001:00077650       ?Create@CDialog_Option@@UAEHPAVCDirectDraw@@VCString@@HHHH@Z 00478650 f   Dialog_Option.obj
 0001:00077950       ?SetMaxLineCount@CUIHorzScrollBar@@QAEXH@Z 00478950 f i Dialog_Option.obj
 0001:00077980       ?SetViewLineCount@CUIHorzScrollBar@@QAEXH@Z 00478980 f i Dialog_Option.obj
 0001:000779b0       ??0CDialog_Quit@@QAE@XZ    004789b0 f   Dialog_Quit.obj
 0001:00077a10       ??_ECDialog_Quit@@UAEPAXI@Z 00478a10 f i Dialog_Quit.obj
 0001:00077a10       ??_GCDialog_Quit@@UAEPAXI@Z 00478a10 f i Dialog_Quit.obj
 0001:00077a70       ??1CDialog_Quit@@UAE@XZ    00478a70 f   Dialog_Quit.obj
 0001:00077ab0       ?Create@CDialog_Quit@@UAEHPAVCDirectDraw@@VCString@@HHHH@Z 00478ab0 f   Dialog_Quit.obj
 0001:00077b80       ?Draw@CDialog_Quit@@UAEHPAVCDDSurface@@@Z 00478b80 f   Dialog_Quit.obj
 0001:00077bf0       ?OnButtonAction@CDialog_Quit@@UAEHHH@Z 00478bf0 f   Dialog_Quit.obj
 0001:00077d00       ?ShowWindow@CDialog_Quit@@QAEXHPAVCUIRes@@@Z 00478d00 f   Dialog_Quit.obj
 0001:00077e40       ?HideWindow@CDialog_Quit@@UAEXXZ 00478e40 f   Dialog_Quit.obj
 0001:00077ef0       ?HideAllWindow@CDialog_Quit@@UAEXXZ 00478ef0 f   Dialog_Quit.obj
 0001:00077f70       ?OnKeyDown@CDialog_Quit@@UAEHIII@Z 00478f70 f   Dialog_Quit.obj
 0001:00078070       ??0CDialog_Repair@@QAE@XZ  00479070 f   Dialog_Repair.obj
 0001:00078140       ??_GCDialog_Repair@@UAEPAXI@Z 00479140 f i Dialog_Repair.obj
 0001:00078140       ??_ECDialog_Repair@@UAEPAXI@Z 00479140 f i Dialog_Repair.obj
 0001:000781a0       ??1CDialog_Repair@@UAE@XZ  004791a0 f   Dialog_Repair.obj
 0001:000782d0       ?InitData@CDialog_Repair@@QAEXXZ 004792d0 f   Dialog_Repair.obj
 0001:00078350       ?OnButtonAction@CDialog_Repair@@UAEHHH@Z 00479350 f   Dialog_Repair.obj
 0001:000784a0       ?Draw@CDialog_Repair@@UAEHPAVCDDSurface@@@Z 004794a0 f   Dialog_Repair.obj
 0001:00078fe0       ?DragDraw@CDialog_Repair@@UAEHPAVCDDSurface@@@Z 00479fe0 f   Dialog_Repair.obj
 0001:00079150       ?ShowWindow@CDialog_Repair@@UAEXXZ 0047a150 f   Dialog_Repair.obj
 0001:00079220       ?HideWindow@CDialog_Repair@@UAEXXZ 0047a220 f   Dialog_Repair.obj
 0001:00079270       ?HideAllWindow@CDialog_Repair@@UAEXXZ 0047a270 f   Dialog_Repair.obj
 0001:000792b0       ?RefreshData@CDialog_Repair@@QAEXXZ 0047a2b0 f   Dialog_Repair.obj
 0001:000795b0       ??0ITEM_ME@@QAE@XZ         0047a5b0 f i Dialog_Repair.obj
 0001:000796d0       ?DeleteContents@CDialog_Repair@@QAEXXZ 0047a6d0 f   Dialog_Repair.obj
 0001:000797b0       ??_GITEM_ME@@QAEPAXI@Z     0047a7b0 f i Dialog_Repair.obj
 0001:00079810       ??1ITEM_ME@@QAE@XZ         0047a810 f i Dialog_Repair.obj
 0001:00079890       ?SetScrollData@CDialog_Repair@@QAEXXZ 0047a890 f   Dialog_Repair.obj
 0001:00079980       ?Create@CDialog_Repair@@UAEHPAVCDirectDraw@@VCString@@HHHH@Z 0047a980 f   Dialog_Repair.obj
 0001:00079b60       ?OnLButtonDown@CDialog_Repair@@UAEHPAVBBDX_MouseInformation@@@Z 0047ab60 f   Dialog_Repair.obj
 0001:00079de0       ?OnLButtonUp@CDialog_Repair@@UAEHPAVBBDX_MouseInformation@@@Z 0047ade0 f   Dialog_Repair.obj
 0001:0007a0b0       ?OnMouseMove@CDialog_Repair@@UAEHPAVBBDX_MouseInformation@@@Z 0047b0b0 f   Dialog_Repair.obj
 0001:0007a1f0       ?OnRButtonDown@CDialog_Repair@@QAEHPAVBBDX_MouseInformation@@@Z 0047b1f0 f   Dialog_Repair.obj
 0001:0007a4b0       ?OnLButtonDblClk@CDialog_Repair@@UAEHPAVBBDX_MouseInformation@@@Z 0047b4b0 f   Dialog_Repair.obj
 0001:0007a770       ?MouseProcess@CDialog_Repair@@UAEHPAVBBDX_MouseInformation@@@Z 0047b770 f   Dialog_Repair.obj
 0001:0007a8e0       ?DrawTipRect@CDialog_Repair@@QAEXPAVCDDSurface@@AAVCRect@@H@Z 0047b8e0 f   Dialog_Repair.obj
 0001:0007ad90       ?ViewCaption@CDialog_Repair@@QAEXPAVCDDSurface@@VCPoint@@VCString@@H@Z 0047bd90 f   Dialog_Repair.obj
 0001:0007afb0       ?SendRepairItem@CDialog_Repair@@QAEXXZ 0047bfb0 f   Dialog_Repair.obj
 0001:0007b040       ?RcvRepairItem@CDialog_Repair@@QAEXPAE@Z 0047c040 f   Dialog_Repair.obj
 0001:0007b230       ??0?$CMap@HHPAVITEM_ME@@AAPAV1@@@QAE@H@Z 0047c230 f i Dialog_Repair.obj
 0001:0007b300       ?Lookup@?$CMap@HHPAVITEM_ME@@AAPAV1@@@QBEHHAAPAVITEM_ME@@@Z 0047c300 f i Dialog_Repair.obj
 0001:0007b370       ??A?$CMap@HHPAVITEM_ME@@AAPAV1@@@QAEAAPAVITEM_ME@@H@Z 0047c370 f i Dialog_Repair.obj
 0001:0007b430       ?RemoveKey@?$CMap@HHPAVITEM_ME@@AAPAV1@@@QAEHH@Z 0047c430 f i Dialog_Repair.obj
 0001:0007b4f0       ?RemoveAll@?$CMap@HHPAVITEM_ME@@AAPAV1@@@QAEXXZ 0047c4f0 f i Dialog_Repair.obj
 0001:0007b5e0       ?GetStartPosition@?$CMap@HHPAVITEM_ME@@AAPAV1@@@QBEPAU__POSITION@@XZ 0047c5e0 f i Dialog_Repair.obj
 0001:0007b610       ?GetNextAssoc@?$CMap@HHPAVITEM_ME@@AAPAV1@@@QBEXAAPAU__POSITION@@AAHAAPAVITEM_ME@@@Z 0047c610 f i Dialog_Repair.obj
 0001:0007b790       ??1?$CMap@HHPAVITEM_ME@@AAPAV1@@@UAE@XZ 0047c790 f i Dialog_Repair.obj
 0001:0007b830       ?Serialize@?$CMap@HHPAVITEM_ME@@AAPAV1@@@UAEXAAVCArchive@@@Z 0047c830 f i Dialog_Repair.obj
 0001:0007b980       ?Dump@?$CMap@HHPAVITEM_ME@@AAPAV1@@@UBEXAAVCDumpContext@@@Z 0047c980 f i Dialog_Repair.obj
 0001:0007ba60       ?AssertValid@?$CMap@HHPAVITEM_ME@@AAPAV1@@@UBEXXZ 0047ca60 f i Dialog_Repair.obj
 0001:0007baf0       ??_G?$CMap@HHPAVITEM_ME@@AAPAV1@@@UAEPAXI@Z 0047caf0 f i Dialog_Repair.obj
 0001:0007baf0       ??_E?$CMap@HHPAVITEM_ME@@AAPAV1@@@UAEPAXI@Z 0047caf0 f i Dialog_Repair.obj
 0001:0007bb40       ?SetAt@?$CMap@HHPAVITEM_ME@@AAPAV1@@@QAEXHAAPAVITEM_ME@@@Z 0047cb40 f i Dialog_Repair.obj
 0001:0007bb90       ?InitHashTable@?$CMap@HHPAVITEM_ME@@AAPAV1@@@QAEXIH@Z 0047cb90 f i Dialog_Repair.obj
 0001:0007bc90       ?NewAssoc@?$CMap@HHPAVITEM_ME@@AAPAV1@@@IAEPAUCAssoc@1@XZ 0047cc90 f i Dialog_Repair.obj
 0001:0007bdd0       ?FreeAssoc@?$CMap@HHPAVITEM_ME@@AAPAV1@@@IAEXPAUCAssoc@1@@Z 0047cdd0 f i Dialog_Repair.obj
 0001:0007be80       ?GetAssocAt@?$CMap@HHPAVITEM_ME@@AAPAV1@@@IBEPAUCAssoc@1@HAAI@Z 0047ce80 f i Dialog_Repair.obj
 0001:0007bf20       ?DestructElements@@YGXPAPAVITEM_ME@@H@Z 0047cf20 f i Dialog_Repair.obj
 0001:0007bfa0       ?SerializeElements@@YGXAAVCArchive@@PAPAVITEM_ME@@H@Z 0047cfa0 f i Dialog_Repair.obj
 0001:0007c040       ?DumpElements@@YGXAAVCDumpContext@@PBQAVITEM_ME@@H@Z 0047d040 f i Dialog_Repair.obj
 0001:0007c0a0       ?ConstructElements@@YGXPAPAVITEM_ME@@H@Z 0047d0a0 f i Dialog_Repair.obj
 0001:0007c150       ??0CDialog_Shop@@QAE@XZ    0047d150 f   Dialog_Shop.obj
 0001:0007c260       ??_GCDialog_Shop@@UAEPAXI@Z 0047d260 f i Dialog_Shop.obj
 0001:0007c260       ??_ECDialog_Shop@@UAEPAXI@Z 0047d260 f i Dialog_Shop.obj
 0001:0007c2c0       ??0?$CTypedPtrArray@VCPtrArray@@PAVITEM_ME@@@@QAE@XZ 0047d2c0 f i Dialog_Shop.obj
 0001:0007c310       ??1?$CTypedPtrArray@VCPtrArray@@PAVITEM_ME@@@@UAE@XZ 0047d310 f i Dialog_Shop.obj
 0001:0007c350       ??0?$CTypedPtrArray@VCPtrArray@@PAVITEM_SHOP@@@@QAE@XZ 0047d350 f i Dialog_Shop.obj
 0001:0007c3a0       ??_G?$CTypedPtrArray@VCPtrArray@@PAVITEM_ME@@@@UAEPAXI@Z 0047d3a0 f i Dialog_Shop.obj
 0001:0007c3a0       ??_E?$CTypedPtrArray@VCPtrArray@@PAVITEM_ME@@@@UAEPAXI@Z 0047d3a0 f i Dialog_Shop.obj
 0001:0007c3f0       ??_G?$CTypedPtrArray@VCPtrArray@@PAVITEM_SHOP@@@@UAEPAXI@Z 0047d3f0 f i Dialog_Shop.obj
 0001:0007c3f0       ??_E?$CTypedPtrArray@VCPtrArray@@PAVITEM_SHOP@@@@UAEPAXI@Z 0047d3f0 f i Dialog_Shop.obj
 0001:0007c440       ??1?$CTypedPtrArray@VCPtrArray@@PAVITEM_SHOP@@@@UAE@XZ 0047d440 f i Dialog_Shop.obj
 0001:0007c480       ??1CDialog_Shop@@UAE@XZ    0047d480 f   Dialog_Shop.obj
 0001:0007c610       ?ShopSendSell@CDialog_Shop@@QAEXH@Z 0047d610 f   Dialog_Shop.obj
 0001:0007c6f0       ?ShopSendBuy@CDialog_Shop@@QAEXXZ 0047d6f0 f   Dialog_Shop.obj
 0001:0007c7e0       ?OnButtonAction@CDialog_Shop@@UAEHHH@Z 0047d7e0 f   Dialog_Shop.obj
 0001:0007ca60       ?Draw@CDialog_Shop@@UAEHPAVCDDSurface@@@Z 0047da60 f   Dialog_Shop.obj
 0001:0007e780       ?ShowWindow@CDialog_Shop@@UAEXXZ 0047f780 f   Dialog_Shop.obj
 0001:0007e840       ?HideWindow@CDialog_Shop@@UAEXXZ 0047f840 f   Dialog_Shop.obj
 0001:0007e890       ?HideAllWindow@CDialog_Shop@@UAEXXZ 0047f890 f   Dialog_Shop.obj
 0001:0007e8f0       ?DeleteContents@CDialog_Shop@@QAEXXZ 0047f8f0 f   Dialog_Shop.obj
 0001:0007ea10       ??_GITEM_SHOP@@QAEPAXI@Z   0047fa10 f i Dialog_Shop.obj
 0001:0007ea70       ??1ITEM_SHOP@@QAE@XZ       0047fa70 f i Dialog_Shop.obj
 0001:0007eaf0       ?RefreshData@CDialog_Shop@@QAEXXZ 0047faf0 f   Dialog_Shop.obj
 0001:0007ef60       ?ShopOpen@CDialog_Shop@@QAEXPAE@Z 0047ff60 f   Dialog_Shop.obj
 0001:0007f440       ??0ITEM_SHOP@@QAE@XZ       00480440 f i Dialog_Shop.obj
 0001:0007f550       ?Create@CDialog_Shop@@UAEHPAVCDirectDraw@@VCString@@HHHH@Z 00480550 f   Dialog_Shop.obj
 0001:0007f7c0       ?InitData@CDialog_Shop@@QAEXXZ 004807c0 f   Dialog_Shop.obj
 0001:0007f830       ?SetScrollData@CDialog_Shop@@QAEXXZ 00480830 f   Dialog_Shop.obj
 0001:0007f900       ?OnLButtonDown@CDialog_Shop@@UAEHPAVBBDX_MouseInformation@@@Z 00480900 f   Dialog_Shop.obj
 0001:0007f9b0       ?OnLButtonUp@CDialog_Shop@@UAEHPAVBBDX_MouseInformation@@@Z 004809b0 f   Dialog_Shop.obj
 0001:0007fa30       ?OnMouseMove@CDialog_Shop@@UAEHPAVBBDX_MouseInformation@@@Z 00480a30 f   Dialog_Shop.obj
 0001:0007fb70       ?DrawTipRect@CDialog_Shop@@QAEXPAVCDDSurface@@AAVCRect@@H@Z 00480b70 f   Dialog_Shop.obj
 0001:00080020       ?ViewCaption@CDialog_Shop@@QAEXPAVCDDSurface@@VCPoint@@VCString@@H@Z 00481020 f   Dialog_Shop.obj
 0001:00080240       ?CallBack_MessageBox@CDialog_Shop@@UAEXHH@Z 00481240 f   Dialog_Shop.obj
 0001:00080300       ?Add@?$CTypedPtrArray@VCPtrArray@@PAVITEM_ME@@@@QAEHPAVITEM_ME@@@Z 00481300 f i Dialog_Shop.obj
 0001:00080340       ??A?$CTypedPtrArray@VCPtrArray@@PAVITEM_ME@@@@QAEAAPAVITEM_ME@@H@Z 00481340 f i Dialog_Shop.obj
 0001:00080380       ?Add@?$CTypedPtrArray@VCPtrArray@@PAVITEM_SHOP@@@@QAEHPAVITEM_SHOP@@@Z 00481380 f i Dialog_Shop.obj
 0001:000803c0       ??A?$CTypedPtrArray@VCPtrArray@@PAVITEM_SHOP@@@@QAEAAPAVITEM_SHOP@@H@Z 004813c0 f i Dialog_Shop.obj
 0001:00080400       ??0CDialog_SmallMain@@QAE@XZ 00481400 f   Dialog_SmallMain.obj
 0001:000804c0       ??_GCDialog_SmallMain@@UAEPAXI@Z 004814c0 f i Dialog_SmallMain.obj
 0001:000804c0       ??_ECDialog_SmallMain@@UAEPAXI@Z 004814c0 f i Dialog_SmallMain.obj
 0001:00080520       ??1CDialog_SmallMain@@UAE@XZ 00481520 f   Dialog_SmallMain.obj
 0001:00080600       ?InitData@CDialog_SmallMain@@QAEXXZ 00481600 f   Dialog_SmallMain.obj
 0001:00080640       ?Draw@CDialog_SmallMain@@UAEHPAVCDDSurface@@@Z 00481640 f   Dialog_SmallMain.obj
 0001:00080a60       ?OnMouseMove@CDialog_SmallMain@@UAEHPAVBBDX_MouseInformation@@@Z 00481a60 f   Dialog_SmallMain.obj
 0001:00080c70       ?MouseProcess@CDialog_SmallMain@@UAEHPAVBBDX_MouseInformation@@@Z 00481c70 f   Dialog_SmallMain.obj
 0001:00080da0       ?Create@CDialog_SmallMain@@UAEHPAVCDirectDraw@@VCString@@HHHH@Z 00481da0 f   Dialog_SmallMain.obj
 0001:00080f10       ?DrawTipRect@CDialog_SmallMain@@QAEXPAVCDDSurface@@AAVCRect@@V3@H@Z 00481f10 f   Dialog_SmallMain.obj
 0001:00081450       ?ViewCaption@CDialog_SmallMain@@QAEXPAVCDDSurface@@VCRect@@VCString@@H@Z 00482450 f   Dialog_SmallMain.obj
 0001:00081670       ??0CDialog_SpecialMagic@@QAE@PAVCWnd@@@Z 00482670 f   Dialog_SpecialMagic.obj
 0001:00081740       ??_GCDialog_SpecialMagic@@UAEPAXI@Z 00482740 f i Dialog_SpecialMagic.obj
 0001:00081740       ??_ECDialog_SpecialMagic@@UAEPAXI@Z 00482740 f i Dialog_SpecialMagic.obj
 0001:000817a0       ??1CDialog_SpecialMagic@@UAE@XZ 004827a0 f   Dialog_SpecialMagic.obj
 0001:000818b0       ?Create@CDialog_SpecialMagic@@UAEHPAVCDirectDraw@@VCString@@HHHH@Z 004828b0 f   Dialog_SpecialMagic.obj
 0001:00081a90       ?Draw@CDialog_SpecialMagic@@UAEHPAVCDDSurface@@@Z 00482a90 f   Dialog_SpecialMagic.obj
 0001:00081f50       ?DragDraw@CDialog_SpecialMagic@@UAEHPAVCDDSurface@@@Z 00482f50 f   Dialog_SpecialMagic.obj
 0001:000820a0       ?OnButtonAction@CDialog_SpecialMagic@@UAEHHH@Z 004830a0 f   Dialog_SpecialMagic.obj
 0001:000821e0       ?SetScrollData@CDialog_SpecialMagic@@QAEXXZ 004831e0 f   Dialog_SpecialMagic.obj
 0001:00082280       ?InitData@CDialog_SpecialMagic@@QAEXXZ 00483280 f   Dialog_SpecialMagic.obj
 0001:000822d0       ?OnLButtonDown@CDialog_SpecialMagic@@UAEHPAVBBDX_MouseInformation@@@Z 004832d0 f   Dialog_SpecialMagic.obj
 0001:00082490       ?OnMouseMove@CDialog_SpecialMagic@@UAEHPAVBBDX_MouseInformation@@@Z 00483490 f   Dialog_SpecialMagic.obj
 0001:000824f0       ?OnLButtonUp@CDialog_SpecialMagic@@UAEHPAVBBDX_MouseInformation@@@Z 004834f0 f   Dialog_SpecialMagic.obj
 0001:00082640       ?ShowWindow@CDialog_SpecialMagic@@UAEXXZ 00483640 f   Dialog_SpecialMagic.obj
 0001:00082720       ?HideWindow@CDialog_SpecialMagic@@UAEXXZ 00483720 f   Dialog_SpecialMagic.obj
 0001:00082760       ?HideAllWindow@CDialog_SpecialMagic@@UAEXXZ 00483760 f   Dialog_SpecialMagic.obj
 0001:000827a0       ?OnKeyDown@CDialog_SpecialMagic@@UAEHIII@Z 004837a0 f   Dialog_SpecialMagic.obj
 0001:000827f0       ??0CDialog_Status@@QAE@XZ  004837f0 f   Dialog_Status.obj
 0001:00082850       ??_GCDialog_Status@@UAEPAXI@Z 00483850 f i Dialog_Status.obj
 0001:00082850       ??_ECDialog_Status@@UAEPAXI@Z 00483850 f i Dialog_Status.obj
 0001:000828b0       ??1CDialog_Status@@UAE@XZ  004838b0 f   Dialog_Status.obj
 0001:00082970       ?Draw@CDialog_Status@@UAEHPAVCDDSurface@@@Z 00483970 f   Dialog_Status.obj
 0001:00083e00       ?OnButtonAction@CDialog_Status@@UAEHHH@Z 00484e00 f   Dialog_Status.obj
 0001:00083e70       ?Create@CDialog_Status@@UAEHPAVCDirectDraw@@VCString@@HHHH@Z 00484e70 f   Dialog_Status.obj
 0001:00083fc0       ?OnLButtonDown@CDialog_Status@@UAEHPAVBBDX_MouseInformation@@@Z 00484fc0 f   Dialog_Status.obj
 0001:00084000       ?OnLButtonUp@CDialog_Status@@UAEHPAVBBDX_MouseInformation@@@Z 00485000 f   Dialog_Status.obj
 0001:00084040       ?OnMouseMove@CDialog_Status@@UAEHPAVBBDX_MouseInformation@@@Z 00485040 f   Dialog_Status.obj
 0001:00084080       ?MouseProcess@CDialog_Status@@UAEHPAVBBDX_MouseInformation@@@Z 00485080 f   Dialog_Status.obj
 0001:000841a0       ?ShowWindow@CDialog_Status@@UAEXXZ 004851a0 f   Dialog_Status.obj
 0001:00084250       ?HideWindow@CDialog_Status@@UAEXXZ 00485250 f   Dialog_Status.obj
 0001:000842a0       ?HideAllWindow@CDialog_Status@@UAEXXZ 004852a0 f   Dialog_Status.obj
 0001:000842e0       ??0CDialog_Storage@@QAE@XZ 004852e0 f   Dialog_Storage.obj
 0001:000843d0       ??_ECDialog_Storage@@UAEPAXI@Z 004853d0 f i Dialog_Storage.obj
 0001:000843d0       ??_GCDialog_Storage@@UAEPAXI@Z 004853d0 f i Dialog_Storage.obj
 0001:00084430       ??0?$CTypedPtrArray@VCPtrArray@@PAVITEM_STORAGE@@@@QAE@XZ 00485430 f i Dialog_Storage.obj
 0001:00084480       ??_E?$CTypedPtrArray@VCPtrArray@@PAVITEM_STORAGE@@@@UAEPAXI@Z 00485480 f i Dialog_Storage.obj
 0001:00084480       ??_G?$CTypedPtrArray@VCPtrArray@@PAVITEM_STORAGE@@@@UAEPAXI@Z 00485480 f i Dialog_Storage.obj
 0001:000844d0       ??1?$CTypedPtrArray@VCPtrArray@@PAVITEM_STORAGE@@@@UAE@XZ 004854d0 f i Dialog_Storage.obj
 0001:00084510       ??1CDialog_Storage@@UAE@XZ 00485510 f   Dialog_Storage.obj
 0001:000846a0       ?SendToStorage@CDialog_Storage@@QAEXF@Z 004856a0 f   Dialog_Storage.obj
 0001:00084780       ?GetFromStorage@CDialog_Storage@@QAEXF@Z 00485780 f   Dialog_Storage.obj
 0001:00084860       ?DepositMoney@CDialog_Storage@@QAEXK@Z 00485860 f   Dialog_Storage.obj
 0001:000848e0       ?DrawMoney@CDialog_Storage@@QAEXK@Z 004858e0 f   Dialog_Storage.obj
 0001:00084960       ?OnButtonAction@CDialog_Storage@@UAEHHH@Z 00485960 f   Dialog_Storage.obj
 0001:00084c80       ?Draw@CDialog_Storage@@UAEHPAVCDDSurface@@@Z 00485c80 f   Dialog_Storage.obj
 0001:00086860       ?ShowWindow@CDialog_Storage@@UAEXXZ 00487860 f   Dialog_Storage.obj
 0001:00086940       ?SetWnd@CDialog_Storage@@QAEXPAVCWnd@@@Z 00487940 f i Dialog_Storage.obj
 0001:00086980       ?HideWindow@CDialog_Storage@@UAEXXZ 00487980 f   Dialog_Storage.obj
 0001:000869d0       ?HideAllWindow@CDialog_Storage@@UAEXXZ 004879d0 f   Dialog_Storage.obj
 0001:00086a20       ?DeleteContents@CDialog_Storage@@QAEXXZ 00487a20 f   Dialog_Storage.obj
 0001:00086b40       ??_GITEM_STORAGE@@QAEPAXI@Z 00487b40 f i Dialog_Storage.obj
 0001:00086ba0       ??1ITEM_STORAGE@@QAE@XZ    00487ba0 f i Dialog_Storage.obj
 0001:00086c20       ?RefreshData@CDialog_Storage@@QAEXXZ 00487c20 f   Dialog_Storage.obj
 0001:00086f90       ?StorageOpen@CDialog_Storage@@QAEXPAE@Z 00487f90 f   Dialog_Storage.obj
 0001:00087410       ??0ITEM_STORAGE@@QAE@XZ    00488410 f i Dialog_Storage.obj
 0001:00087520       ?SaveItemToStorage@CDialog_Storage@@QAEXPAE@Z 00488520 f   Dialog_Storage.obj
 0001:000879f0       ?TakebackItemFromStorage@CDialog_Storage@@QAEXPAE@Z 004889f0 f   Dialog_Storage.obj
 0001:00087fd0       ?SaveMoney@CDialog_Storage@@QAEXPAE@Z 00488fd0 f   Dialog_Storage.obj
 0001:00088060       ?TakebackMoney@CDialog_Storage@@QAEXPAE@Z 00489060 f   Dialog_Storage.obj
 0001:000880f0       ?Create@CDialog_Storage@@UAEHPAVCDirectDraw@@VCString@@HHHH@Z 004890f0 f   Dialog_Storage.obj
 0001:00088390       ?InitData@CDialog_Storage@@QAEXXZ 00489390 f   Dialog_Storage.obj
 0001:000883f0       ?SetScrollData@CDialog_Storage@@QAEXXZ 004893f0 f   Dialog_Storage.obj
 0001:000884c0       ?OnLButtonDown@CDialog_Storage@@UAEHPAVBBDX_MouseInformation@@@Z 004894c0 f   Dialog_Storage.obj
 0001:00088570       ?OnLButtonUp@CDialog_Storage@@UAEHPAVBBDX_MouseInformation@@@Z 00489570 f   Dialog_Storage.obj
 0001:000885f0       ?OnMouseMove@CDialog_Storage@@UAEHPAVBBDX_MouseInformation@@@Z 004895f0 f   Dialog_Storage.obj
 0001:00088790       ?MouseProcess@CDialog_Storage@@UAEHPAVBBDX_MouseInformation@@@Z 00489790 f   Dialog_Storage.obj
 0001:000888b0       ?CallBack_MessageBox@CDialog_Storage@@UAEXHH@Z 004898b0 f   Dialog_Storage.obj
 0001:00088b20       ?DrawTipRect@CDialog_Storage@@QAEXPAVCDDSurface@@AAVCRect@@H@Z 00489b20 f   Dialog_Storage.obj
 0001:00088fd0       ?ViewCaption@CDialog_Storage@@QAEXPAVCDDSurface@@VCPoint@@VCString@@H@Z 00489fd0 f   Dialog_Storage.obj
 0001:000891f0       ?Add@?$CTypedPtrArray@VCPtrArray@@PAVITEM_STORAGE@@@@QAEHPAVITEM_STORAGE@@@Z 0048a1f0 f i Dialog_Storage.obj
 0001:00089230       ??A?$CTypedPtrArray@VCPtrArray@@PAVITEM_STORAGE@@@@QAEAAPAVITEM_STORAGE@@H@Z 0048a230 f i Dialog_Storage.obj
 0001:00089270       ??0CDialog_TaxRate@@QAE@XZ 0048a270 f   Dialog_TaxRate.obj
 0001:000892d0       ??_ECDialog_TaxRate@@UAEPAXI@Z 0048a2d0 f i Dialog_TaxRate.obj
 0001:000892d0       ??_GCDialog_TaxRate@@UAEPAXI@Z 0048a2d0 f i Dialog_TaxRate.obj
 0001:00089330       ??1CDialog_TaxRate@@UAE@XZ 0048a330 f   Dialog_TaxRate.obj
 0001:00089370       ?OnButtonAction@CDialog_TaxRate@@UAEHHH@Z 0048a370 f   Dialog_TaxRate.obj
 0001:000895c0       ?Draw@CDialog_TaxRate@@UAEHPAVCDDSurface@@@Z 0048a5c0 f   Dialog_TaxRate.obj
 0001:00089650       ?Create@CDialog_TaxRate@@UAEHPAVCDirectDraw@@VCString@@HHHH@Z 0048a650 f   Dialog_TaxRate.obj
 0001:000897e0       ?ShowWindow@CDialog_TaxRate@@QAEXHPAVCUIRes@@@Z 0048a7e0 f   Dialog_TaxRate.obj
 0001:00089940       ?SetWnd@CDialog_TaxRate@@QAEXPAVCWnd@@@Z 0048a940 f i Dialog_TaxRate.obj
 0001:00089980       ?OnKeyDown@CDialog_TaxRate@@UAEHIII@Z 0048a980 f   Dialog_TaxRate.obj
 0001:00089bd0       ?HideWindow@CDialog_TaxRate@@UAEXXZ 0048abd0 f   Dialog_TaxRate.obj
 0001:00089c80       ?HideAllWindow@CDialog_TaxRate@@UAEXXZ 0048ac80 f   Dialog_TaxRate.obj
 0001:00089d00       ?SetTaxRate@CDialog_TaxRate@@QAEXH@Z 0048ad00 f   Dialog_TaxRate.obj
 0001:00089da0       ??0CDialog_WhiteMagic@@QAE@PAVCWnd@@@Z 0048ada0 f   Dialog_WhiteMagic.obj
 0001:00089e70       ??_GCDialog_WhiteMagic@@UAEPAXI@Z 0048ae70 f i Dialog_WhiteMagic.obj
 0001:00089e70       ??_ECDialog_WhiteMagic@@UAEPAXI@Z 0048ae70 f i Dialog_WhiteMagic.obj
 0001:00089ed0       ??1CDialog_WhiteMagic@@UAE@XZ 0048aed0 f   Dialog_WhiteMagic.obj
 0001:00089fe0       ?Create@CDialog_WhiteMagic@@UAEHPAVCDirectDraw@@VCString@@HHHH@Z 0048afe0 f   Dialog_WhiteMagic.obj
 0001:0008a1c0       ?Draw@CDialog_WhiteMagic@@UAEHPAVCDDSurface@@@Z 0048b1c0 f   Dialog_WhiteMagic.obj
 0001:0008a660       ?DragDraw@CDialog_WhiteMagic@@UAEHPAVCDDSurface@@@Z 0048b660 f   Dialog_WhiteMagic.obj
 0001:0008a7b0       ?OnButtonAction@CDialog_WhiteMagic@@UAEHHH@Z 0048b7b0 f   Dialog_WhiteMagic.obj
 0001:0008a8d0       ?SetScrollData@CDialog_WhiteMagic@@QAEXXZ 0048b8d0 f   Dialog_WhiteMagic.obj
 0001:0008a980       ?InitData@CDialog_WhiteMagic@@QAEXXZ 0048b980 f   Dialog_WhiteMagic.obj
 0001:0008a9d0       ?OnLButtonDown@CDialog_WhiteMagic@@UAEHPAVBBDX_MouseInformation@@@Z 0048b9d0 f   Dialog_WhiteMagic.obj
 0001:0008ab90       ?OnMouseMove@CDialog_WhiteMagic@@UAEHPAVBBDX_MouseInformation@@@Z 0048bb90 f   Dialog_WhiteMagic.obj
 0001:0008abf0       ?OnLButtonUp@CDialog_WhiteMagic@@UAEHPAVBBDX_MouseInformation@@@Z 0048bbf0 f   Dialog_WhiteMagic.obj
 0001:0008ad40       ?ShowWindow@CDialog_WhiteMagic@@UAEXXZ 0048bd40 f   Dialog_WhiteMagic.obj
 0001:0008adf0       ?HideWindow@CDialog_WhiteMagic@@UAEXXZ 0048bdf0 f   Dialog_WhiteMagic.obj
 0001:0008ae30       ?HideAllWindow@CDialog_WhiteMagic@@UAEXXZ 0048be30 f   Dialog_WhiteMagic.obj
 0001:0008ae70       ?OnKeyDown@CDialog_WhiteMagic@@UAEHIII@Z 0048be70 f   Dialog_WhiteMagic.obj
 0001:0008aec0       ??0CDialogManager@@QAE@XZ  0048bec0 f   DialogManager.obj
 0001:0008bc80       ??_GCDialogManager@@UAEPAXI@Z 0048cc80 f i DialogManager.obj
 0001:0008bc80       ??_ECDialogManager@@UAEPAXI@Z 0048cc80 f i DialogManager.obj
 0001:0008bce0       ??0?$CTypedPtrArray@VCPtrArray@@PAVCUIRes@@@@QAE@XZ 0048cce0 f i DialogManager.obj
 0001:0008bd30       ??1?$CTypedPtrArray@VCPtrArray@@PAVCUIRes@@@@UAE@XZ 0048cd30 f i DialogManager.obj
 0001:0008bd70       ??_E?$CTypedPtrArray@VCPtrArray@@PAVCUIRes@@@@UAEPAXI@Z 0048cd70 f i DialogManager.obj
 0001:0008bd70       ??_G?$CTypedPtrArray@VCPtrArray@@PAVCUIRes@@@@UAEPAXI@Z 0048cd70 f i DialogManager.obj
 0001:0008bdc0       ??1CDialogManager@@UAE@XZ  0048cdc0 f   DialogManager.obj
 0001:0008c920       ?InitData@CDialogManager@@QAEHPAVCChildView@@@Z 0048d920 f   DialogManager.obj
 0001:0008c960       ?SetFocus@CDialogManager@@QAEXPAVCUIRes@@@Z 0048d960 f   DialogManager.obj
 0001:0008ca20       ?AddDialog@CDialogManager@@QAEXPAVCUIRes@@@Z 0048da20 f   DialogManager.obj
 0001:0008ca70       ?DelDialog@CDialogManager@@QAEXXZ 0048da70 f   DialogManager.obj
 0001:0008cb10       ?Draw@CDialogManager@@QAEXPAVCDDSurface@@@Z 0048db10 f   DialogManager.obj
 0001:0008cba0       ?MouseProcess@CDialogManager@@QAEHPAVBBDX_MouseInformation@@@Z 0048dba0 f   DialogManager.obj
 0001:0008cc80       ?Add@?$CTypedPtrArray@VCPtrArray@@PAVCUIRes@@@@QAEHPAVCUIRes@@@Z 0048dc80 f i DialogManager.obj
 0001:0008ccc0       ??A?$CTypedPtrArray@VCPtrArray@@PAVCUIRes@@@@QAEAAPAVCUIRes@@H@Z 0048dcc0 f i DialogManager.obj
 0001:0008cd00       ??0DirectXMng@@QAE@XZ      0048dd00 f   DirectXMng.obj
 0001:0008ce10       ??_GDirectXMng@@UAEPAXI@Z  0048de10 f i DirectXMng.obj
 0001:0008ce10       ??_EDirectXMng@@UAEPAXI@Z  0048de10 f i DirectXMng.obj
 0001:0008ce70       ??1DirectXMng@@UAE@XZ      0048de70 f   DirectXMng.obj
 0001:0008cf40       ?SetGammaRate@DirectXMng@@QAEXJ@Z 0048df40 f   DirectXMng.obj
 0001:0008d100       ?SetInHouseGammaRate@DirectXMng@@QAEXXZ 0048e100 f   DirectXMng.obj
 0001:0008d2a0       ?SetRainGammaRate@DirectXMng@@QAEXH@Z 0048e2a0 f   DirectXMng.obj
 0001:0008d470       ?GetVGAName@DirectXMng@@QAEXXZ 0048e470 f   DirectXMng.obj
 0001:0008d590       ?InitMask@DirectXMng@@QAEHXZ 0048e590 f   DirectXMng.obj
 0001:0008d750       ?InitDirectX@DirectXMng@@QAEHHHHH@Z 0048e750 f   DirectXMng.obj
 0001:0008e1c0       ??_ECDirectDraw@@UAEPAXI@Z 0048f1c0 f i DirectXMng.obj
 0001:0008e1c0       ??_GCDirectDraw@@UAEPAXI@Z 0048f1c0 f i DirectXMng.obj
 0001:0008e220       ??_GCDirectInput@@UAEPAXI@Z 0048f220 f i DirectXMng.obj
 0001:0008e220       ??_ECDirectInput@@UAEPAXI@Z 0048f220 f i DirectXMng.obj
 0001:0008e280       ??_GBBDX_MouseInformation@@UAEPAXI@Z 0048f280 f i DirectXMng.obj
 0001:0008e280       ??_EBBDX_MouseInformation@@UAEPAXI@Z 0048f280 f i DirectXMng.obj
 0001:0008e2e0       ??_ECDirect3D@@UAEPAXI@Z   0048f2e0 f i DirectXMng.obj
 0001:0008e2e0       ??_GCDirect3D@@UAEPAXI@Z   0048f2e0 f i DirectXMng.obj
 0001:0008e340       ??_GCNight@@UAEPAXI@Z      0048f340 f i DirectXMng.obj
 0001:0008e340       ??_ECNight@@UAEPAXI@Z      0048f340 f i DirectXMng.obj
 0001:0008e3a0       ??_GCDirectSound@@UAEPAXI@Z 0048f3a0 f i DirectXMng.obj
 0001:0008e3a0       ??_ECDirectSound@@UAEPAXI@Z 0048f3a0 f i DirectXMng.obj
 0001:0008e400       ?ReleaseDirectX@DirectXMng@@QAEHXZ 0048f400 f   DirectXMng.obj
 0001:0008e700       ?RestoreSurface@DirectXMng@@QAEXXZ 0048f700 f   DirectXMng.obj
 0001:0008e7c0       ?MouseInfoUpdate@DirectXMng@@QAEHXZ 0048f7c0 f   DirectXMng.obj
 0001:0008e820       ?Flip@DirectXMng@@QAEXXZ   0048f820 f   DirectXMng.obj
 0001:0008e990       ?DrawCursor@DirectXMng@@QAEXXZ 0048f990 f   DirectXMng.obj
 0001:0008ea00       ?GetMousePos@DirectXMng@@QAEAAVCPoint@@XZ 0048fa00 f   DirectXMng.obj
 0001:0008eab0       ??0CDlgLogin@@QAE@PAVCWnd@@@Z 0048fab0 f   DlgLogin.obj
 0001:0008eba0       ??_ECDlgLogin@@UAEPAXI@Z   0048fba0 f i DlgLogin.obj
 0001:0008eba0       ??_GCDlgLogin@@UAEPAXI@Z   0048fba0 f i DlgLogin.obj
 0001:0008ebf0       ??1CDlgLogin@@UAE@XZ       0048fbf0 f i DlgLogin.obj
 0001:0008ec80       ?DoDataExchange@CDlgLogin@@MAEXPAVCDataExchange@@@Z 0048fc80 f   DlgLogin.obj
 0001:0008ed50       ?_GetBaseMessageMap@CDlgLogin@@KGPBUAFX_MSGMAP@@XZ 0048fd50 f   DlgLogin.obj
 0001:0008ed80       ?GetMessageMap@CDlgLogin@@MBEPBUAFX_MSGMAP@@XZ 0048fd80 f   DlgLogin.obj
 0001:0008edb0       ?OnOK@CDlgLogin@@MAEXXZ    0048fdb0 f   DlgLogin.obj
 0001:0008ee20       ?OnCancel@CDlgLogin@@MAEXXZ 0048fe20 f   DlgLogin.obj
 0001:0008ee60       ??0CDxCursor@@QAE@XZ       0048fe60 f   DxCursor.obj
 0001:0008ef10       ??_ECDxCursor@@UAEPAXI@Z   0048ff10 f i DxCursor.obj
 0001:0008ef10       ??_GCDxCursor@@UAEPAXI@Z   0048ff10 f i DxCursor.obj
 0001:0008ef70       ??1CDxCursor@@UAE@XZ       0048ff70 f   DxCursor.obj
 0001:0008efb0       ?RemoveAllData@CDxCursor@@QAEXXZ 0048ffb0 f   DxCursor.obj
 0001:0008f040       ?SetCursorIndex@CDxCursor@@QAEXH@Z 00490040 f   DxCursor.obj
 0001:0008f090       ?Draw@CDxCursor@@QAEXPAVCDDSurface@@VCPoint@@@Z 00490090 f   DxCursor.obj
 0001:0008f230       ?InitCursor@CDxCursor@@QAEXXZ 00490230 f   DxCursor.obj
 0001:0008f6a0       ?BltLSPNormal@CDxCursor@@QAEXPAVCDDSurface@@HHPAUtagRECT@@PAG@Z 004906a0 f   DxCursor.obj
 0001:0008fb80       ?PutPixelNormal@CUser@@SAXPBG0H@Z 00490b80 f i DxCursor.obj
 0001:0008fce0       ??0CFogEffect@@QAE@XZ      00490ce0 f   FogEffect.obj
 0001:0008fd20       ??_ECFogEffect@@UAEPAXI@Z  00490d20 f i FogEffect.obj
 0001:0008fd20       ??_GCFogEffect@@UAEPAXI@Z  00490d20 f i FogEffect.obj
 0001:0008fd80       ??1CFogEffect@@UAE@XZ      00490d80 f   FogEffect.obj
 0001:0008fe10       ?InitData@CFogEffect@@QAEXPAVCDirectDraw@@@Z 00490e10 f   FogEffect.obj
 0001:0008fed0       ?test@CFogEffect@@QAEXPAVCDDSurface@@@Z 00490ed0 f   FogEffect.obj
 0001:0008ff20       ?test2@CFogEffect@@QAEXPAVCDirectDraw@@@Z 00490f20 f   FogEffect.obj
 0001:0008ff70       ?Load_Fog_image@CFogEffect@@QAEXXZ 00490f70 f   FogEffect.obj
 0001:0008ffa0       ?Draw@CFogEffect@@QAEXPAVCDDSurface@@@Z 00490fa0 f   FogEffect.obj
 0001:00090060       ??0CGdiFont@@QAE@XZ        00491060 f   GdiFont.obj
 0001:000900a0       ??_ECGdiFont@@UAEPAXI@Z    004910a0 f i GdiFont.obj
 0001:000900a0       ??_GCGdiFont@@UAEPAXI@Z    004910a0 f i GdiFont.obj
 0001:00090100       ??1CGdiFont@@UAE@XZ        00491100 f   GdiFont.obj
 0001:00090140       ?DeleteFont@CGdiFont@@QAEXXZ 00491140 f   GdiFont.obj
 0001:000901d0       ?CreateFontA@CGdiFont@@QAEHVCString@@H@Z 004911d0 f   GdiFont.obj
 0001:00090330       ?TextOutA@CGdiFont@@QAEXAAVCDC@@VCPoint@@PBDKI@Z 00491330 f   GdiFont.obj
 0001:000903c0       ?TextOutClip@CGdiFont@@QAEHAAVCDC@@VCRect@@PBDKHHHH@Z 004913c0 f   GdiFont.obj
 0001:00090490       ??0CHouse@@QAE@XZ          00491490 f   House.obj
 0001:00090540       ??_GCHouse@@UAEPAXI@Z      00491540 f i House.obj
 0001:00090540       ??_ECHouse@@UAEPAXI@Z      00491540 f i House.obj
 0001:000905a0       ??1CHouse@@UAE@XZ          004915a0 f   House.obj
 0001:000905d0       ?FrameRate@CHouse@@QAEXXZ  004915d0 f   House.obj
 0001:000906a0       ?SetTransStep@CHouse@@QAEXXZ 004916a0 f   House.obj
 0001:00090710       ?SetHouseIndex@CHouse@@QAEXH@Z 00491710 f   House.obj
 0001:000907e0       ?TransDegree@CHouse@@QAEHXZ 004917e0 f   House.obj
 0001:00090890       ??0HOUSECELL@@QAE@XZ       00491890 f   HouseInfo.obj
 0001:000908d0       ??1HOUSECELL@@UAE@XZ       004918d0 f   HouseInfo.obj
 0001:00090900       ??4HOUSECELL@@QAEAAV0@AAV0@@Z 00491900 f   HouseInfo.obj
 0001:00090950       ??0CHouseInfo@@QAE@XZ      00491950 f   HouseInfo.obj
 0001:000909c0       ??_GCHouseInfo@@UAEPAXI@Z  004919c0 f i HouseInfo.obj
 0001:000909c0       ??_ECHouseInfo@@UAEPAXI@Z  004919c0 f i HouseInfo.obj
 0001:00090a20       ??1CHouseInfo@@UAE@XZ      00491a20 f   HouseInfo.obj
 0001:00090a60       ?DeleteData@CHouseInfo@@QAEXXZ 00491a60 f   HouseInfo.obj
 0001:00090b30       ?Initialize@CHouseInfo@@QAEXHH@Z 00491b30 f   HouseInfo.obj
 0001:00090c90       ??_EHOUSECELL@@UAEPAXI@Z   00491c90 f i HouseInfo.obj
 0001:00090d30       ?Initialize@CHouseInfo@@QAEXVCSize@@@Z 00491d30 f   HouseInfo.obj
 0001:00090d70       ?SetCellInfo@CHouseInfo@@QAEHHHVHOUSECELL@@@Z 00491d70 f   HouseInfo.obj
 0001:00090e40       ?SetCellInfo@CHouseInfo@@QAEXPAUtagPOINT@@VHOUSECELL@@@Z 00491e40 f   HouseInfo.obj
 0001:00090f50       ??0HOUSECELL@@QAE@ABV0@@Z  00491f50 f i HouseInfo.obj
 0001:00090fa0       ?GetCellInfo@CHouseInfo@@QAEPAVHOUSECELL@@HH@Z 00491fa0 f   HouseInfo.obj
 0001:00091000       ?GetCellInfo@CHouseInfo@@QAEPAVHOUSECELL@@VCPoint@@@Z 00492000 f   HouseInfo.obj
 0001:00091040       ?SetMoveInfo@CHouseInfo@@QAEHHHD@Z 00492040 f   HouseInfo.obj
 0001:000910b0       ?SetMoveInfo@CHouseInfo@@QAEXPAUtagPOINT@@D@Z 004920b0 f   HouseInfo.obj
 0001:00091170       ?GetMoveInfo@CHouseInfo@@QAEDHH@Z 00492170 f   HouseInfo.obj
 0001:000911d0       ?GetMoveInfo@CHouseInfo@@QAEDVCPoint@@@Z 004921d0 f   HouseInfo.obj
 0001:00091210       ?SetInnerInfo@CHouseInfo@@QAEHHHD@Z 00492210 f   HouseInfo.obj
 0001:00091280       ?SetInnerInfo@CHouseInfo@@QAEXPAUtagPOINT@@D@Z 00492280 f   HouseInfo.obj
 0001:00091340       ?GetInnerInfo@CHouseInfo@@QAEDHH@Z 00492340 f   HouseInfo.obj
 0001:000913a0       ?GetInnerInfo@CHouseInfo@@QAEDVCPoint@@@Z 004923a0 f   HouseInfo.obj
 0001:000913e0       ?Save@CHouseInfo@@QAEXAAVCFile@@@Z 004923e0 f   HouseInfo.obj
 0001:00091550       ?Load@CHouseInfo@@QAEXAAVCFile@@@Z 00492550 f   HouseInfo.obj
 0001:000916e0       ?Save@_HOUSE_INFO_HEADER@@QAEXAAVCFile@@@Z 004926e0 f   HouseInfoManager.obj
 0001:00091770       ?Load@_HOUSE_INFO_HEADER@@QAEHAAVCFile@@@Z 00492770 f   HouseInfoManager.obj
 0001:00091820       ??0CHouseInfoManager@@QAE@XZ 00492820 f   HouseInfoManager.obj
 0001:000918a0       ??_GCHouseInfoManager@@UAEPAXI@Z 004928a0 f i HouseInfoManager.obj
 0001:000918a0       ??_ECHouseInfoManager@@UAEPAXI@Z 004928a0 f i HouseInfoManager.obj
 0001:00091900       ??1CHouseInfoManager@@UAE@XZ 00492900 f   HouseInfoManager.obj
 0001:00091980       ?SetHouse@CHouseInfoManager@@QAEXHHH@Z 00492980 f   HouseInfoManager.obj
 0001:00091a60       ?SetHouse@CHouseInfoManager@@QAEXHVCSize@@@Z 00492a60 f   HouseInfoManager.obj
 0001:00091b40       ?DeleteHouse@CHouseInfoManager@@QAEXH@Z 00492b40 f   HouseInfoManager.obj
 0001:00091bd0       ?DeleteAllHouse@CHouseInfoManager@@QAEXXZ 00492bd0 f   HouseInfoManager.obj
 0001:00091c70       ?Save@CHouseInfoManager@@QAEXVCString@@@Z 00492c70 f   HouseInfoManager.obj
 0001:00091d80       ?Load@CHouseInfoManager@@QAEXVCString@@@Z 00492d80 f   HouseInfoManager.obj
 0001:00091f50       ??0?$CMap@HHPAVCHouseInfo@@AAPAV1@@@QAE@H@Z 00492f50 f i HouseInfoManager.obj
 0001:00092020       ?GetCount@?$CMap@HHPAVCHouseInfo@@AAPAV1@@@QBEHXZ 00493020 f i HouseInfoManager.obj
 0001:00092050       ??A?$CMap@HHPAVCHouseInfo@@AAPAV1@@@QAEAAPAVCHouseInfo@@H@Z 00493050 f i HouseInfoManager.obj
 0001:00092110       ?RemoveKey@?$CMap@HHPAVCHouseInfo@@AAPAV1@@@QAEHH@Z 00493110 f i HouseInfoManager.obj
 0001:000921d0       ?RemoveAll@?$CMap@HHPAVCHouseInfo@@AAPAV1@@@QAEXXZ 004931d0 f i HouseInfoManager.obj
 0001:000922c0       ?GetStartPosition@?$CMap@HHPAVCHouseInfo@@AAPAV1@@@QBEPAU__POSITION@@XZ 004932c0 f i HouseInfoManager.obj
 0001:000922f0       ?GetNextAssoc@?$CMap@HHPAVCHouseInfo@@AAPAV1@@@QBEXAAPAU__POSITION@@AAHAAPAVCHouseInfo@@@Z 004932f0 f i HouseInfoManager.obj
 0001:00092470       ??1?$CMap@HHPAVCHouseInfo@@AAPAV1@@@UAE@XZ 00493470 f i HouseInfoManager.obj
 0001:00092510       ?Serialize@?$CMap@HHPAVCHouseInfo@@AAPAV1@@@UAEXAAVCArchive@@@Z 00493510 f i HouseInfoManager.obj
 0001:00092660       ?Dump@?$CMap@HHPAVCHouseInfo@@AAPAV1@@@UBEXAAVCDumpContext@@@Z 00493660 f i HouseInfoManager.obj
 0001:00092740       ?AssertValid@?$CMap@HHPAVCHouseInfo@@AAPAV1@@@UBEXXZ 00493740 f i HouseInfoManager.obj
 0001:000927d0       ??_E?$CMap@HHPAVCHouseInfo@@AAPAV1@@@UAEPAXI@Z 004937d0 f i HouseInfoManager.obj
 0001:000927d0       ??_G?$CMap@HHPAVCHouseInfo@@AAPAV1@@@UAEPAXI@Z 004937d0 f i HouseInfoManager.obj
 0001:00092820       ?SetAt@?$CMap@HHPAVCHouseInfo@@AAPAV1@@@QAEXHAAPAVCHouseInfo@@@Z 00493820 f i HouseInfoManager.obj
 0001:00092870       ?InitHashTable@?$CMap@HHPAVCHouseInfo@@AAPAV1@@@QAEXIH@Z 00493870 f i HouseInfoManager.obj
 0001:00092970       ?NewAssoc@?$CMap@HHPAVCHouseInfo@@AAPAV1@@@IAEPAUCAssoc@1@XZ 00493970 f i HouseInfoManager.obj
 0001:00092ab0       ?FreeAssoc@?$CMap@HHPAVCHouseInfo@@AAPAV1@@@IAEXPAUCAssoc@1@@Z 00493ab0 f i HouseInfoManager.obj
 0001:00092b60       ?DestructElements@@YGXPAPAVCHouseInfo@@H@Z 00493b60 f i HouseInfoManager.obj
 0001:00092be0       ?SerializeElements@@YGXAAVCArchive@@PAPAVCHouseInfo@@H@Z 00493be0 f i HouseInfoManager.obj
 0001:00092c80       ?DumpElements@@YGXAAVCDumpContext@@PBQAVCHouseInfo@@H@Z 00493c80 f i HouseInfoManager.obj
 0001:00092ce0       ?ConstructElements@@YGXPAPAVCHouseInfo@@H@Z 00493ce0 f i HouseInfoManager.obj
 0001:00092d90       ??0CHousePlaceManager@@QAE@XZ 00493d90 f   HousePlaceManager.obj
 0001:00092df0       ??_GCHousePlaceManager@@UAEPAXI@Z 00493df0 f i HousePlaceManager.obj
 0001:00092df0       ??_ECHousePlaceManager@@UAEPAXI@Z 00493df0 f i HousePlaceManager.obj
 0001:00092e50       ??1CHousePlaceManager@@UAE@XZ 00493e50 f   HousePlaceManager.obj
 0001:00092e90       ?DeleteHousePlace@CHousePlaceManager@@QAEXXZ 00493e90 f   HousePlaceManager.obj
 0001:00092f10       ?SetHousePlace@CHousePlaceManager@@QAEXPAE@Z 00493f10 f   HousePlaceManager.obj
 0001:00093140       ?PtInPlace@CHousePlaceManager@@QAEHVCPoint@@@Z 00494140 f   HousePlaceManager.obj
 0001:000931e0       ?SendHousePlace@CHousePlaceManager@@QAEXXZ 004941e0 f   HousePlaceManager.obj
 0001:00093300       ?RcvBuildHouse@CHousePlaceManager@@QAEXPAE@Z 00494300 f   HousePlaceManager.obj
 0001:000934b0       ??0CItem@@QAE@XZ           004944b0 f   Item.obj
 0001:000935c0       ??_GCItem@@UAEPAXI@Z       004945c0 f i Item.obj
 0001:000935c0       ??_ECItem@@UAEPAXI@Z       004945c0 f i Item.obj
 0001:00093620       ??1CItem@@UAE@XZ           00494620 f   Item.obj
 0001:00093760       ?InitData@CItem@@UAEXPAVCDirectDraw@@@Z 00494760 f   Item.obj
 0001:00093900       ?Load_image@CItem@@QAEXPBD@Z 00494900 f   Item.obj
 0001:00093a70       ?Draw@CItem@@UAEXPAVCDDSurface@@HHH@Z 00494a70 f   Item.obj
 0001:00093b50       ?Draw@CItem@@UAEXHHPAVCDDSurface@@HH@Z 00494b50 f   Item.obj
 0001:00093bd0       ?LoadSpr@CItem@@QAEXPBD@Z  00494bd0 f   Item.obj
 0001:00093dc0       ?MouseProcess@CItem@@UAEHPAVBBDX_MouseInformation@@H@Z 00494dc0 f   Item.obj
 0001:00093fd0       ?InMousePos@CItem@@QAEHVCPoint@@VCRect@@@Z 00494fd0 f   Item.obj
 0001:00094020       ?ViewItemBox@CItem@@QAEHHHHHPAVCDDSurface@@H@Z 00495020 f   Item.obj
 0001:00094130       ?Input@CItem@@QAEHHHHH@Z   00495130 f   Item.obj
 0001:000941c0       ?Output@CItem@@QAEHH@Z     004951c0 f   Item.obj
 0001:00094280       ?SetInv_Data@CItem@@QAEXXZ 00495280 f   Item.obj
 0001:000942b0       ?LoadObm@CItem@@QAEXPBD@Z  004952b0 f   Item.obj
 0001:00094400       ??0ITEM_FIELD@@QAE@XZ      00495400 f   Item_Field.obj
 0001:00094460       ??0?$CTypedPtrArray@VCPtrArray@@PAVITEM_PIECE@@@@QAE@XZ 00495460 f i Item_Field.obj
 0001:000944b0       ??_G?$CTypedPtrArray@VCPtrArray@@PAVITEM_PIECE@@@@UAEPAXI@Z 004954b0 f i Item_Field.obj
 0001:000944b0       ??_E?$CTypedPtrArray@VCPtrArray@@PAVITEM_PIECE@@@@UAEPAXI@Z 004954b0 f i Item_Field.obj
 0001:00094500       ??1?$CTypedPtrArray@VCPtrArray@@PAVITEM_PIECE@@@@UAE@XZ 00495500 f i Item_Field.obj
 0001:00094540       ??1ITEM_FIELD@@QAE@XZ      00495540 f   Item_Field.obj
 0001:00094620       ??_GITEM_PIECE@@QAEPAXI@Z  00495620 f i Item_Field.obj
 0001:00094680       ??1ITEM_PIECE@@QAE@XZ      00495680 f i Item_Field.obj
 0001:000946c0       ??0CItem_Field@@QAE@XZ     004956c0 f   Item_Field.obj
 0001:00094750       ??_GCItem_Field@@UAEPAXI@Z 00495750 f i Item_Field.obj
 0001:00094750       ??_ECItem_Field@@UAEPAXI@Z 00495750 f i Item_Field.obj
 0001:000947b0       ??1CItem_Field@@UAE@XZ     004957b0 f   Item_Field.obj
 0001:00094940       ?RemoveAll@CItem_Field@@QAEXXZ 00495940 f   Item_Field.obj
 0001:000949e0       ??_GITEM_FIELD@@QAEPAXI@Z  004959e0 f i Item_Field.obj
 0001:00094a40       ?SetPixelFormat@CItem_Field@@QAEXH@Z 00495a40 f   Item_Field.obj
 0001:00094ab0       ?InitData@CItem_Field@@QAEXPAVCDirectDraw@@@Z 00495ab0 f   Item_Field.obj
 0001:00094be0       ?Load_image@CItem_Field@@QAEXPBD@Z 00495be0 f   Item_Field.obj
 0001:00094d40       ?Draw@CItem_Field@@QAEXPAVCDDSurface@@VCPoint@@H@Z 00495d40 f   Item_Field.obj
 0001:00094eb0       ?LoadSpr@CItem_Field@@QAEXPBD@Z 00495eb0 f   Item_Field.obj
 0001:000950a0       ?MouseProcess@CItem_Field@@QAEHVCPoint@@@Z 004960a0 f   Item_Field.obj
 0001:000951d0       ?InMousePos@CItem_Field@@QAEHVCPoint@@VCRect@@@Z 004961d0 f   Item_Field.obj
 0001:00095220       ?ViewItem@CItem_Field@@QAEHHHHHPAVCDDSurface@@H@Z 00496220 f   Item_Field.obj
 0001:00095450       ?GetClippedRect@CItem_Field@@QAEXPAUtagRECT@@0@Z 00496450 f   Item_Field.obj
 0001:00095500       ?DrawFocusItem@CItem_Field@@QAEXHHHHPAVCDDSurface@@H@Z 00496500 f   Item_Field.obj
 0001:000958b0       ?PutPixelLineAndItem@CItem_Field@@QAEHPAG0HGG@Z 004968b0 f i Item_Field.obj
 0001:00095950       ?PutPixelTopBottomLine@CItem_Field@@QAEXPAG0HGG@Z 00496950 f i Item_Field.obj
 0001:000959b0       ?Add_F_item@CItem_Field@@QAEXVCPoint@@HVCString@@@Z 004969b0 f   Item_Field.obj
 0001:00095b50       ??0ITEM_PIECE@@QAE@XZ      00496b50 f i Item_Field.obj
 0001:00095b90       ?Del_F_item@CItem_Field@@QAEXVCPoint@@H@Z 00496b90 f   Item_Field.obj
 0001:00095cc0       ?IsExistItem@CItem_Field@@QAEHVCPoint@@H0PAVCDDSurface@@@Z 00496cc0 f   Item_Field.obj
 0001:00095dd0       ?DrawLabel@CItem_Field@@QAEXPAVCDDSurface@@VCPoint@@H@Z 00496dd0 f   Item_Field.obj
 0001:00095fa0       ?LoadObm@CItem_Field@@QAEXPBD@Z 00496fa0 f   Item_Field.obj
 0001:000960f0       ?Add@?$CTypedPtrArray@VCPtrArray@@PAVITEM_PIECE@@@@QAEHPAVITEM_PIECE@@@Z 004970f0 f i Item_Field.obj
 0001:00096130       ??A?$CTypedPtrArray@VCPtrArray@@PAVITEM_PIECE@@@@QAEAAPAVITEM_PIECE@@H@Z 00497130 f i Item_Field.obj
 0001:00096170       ??0?$CMap@HHPAVITEM_FIELD@@AAPAV1@@@QAE@H@Z 00497170 f i Item_Field.obj
 0001:00096240       ?Lookup@?$CMap@HHPAVITEM_FIELD@@AAPAV1@@@QBEHHAAPAVITEM_FIELD@@@Z 00497240 f i Item_Field.obj
 0001:000962b0       ??A?$CMap@HHPAVITEM_FIELD@@AAPAV1@@@QAEAAPAVITEM_FIELD@@H@Z 004972b0 f i Item_Field.obj
 0001:00096370       ?RemoveKey@?$CMap@HHPAVITEM_FIELD@@AAPAV1@@@QAEHH@Z 00497370 f i Item_Field.obj
 0001:00096430       ?RemoveAll@?$CMap@HHPAVITEM_FIELD@@AAPAV1@@@QAEXXZ 00497430 f i Item_Field.obj
 0001:00096520       ?GetStartPosition@?$CMap@HHPAVITEM_FIELD@@AAPAV1@@@QBEPAU__POSITION@@XZ 00497520 f i Item_Field.obj
 0001:00096550       ?GetNextAssoc@?$CMap@HHPAVITEM_FIELD@@AAPAV1@@@QBEXAAPAU__POSITION@@AAHAAPAVITEM_FIELD@@@Z 00497550 f i Item_Field.obj
 0001:000966d0       ??1?$CMap@HHPAVITEM_FIELD@@AAPAV1@@@UAE@XZ 004976d0 f i Item_Field.obj
 0001:00096770       ?Serialize@?$CMap@HHPAVITEM_FIELD@@AAPAV1@@@UAEXAAVCArchive@@@Z 00497770 f i Item_Field.obj
 0001:000968c0       ?Dump@?$CMap@HHPAVITEM_FIELD@@AAPAV1@@@UBEXAAVCDumpContext@@@Z 004978c0 f i Item_Field.obj
 0001:000969a0       ?AssertValid@?$CMap@HHPAVITEM_FIELD@@AAPAV1@@@UBEXXZ 004979a0 f i Item_Field.obj
 0001:00096a30       ??_E?$CMap@HHPAVITEM_FIELD@@AAPAV1@@@UAEPAXI@Z 00497a30 f i Item_Field.obj
 0001:00096a30       ??_G?$CMap@HHPAVITEM_FIELD@@AAPAV1@@@UAEPAXI@Z 00497a30 f i Item_Field.obj
 0001:00096a80       ?SetAt@?$CMap@HHPAVITEM_FIELD@@AAPAV1@@@QAEXHAAPAVITEM_FIELD@@@Z 00497a80 f i Item_Field.obj
 0001:00096ad0       ?InitHashTable@?$CMap@HHPAVITEM_FIELD@@AAPAV1@@@QAEXIH@Z 00497ad0 f i Item_Field.obj
 0001:00096bd0       ?NewAssoc@?$CMap@HHPAVITEM_FIELD@@AAPAV1@@@IAEPAUCAssoc@1@XZ 00497bd0 f i Item_Field.obj
 0001:00096d10       ?FreeAssoc@?$CMap@HHPAVITEM_FIELD@@AAPAV1@@@IAEXPAUCAssoc@1@@Z 00497d10 f i Item_Field.obj
 0001:00096dc0       ?GetAssocAt@?$CMap@HHPAVITEM_FIELD@@AAPAV1@@@IBEPAUCAssoc@1@HAAI@Z 00497dc0 f i Item_Field.obj
 0001:00096e60       ?DestructElements@@YGXPAPAVITEM_FIELD@@H@Z 00497e60 f i Item_Field.obj
 0001:00096ee0       ?SerializeElements@@YGXAAVCArchive@@PAPAVITEM_FIELD@@H@Z 00497ee0 f i Item_Field.obj
 0001:00096f80       ?DumpElements@@YGXAAVCDumpContext@@PBQAVITEM_FIELD@@H@Z 00497f80 f i Item_Field.obj
 0001:00096fe0       ?ConstructElements@@YGXPAPAVITEM_FIELD@@H@Z 00497fe0 f i Item_Field.obj
 0001:00097090       ??0INV_SPR_DATA@@QAE@XZ    00498090 f   Item_Inv.obj
 0001:000970e0       ??1INV_SPR_DATA@@QAE@XZ    004980e0 f   Item_Inv.obj
 0001:000971a0       ??0INV_ANI_DATA@@QAE@XZ    004981a0 f   Item_Inv.obj
 0001:000971e0       ??1INV_ANI_DATA@@QAE@XZ    004981e0 f   Item_Inv.obj
 0001:00097240       ??0CItem_Inv@@QAE@XZ       00498240 f   Item_Inv.obj
 0001:00097360       ??_GCItem_Inv@@UAEPAXI@Z   00498360 f i Item_Inv.obj
 0001:00097360       ??_ECItem_Inv@@UAEPAXI@Z   00498360 f i Item_Inv.obj
 0001:000973c0       ??1CItem_Inv@@UAE@XZ       004983c0 f   Item_Inv.obj
 0001:000974b0       ??_GINV_SPR_DATA@@QAEPAXI@Z 004984b0 f i Item_Inv.obj
 0001:00097510       ?Init@CItem_Inv@@QAEXH@Z   00498510 f   Item_Inv.obj
 0001:00097600       ?DestoryTexSurface@CItem_Inv@@QAEXXZ 00498600 f   Item_Inv.obj
 0001:000976c0       ?CreateTexture@CItem_Inv@@QAEXXZ 004986c0 f   Item_Inv.obj
 0001:00097860       ?Load_spl@CItem_Inv@@QAEXPADHHH@Z 00498860 f   Item_Inv.obj
 0001:00097c50       ?LoadAni@CItem_Inv@@QAEXPBD@Z 00498c50 f   Item_Inv.obj
 0001:00097e60       ?SetHair@CItem_Inv@@QAEXHH@Z 00498e60 f   Item_Inv.obj
 0001:00097ea0       ?Change_InvItem@CItem_Inv@@QAEXHHH@Z 00498ea0 f   Item_Inv.obj
 0001:00097fc0       ?DrawPrimitiveChar@CItem_Inv@@QAEXHH@Z 00498fc0 f   Item_Inv.obj
 0001:00098400       ?PutPixelTrans@CItem_Inv@@QAEXPBG0HHKK@Z 00499400 f i Item_Inv.obj
 0001:000984a0       ?Draw@CItem_Inv@@QAEXHH@Z  004994a0 f   Item_Inv.obj
 0001:000989e0       ?HairStyleDraw@CItem_Inv@@QAEXHHH@Z 004999e0 f   Item_Inv.obj
 0001:00098a60       ?HairDraw@CItem_Inv@@QAEXHHHH@Z 00499a60 f   Item_Inv.obj
 0001:00098ae0       ?Draw_Helmet@CItem_Inv@@QAEXHH@Z 00499ae0 f   Item_Inv.obj
 0001:00098cb0       ?Draw_Armor@CItem_Inv@@QAEXHH@Z 00499cb0 f   Item_Inv.obj
 0001:00098e80       ?Draw_Jean@CItem_Inv@@QAEXHH@Z 00499e80 f   Item_Inv.obj
 0001:00099050       ?Draw_Boot@CItem_Inv@@QAEXHH@Z 0049a050 f   Item_Inv.obj
 0001:00099220       ?Draw_Arm@CItem_Inv@@QAEXHH@Z 0049a220 f   Item_Inv.obj
 0001:000993f0       ?Draw_Shield@CItem_Inv@@QAEXHH@Z 0049a3f0 f   Item_Inv.obj
 0001:000995c0       ?Draw_Man@CItem_Inv@@QAEXHH@Z 0049a5c0 f   Item_Inv.obj
 0001:00099750       ?BltLSPNormal@CItem_Inv@@QAEXPAVCDDSurface@@HHPAUtagRECT@@PAG@Z 0049a750 f   Item_Inv.obj
 0001:00099c30       ??0CItem_Small@@QAE@XZ     0049ac30 f   Item_Small.obj
 0001:00099ce0       ??_ECItem_Small@@UAEPAXI@Z 0049ace0 f i Item_Small.obj
 0001:00099ce0       ??_GCItem_Small@@UAEPAXI@Z 0049ace0 f i Item_Small.obj
 0001:00099d40       ??1CItem_Small@@UAE@XZ     0049ad40 f   Item_Small.obj
 0001:00099dd0       ?InitItem@CItem_Small@@QAEXPAVCDirectDraw@@@Z 0049add0 f   Item_Small.obj
 0001:00099f30       ?MouseProcess@CItem_Small@@UAEHPAVBBDX_MouseInformation@@HHH@Z 0049af30 f   Item_Small.obj
 0001:0009a2b0       ?ViewCaption@CItem_Small@@QAEXVCPoint@@VCString@@H@Z 0049b2b0 f   Item_Small.obj
 0001:0009a540       ?Draw@CItem_Small@@UAEXPAVCDDSurface@@HHH@Z 0049b540 f   Item_Small.obj
 0001:0009a640       ?DrawShop@CItem_Small@@UAEXHHPAVCDDSurface@@HH@Z 0049b640 f   Item_Small.obj
 0001:0009a7c0       ?DrawShopMe@CItem_Small@@UAEXHHPAVCDDSurface@@HH@Z 0049b7c0 f   Item_Small.obj
 0001:0009a8e0       ?InvWindowDraw@CItem_Small@@QAEXPAVCDDSurface@@@Z 0049b8e0 f   Item_Small.obj
 0001:0009a9c0       ?ShopMeWindowDraw@CItem_Small@@QAEXPAVCDDSurface@@@Z 0049b9c0 f   Item_Small.obj
 0001:0009aac0       ?ShopWindowDraw@CItem_Small@@QAEXPAVCDDSurface@@@Z 0049bac0 f   Item_Small.obj
 0001:0009ab70       ?InvItemUp@CItem_Small@@QAEXXZ 0049bb70 f   Item_Small.obj
 0001:0009abd0       ?InvItemDown@CItem_Small@@QAEXXZ 0049bbd0 f   Item_Small.obj
 0001:0009ac30       ?ShopItemUp@CItem_Small@@QAEXXZ 0049bc30 f   Item_Small.obj
 0001:0009ac90       ?ShopItemDown@CItem_Small@@QAEXXZ 0049bc90 f   Item_Small.obj
 0001:0009acf0       ?ShopMeItemUp@CItem_Small@@QAEXXZ 0049bcf0 f   Item_Small.obj
 0001:0009ad50       ?ShopMeItemDown@CItem_Small@@QAEXXZ 0049bd50 f   Item_Small.obj
 0001:0009adb0       ?ViewSelectBox@CItem_Small@@QAEXVCPoint@@H@Z 0049bdb0 f   Item_Small.obj
 0001:0009ae70       ?ShopItemNumber@CItem_Small@@QAEXVCPoint@@H@Z 0049be70 f   Item_Small.obj
 0001:0009aff0       ??0CItem_Total@@QAE@XZ     0049bff0 f   Item_Total.obj
 0001:0009b050       ??_GCItem_Total@@UAEPAXI@Z 0049c050 f i Item_Total.obj
 0001:0009b050       ??_ECItem_Total@@UAEPAXI@Z 0049c050 f i Item_Total.obj
 0001:0009b0b0       ??1CItem_Total@@UAE@XZ     0049c0b0 f   Item_Total.obj
 0001:0009b1c0       ?Init@CItem_Total@@QAEXPAVCDirectDraw@@@Z 0049c1c0 f   Item_Total.obj
 0001:0009b2e0       ??0CLightSource@@QAE@XZ    0049c2e0 f   LightSource.obj
 0001:0009b320       ??_GCLightSource@@UAEPAXI@Z 0049c320 f i LightSource.obj
 0001:0009b320       ??_ECLightSource@@UAEPAXI@Z 0049c320 f i LightSource.obj
 0001:0009b380       ??1CLightSource@@UAE@XZ    0049c380 f   LightSource.obj
 0001:0009b3b0       ?Release@CLightSource@@QAEXXZ 0049c3b0 f   LightSource.obj
 0001:0009b420       ?DataGet@CLightSource@@QAEPAU_LIGHT_SOURCE_DATA@@H@Z 0049c420 f   LightSource.obj
 0001:0009b470       ?Alloc@CLightSource@@QAEXH@Z 0049c470 f   LightSource.obj
 0001:0009b4f0       ?Load@CLightSource@@QAEXPBD@Z 0049c4f0 f   LightSource.obj
 0001:0009b630       ??0CMagic@@QAE@XZ          0049c630 f   Magic.obj
 0001:0009b750       ??_GCMagic@@UAEPAXI@Z      0049c750 f i Magic.obj
 0001:0009b750       ??_ECMagic@@UAEPAXI@Z      0049c750 f i Magic.obj
 0001:0009b7b0       ??1CMagic@@UAE@XZ          0049c7b0 f   Magic.obj
 0001:0009b980       ??_GMAGIC3D_INFO@@QAEPAXI@Z 0049c980 f i Magic.obj
 0001:0009b9e0       ??1MAGIC3D_INFO@@QAE@XZ    0049c9e0 f i Magic.obj
 0001:0009ba20       ?SetMagicInfo@CMagic@@QAEXHH@Z 0049ca20 f   Magic.obj
 0001:0009bb20       ?SetMagicRes@CMagic@@QAEHHH@Z 0049cb20 f   Magic.obj
 0001:0009bbe0       ?GetMagicFrameNum@CMagicRes@@QAEHXZ 0049cbe0 f i Magic.obj
 0001:0009bc10       ?SetFly3DMagicRes@CMagic@@QAEHPADVCPoint@@1AAHH@Z 0049cc10 f   Magic.obj
 0001:0009bcb0       ?SetFly3DMagicResEx@CMagic@@QAEHHVCPoint@@0AAHHH@Z 0049ccb0 f   Magic.obj
 0001:0009bd50       ?SetCycloneMagicRes@CMagic@@QAEHHVCPoint@@HH@Z 0049cd50 f   Magic.obj
 0001:0009bdb0       ?RouteCyclone@CMagic@@QAEXVCPoint@@H@Z 0049cdb0 f   Magic.obj
 0001:0009bf70       ??0MR_CELL@@QAE@XZ         0049cf70 f i Magic.obj
 0001:0009bfb0       ?SetDirFly3DMagicResEx@CMagic@@QAEHHVCPoint@@HH@Z 0049cfb0 f   Magic.obj
 0001:0009c020       ?Set3DMagic@CMagic@@QAEXPADHHH@Z 0049d020 f   Magic.obj
 0001:0009c210       ??0MAGIC3D_INFO@@QAE@XZ    0049d210 f i Magic.obj
 0001:0009c250       ?Set3DMagicEx@CMagic@@QAEXHHHH@Z 0049d250 f   Magic.obj
 0001:0009c630       ?Draw3DMagic@CMagic@@QAEHHHH@Z 0049d630 f   Magic.obj
 0001:0009c7d0       ?DrawFlying3DMagic@CMagic@@QAEHHHH@Z 0049d7d0 f   Magic.obj
 0001:0009c980       ?DrawFlying3DMagic@CMagic@@QAEHXZ 0049d980 f   Magic.obj
 0001:0009cda0       ?DrawMagic@CMagic@@QAEHPAVCDDSurface@@@Z 0049dda0 f   Magic.obj
 0001:0009ce30       ?DrawMagic@CMagic@@QAEHPAVCDDSurface@@HHHH@Z 0049de30 f   Magic.obj
 0001:0009d130       ?DrawFlyingMagic@CMagic@@QAEHPAVCDDSurface@@HHH@Z 0049e130 f   Magic.obj
 0001:0009d320       ?DrawFlyingMagic@CMagic@@QAEHPAVCDDSurface@@@Z 0049e320 f   Magic.obj
 0001:0009d740       ?DirStartFrame@CMagic@@QAEHHH@Z 0049e740 f   Magic.obj
 0001:0009d830       ?SetFlyMagicRes@CMagic@@QAEHHVCPoint@@0AAHH@Z 0049e830 f   Magic.obj
 0001:0009d900       ?RoutePositon@CMagic@@QAEXVCPoint@@0H@Z 0049e900 f   Magic.obj
 0001:0009db30       ?RouteDirPositon@CMagic@@QAEXVCPoint@@H@Z 0049eb30 f   Magic.obj
 0001:0009dce0       ?SetLastBeatEffect@CMagic@@QAEXH@Z 0049ece0 f   Magic.obj
 0001:0009dd10       ??0?$CArray@PAUMAGIC_INFO@@PAU1@@@QAE@XZ 0049ed10 f i Magic.obj
 0001:0009dd80       ?GetSize@?$CArray@PAUMAGIC_INFO@@PAU1@@@QBEHXZ 0049ed80 f i Magic.obj
 0001:0009ddb0       ?RemoveAll@?$CArray@PAUMAGIC_INFO@@PAU1@@@QAEXXZ 0049edb0 f i Magic.obj
 0001:0009ddf0       ?GetAt@?$CArray@PAUMAGIC_INFO@@PAU1@@@QBEPAUMAGIC_INFO@@H@Z 0049edf0 f i Magic.obj
 0001:0009de60       ?Add@?$CArray@PAUMAGIC_INFO@@PAU1@@@QAEHPAUMAGIC_INFO@@@Z 0049ee60 f i Magic.obj
 0001:0009deb0       ??1?$CArray@PAUMAGIC_INFO@@PAU1@@@UAE@XZ 0049eeb0 f i Magic.obj
 0001:0009df60       ?Serialize@?$CArray@PAUMAGIC_INFO@@PAU1@@@UAEXAAVCArchive@@@Z 0049ef60 f i Magic.obj
 0001:0009e000       ?Dump@?$CArray@PAUMAGIC_INFO@@PAU1@@@UBEXAAVCDumpContext@@@Z 0049f000 f i Magic.obj
 0001:0009e0a0       ?AssertValid@?$CArray@PAUMAGIC_INFO@@PAU1@@@UBEXXZ 0049f0a0 f i Magic.obj
 0001:0009e1d0       ??0?$CArray@PAUMAGIC3D_INFO@@PAU1@@@QAE@XZ 0049f1d0 f i Magic.obj
 0001:0009e240       ?GetSize@?$CArray@PAUMAGIC3D_INFO@@PAU1@@@QBEHXZ 0049f240 f i Magic.obj
 0001:0009e270       ?RemoveAll@?$CArray@PAUMAGIC3D_INFO@@PAU1@@@QAEXXZ 0049f270 f i Magic.obj
 0001:0009e2b0       ?GetAt@?$CArray@PAUMAGIC3D_INFO@@PAU1@@@QBEPAUMAGIC3D_INFO@@H@Z 0049f2b0 f i Magic.obj
 0001:0009e320       ?Add@?$CArray@PAUMAGIC3D_INFO@@PAU1@@@QAEHPAUMAGIC3D_INFO@@@Z 0049f320 f i Magic.obj
 0001:0009e370       ?RemoveAt@?$CArray@PAUMAGIC3D_INFO@@PAU1@@@QAEXHH@Z 0049f370 f i Magic.obj
 0001:0009e490       ??1?$CArray@PAUMAGIC3D_INFO@@PAU1@@@UAE@XZ 0049f490 f i Magic.obj
 0001:0009e540       ?Serialize@?$CArray@PAUMAGIC3D_INFO@@PAU1@@@UAEXAAVCArchive@@@Z 0049f540 f i Magic.obj
 0001:0009e5e0       ?Dump@?$CArray@PAUMAGIC3D_INFO@@PAU1@@@UBEXAAVCDumpContext@@@Z 0049f5e0 f i Magic.obj
 0001:0009e680       ?AssertValid@?$CArray@PAUMAGIC3D_INFO@@PAU1@@@UBEXXZ 0049f680 f i Magic.obj
 0001:0009e7b0       ??0?$CList@UMR_CELL@@U1@@@QAE@H@Z 0049f7b0 f i Magic.obj
 0001:0009e880       ?GetCount@?$CList@UMR_CELL@@U1@@@QBEHXZ 0049f880 f i Magic.obj
 0001:0009e8b0       ?GetHead@?$CList@UMR_CELL@@U1@@@QAEAAUMR_CELL@@XZ 0049f8b0 f i Magic.obj
 0001:0009e910       ?RemoveHead@?$CList@UMR_CELL@@U1@@@QAE?AUMR_CELL@@XZ 0049f910 f i Magic.obj
 0001:0009ea20       ?AddHead@?$CList@UMR_CELL@@U1@@@QAEPAU__POSITION@@UMR_CELL@@@Z 0049fa20 f i Magic.obj
 0001:0009eac0       ?AddTail@?$CList@UMR_CELL@@U1@@@QAEPAU__POSITION@@UMR_CELL@@@Z 0049fac0 f i Magic.obj
 0001:0009eb60       ?RemoveAll@?$CList@UMR_CELL@@U1@@@QAEXXZ 0049fb60 f i Magic.obj
 0001:0009ec10       ??1?$CList@UMR_CELL@@U1@@@UAE@XZ 0049fc10 f i Magic.obj
 0001:0009ecb0       ?Serialize@?$CList@UMR_CELL@@U1@@@UAEXAAVCArchive@@@Z 0049fcb0 f i Magic.obj
 0001:0009edd0       ?Dump@?$CList@UMR_CELL@@U1@@@UBEXAAVCDumpContext@@@Z 0049fdd0 f i Magic.obj
 0001:0009ee90       ?AssertValid@?$CList@UMR_CELL@@U1@@@UBEXXZ 0049fe90 f i Magic.obj
 0001:0009ef80       ?GetSize@?$CArray@U_TAG_FLY_END_MAGIC@@U1@@@QBEHXZ 0049ff80 f i Magic.obj
 0001:0009efb0       ?RemoveAll@?$CArray@U_TAG_FLY_END_MAGIC@@U1@@@QAEXXZ 0049ffb0 f i Magic.obj
 0001:0009eff0       ?GetAt@?$CArray@U_TAG_FLY_END_MAGIC@@U1@@@QBE?AU_TAG_FLY_END_MAGIC@@H@Z 0049fff0 f i Magic.obj
 0001:0009f080       ??_G?$CArray@PAUMAGIC_INFO@@PAU1@@@UAEPAXI@Z 004a0080 f i Magic.obj
 0001:0009f080       ??_E?$CArray@PAUMAGIC_INFO@@PAU1@@@UAEPAXI@Z 004a0080 f i Magic.obj
 0001:0009f0d0       ??_E?$CArray@PAUMAGIC3D_INFO@@PAU1@@@UAEPAXI@Z 004a00d0 f i Magic.obj
 0001:0009f0d0       ??_G?$CArray@PAUMAGIC3D_INFO@@PAU1@@@UAEPAXI@Z 004a00d0 f i Magic.obj
 0001:0009f120       ??_G?$CList@UMR_CELL@@U1@@@UAEPAXI@Z 004a0120 f i Magic.obj
 0001:0009f120       ??_E?$CList@UMR_CELL@@U1@@@UAEPAXI@Z 004a0120 f i Magic.obj
 0001:0009f170       ?SetSize@?$CArray@PAUMAGIC_INFO@@PAU1@@@QAEXHH@Z 004a0170 f i Magic.obj
 0001:0009f490       ?SetAtGrow@?$CArray@PAUMAGIC_INFO@@PAU1@@@QAEXHPAUMAGIC_INFO@@@Z 004a0490 f i Magic.obj
 0001:0009f520       ?DestructElements@@YGXPAPAUMAGIC_INFO@@H@Z 004a0520 f i Magic.obj
 0001:0009f5a0       ?SerializeElements@@YGXAAVCArchive@@PAPAUMAGIC_INFO@@H@Z 004a05a0 f i Magic.obj
 0001:0009f640       ?DumpElements@@YGXAAVCDumpContext@@PBQAUMAGIC_INFO@@H@Z 004a0640 f i Magic.obj
 0001:0009f6a0       ?SetSize@?$CArray@PAUMAGIC3D_INFO@@PAU1@@@QAEXHH@Z 004a06a0 f i Magic.obj
 0001:0009f9c0       ?SetAtGrow@?$CArray@PAUMAGIC3D_INFO@@PAU1@@@QAEXHPAUMAGIC3D_INFO@@@Z 004a09c0 f i Magic.obj
 0001:0009fa50       ?DestructElements@@YGXPAPAUMAGIC3D_INFO@@H@Z 004a0a50 f i Magic.obj
 0001:0009fad0       ?SerializeElements@@YGXAAVCArchive@@PAPAUMAGIC3D_INFO@@H@Z 004a0ad0 f i Magic.obj
 0001:0009fb70       ?DumpElements@@YGXAAVCDumpContext@@PBQAUMAGIC3D_INFO@@H@Z 004a0b70 f i Magic.obj
 0001:0009fbd0       ?GetHeadPosition@?$CList@UMR_CELL@@U1@@@QBEPAU__POSITION@@XZ 004a0bd0 f i Magic.obj
 0001:0009fc00       ?GetNext@?$CList@UMR_CELL@@U1@@@QAEAAUMR_CELL@@AAPAU__POSITION@@@Z 004a0c00 f i Magic.obj
 0001:0009fc80       ?NewNode@?$CList@UMR_CELL@@U1@@@IAEPAUCNode@1@PAU21@0@Z 004a0c80 f i Magic.obj
 0001:0009fdc0       ?FreeNode@?$CList@UMR_CELL@@U1@@@IAEXPAUCNode@1@@Z 004a0dc0 f i Magic.obj
 0001:0009fe60       ?DestructElements@@YGXPAUMR_CELL@@H@Z 004a0e60 f i Magic.obj
 0001:0009fee0       ?SerializeElements@@YGXAAVCArchive@@PAUMR_CELL@@H@Z 004a0ee0 f i Magic.obj
 0001:0009ff80       ?DumpElements@@YGXAAVCDumpContext@@PBUMR_CELL@@H@Z 004a0f80 f i Magic.obj
 0001:0009ffe0       ?SetSize@?$CArray@U_TAG_FLY_END_MAGIC@@U1@@@QAEXHH@Z 004a0fe0 f i Magic.obj
 0001:000a0310       ?DestructElements@@YGXPAU_TAG_FLY_END_MAGIC@@H@Z 004a1310 f i Magic.obj
 0001:000a0390       ?ConstructElements@@YGXPAPAUMAGIC_INFO@@H@Z 004a1390 f i Magic.obj
 0001:000a0440       ?ConstructElements@@YGXPAPAUMAGIC3D_INFO@@H@Z 004a1440 f i Magic.obj
 0001:000a04f0       ?ConstructElements@@YGXPAUMR_CELL@@H@Z 004a14f0 f i Magic.obj
 0001:000a05e0       ?ConstructElements@@YGXPAU_TAG_FLY_END_MAGIC@@H@Z 004a15e0 f i Magic.obj
 0001:000a0690       ??0CMagicComet@@QAE@XZ     004a1690 f   MagicComet.obj
 0001:000a0790       ??_GCMagicComet@@UAEPAXI@Z 004a1790 f i MagicComet.obj
 0001:000a0790       ??_ECMagicComet@@UAEPAXI@Z 004a1790 f i MagicComet.obj
 0001:000a07f0       ??0CMagicComet@@QAE@VCPoint@@0@Z 004a17f0 f   MagicComet.obj
 0001:000a08e0       ??1CMagicComet@@UAE@XZ     004a18e0 f   MagicComet.obj
 0001:000a09d0       ?Load@CMagicComet@@QAEHH@Z 004a19d0 f   MagicComet.obj
 0001:000a0b90       ?DrawComet@CMagicComet@@QAEHXZ 004a1b90 f   MagicComet.obj
 0001:000a0dd0       ?SetRoute@CMagicComet@@QAEHXZ 004a1dd0 f   MagicComet.obj
 0001:000a1070       ??0_TAG_ST_POSITION@@QAE@XZ 004a2070 f i MagicComet.obj
 0001:000a10b0       ?DirStartFrame@CMagicComet@@QAEHHH@Z 004a20b0 f   MagicComet.obj
 0001:000a11d0       ??0?$CArray@PAU_TAG_ST_POSITION@@PAU1@@@QAE@XZ 004a21d0 f i MagicComet.obj
 0001:000a1240       ?GetSize@?$CArray@PAU_TAG_ST_POSITION@@PAU1@@@QBEHXZ 004a2240 f i MagicComet.obj
 0001:000a1270       ?RemoveAll@?$CArray@PAU_TAG_ST_POSITION@@PAU1@@@QAEXXZ 004a2270 f i MagicComet.obj
 0001:000a12b0       ?GetAt@?$CArray@PAU_TAG_ST_POSITION@@PAU1@@@QBEPAU_TAG_ST_POSITION@@H@Z 004a22b0 f i MagicComet.obj
 0001:000a1320       ?Add@?$CArray@PAU_TAG_ST_POSITION@@PAU1@@@QAEHPAU_TAG_ST_POSITION@@@Z 004a2320 f i MagicComet.obj
 0001:000a1370       ?RemoveAt@?$CArray@PAU_TAG_ST_POSITION@@PAU1@@@QAEXHH@Z 004a2370 f i MagicComet.obj
 0001:000a1490       ??1?$CArray@PAU_TAG_ST_POSITION@@PAU1@@@UAE@XZ 004a2490 f i MagicComet.obj
 0001:000a1540       ?Serialize@?$CArray@PAU_TAG_ST_POSITION@@PAU1@@@UAEXAAVCArchive@@@Z 004a2540 f i MagicComet.obj
 0001:000a15e0       ?Dump@?$CArray@PAU_TAG_ST_POSITION@@PAU1@@@UBEXAAVCDumpContext@@@Z 004a25e0 f i MagicComet.obj
 0001:000a1680       ?AssertValid@?$CArray@PAU_TAG_ST_POSITION@@PAU1@@@UBEXXZ 004a2680 f i MagicComet.obj
 0001:000a17b0       ??_G?$CArray@PAU_TAG_ST_POSITION@@PAU1@@@UAEPAXI@Z 004a27b0 f i MagicComet.obj
 0001:000a17b0       ??_E?$CArray@PAU_TAG_ST_POSITION@@PAU1@@@UAEPAXI@Z 004a27b0 f i MagicComet.obj
 0001:000a1800       ?SetSize@?$CArray@PAU_TAG_ST_POSITION@@PAU1@@@QAEXHH@Z 004a2800 f i MagicComet.obj
 0001:000a1b20       ?SetAtGrow@?$CArray@PAU_TAG_ST_POSITION@@PAU1@@@QAEXHPAU_TAG_ST_POSITION@@@Z 004a2b20 f i MagicComet.obj
 0001:000a1bb0       ?DestructElements@@YGXPAPAU_TAG_ST_POSITION@@H@Z 004a2bb0 f i MagicComet.obj
 0001:000a1c30       ?SerializeElements@@YGXAAVCArchive@@PAPAU_TAG_ST_POSITION@@H@Z 004a2c30 f i MagicComet.obj
 0001:000a1cd0       ?DumpElements@@YGXAAVCDumpContext@@PBQAU_TAG_ST_POSITION@@H@Z 004a2cd0 f i MagicComet.obj
 0001:000a1d30       ?ConstructElements@@YGXPAPAU_TAG_ST_POSITION@@H@Z 004a2d30 f i MagicComet.obj
 0001:000a1de0       ??0CMagicItem@@QAE@XZ      004a2de0 f   magicitem.obj
 0001:000a1e60       ??_ECMagicItem@@UAEPAXI@Z  004a2e60 f i magicitem.obj
 0001:000a1e60       ??_GCMagicItem@@UAEPAXI@Z  004a2e60 f i magicitem.obj
 0001:000a1ec0       ??1CMagicItem@@UAE@XZ      004a2ec0 f   magicitem.obj
 0001:000a1ff0       ?InitItem@CMagicItem@@QAEXPAVCDirectDraw@@@Z 004a2ff0 f   magicitem.obj
 0001:000a2120       ?Load_image2@CMagicItem@@QAEXPBD@Z 004a3120 f   magicitem.obj
 0001:000a2290       ?LoadSpr2@CMagicItem@@QAEXPBD@Z 004a3290 f   magicitem.obj
 0001:000a24d0       ?MouseProcess@CMagicItem@@UAEHPAVBBDX_MouseInformation@@HHH@Z 004a34d0 f   magicitem.obj
 0001:000a2670       ?ViewCaption@CMagicItem@@QAEXVCPoint@@VCString@@H@Z 004a3670 f   magicitem.obj
 0001:000a2900       ?Draw@CMagicItem@@UAEXPAVCDDSurface@@HHH@Z 004a3900 f   magicitem.obj
 0001:000a2a00       ?DrawShop@CMagicItem@@UAEXHHPAVCDDSurface@@HH@Z 004a3a00 f   magicitem.obj
 0001:000a2a50       ?InvWindowDraw@CMagicItem@@QAEXPAVCDDSurface@@@Z 004a3a50 f   magicitem.obj
 0001:000a2b30       ?ShopMeWindowDraw@CMagicItem@@QAEXPAVCDDSurface@@@Z 004a3b30 f   magicitem.obj
 0001:000a2c30       ?ShopWindowDraw@CMagicItem@@QAEXPAVCDDSurface@@@Z 004a3c30 f   magicitem.obj
 0001:000a2d50       ?InvItemUp@CMagicItem@@QAEXXZ 004a3d50 f   magicitem.obj
 0001:000a2db0       ?InvItemDown@CMagicItem@@QAEXXZ 004a3db0 f   magicitem.obj
 0001:000a2e10       ?ShopItemUp@CMagicItem@@QAEXXZ 004a3e10 f   magicitem.obj
 0001:000a2e70       ?ShopItemDown@CMagicItem@@QAEXXZ 004a3e70 f   magicitem.obj
 0001:000a2ed0       ?ShopMeItemUp@CMagicItem@@QAEXXZ 004a3ed0 f   magicitem.obj
 0001:000a2f30       ?ShopMeItemDown@CMagicItem@@QAEXXZ 004a3f30 f   magicitem.obj
 0001:000a2f90       ?ViewSelectBox@CMagicItem@@QAEXVCPoint@@H@Z 004a3f90 f   magicitem.obj
 0001:000a3050       ?LoadObm2@CMagicItem@@QAEXPBD@Z 004a4050 f   magicitem.obj
 0001:000a31a0       ??0MAGIC_RES@@QAE@XZ       004a41a0 f   MagicManager.obj
 0001:000a31f0       ??1MAGIC_RES@@QAE@XZ       004a41f0 f   MagicManager.obj
 0001:000a3230       ??0CMagicManager@@QAE@XZ   004a4230 f   MagicManager.obj
 0001:000a32c0       ??_GCMagicManager@@UAEPAXI@Z 004a42c0 f i MagicManager.obj
 0001:000a32c0       ??_ECMagicManager@@UAEPAXI@Z 004a42c0 f i MagicManager.obj
 0001:000a3320       ??1CMagicManager@@UAE@XZ   004a4320 f   MagicManager.obj
 0001:000a33b0       ?RemoveAllData@CMagicManager@@QAEXXZ 004a43b0 f   MagicManager.obj
 0001:000a3440       ??_GMAGIC_RES@@QAEPAXI@Z   004a4440 f i MagicManager.obj
 0001:000a34a0       ?GetIndexedMagic@CMagicManager@@QAEPAVCMagicRes@@H@Z 004a44a0 f   MagicManager.obj
 0001:000a34f0       ?LoadMagicRes@CMagicManager@@QAEHH@Z 004a44f0 f   MagicManager.obj
 0001:000a3710       ?UnloadMagicRes@CMagicManager@@QAEXH@Z 004a4710 f   MagicManager.obj
 0001:000a37b0       ??0?$CMap@HHPAVMAGIC_RES@@PAV1@@@QAE@H@Z 004a47b0 f i MagicManager.obj
 0001:000a3880       ?Lookup@?$CMap@HHPAVMAGIC_RES@@PAV1@@@QBEHHAAPAVMAGIC_RES@@@Z 004a4880 f i MagicManager.obj
 0001:000a38f0       ??A?$CMap@HHPAVMAGIC_RES@@PAV1@@@QAEAAPAVMAGIC_RES@@H@Z 004a48f0 f i MagicManager.obj
 0001:000a39b0       ?RemoveKey@?$CMap@HHPAVMAGIC_RES@@PAV1@@@QAEHH@Z 004a49b0 f i MagicManager.obj
 0001:000a3a70       ?RemoveAll@?$CMap@HHPAVMAGIC_RES@@PAV1@@@QAEXXZ 004a4a70 f i MagicManager.obj
 0001:000a3b60       ?GetStartPosition@?$CMap@HHPAVMAGIC_RES@@PAV1@@@QBEPAU__POSITION@@XZ 004a4b60 f i MagicManager.obj
 0001:000a3b90       ?GetNextAssoc@?$CMap@HHPAVMAGIC_RES@@PAV1@@@QBEXAAPAU__POSITION@@AAHAAPAVMAGIC_RES@@@Z 004a4b90 f i MagicManager.obj
 0001:000a3d10       ??1?$CMap@HHPAVMAGIC_RES@@PAV1@@@UAE@XZ 004a4d10 f i MagicManager.obj
 0001:000a3db0       ?Serialize@?$CMap@HHPAVMAGIC_RES@@PAV1@@@UAEXAAVCArchive@@@Z 004a4db0 f i MagicManager.obj
 0001:000a3f00       ?Dump@?$CMap@HHPAVMAGIC_RES@@PAV1@@@UBEXAAVCDumpContext@@@Z 004a4f00 f i MagicManager.obj
 0001:000a3fe0       ?AssertValid@?$CMap@HHPAVMAGIC_RES@@PAV1@@@UBEXXZ 004a4fe0 f i MagicManager.obj
 0001:000a4070       ??_E?$CMap@HHPAVMAGIC_RES@@PAV1@@@UAEPAXI@Z 004a5070 f i MagicManager.obj
 0001:000a4070       ??_G?$CMap@HHPAVMAGIC_RES@@PAV1@@@UAEPAXI@Z 004a5070 f i MagicManager.obj
 0001:000a40c0       ?SetAt@?$CMap@HHPAVMAGIC_RES@@PAV1@@@QAEXHPAVMAGIC_RES@@@Z 004a50c0 f i MagicManager.obj
 0001:000a4110       ?InitHashTable@?$CMap@HHPAVMAGIC_RES@@PAV1@@@QAEXIH@Z 004a5110 f i MagicManager.obj
 0001:000a4210       ?NewAssoc@?$CMap@HHPAVMAGIC_RES@@PAV1@@@IAEPAUCAssoc@1@XZ 004a5210 f i MagicManager.obj
 0001:000a4350       ?FreeAssoc@?$CMap@HHPAVMAGIC_RES@@PAV1@@@IAEXPAUCAssoc@1@@Z 004a5350 f i MagicManager.obj
 0001:000a4400       ?GetAssocAt@?$CMap@HHPAVMAGIC_RES@@PAV1@@@IBEPAUCAssoc@1@HAAI@Z 004a5400 f i MagicManager.obj
 0001:000a44a0       ?DestructElements@@YGXPAPAVMAGIC_RES@@H@Z 004a54a0 f i MagicManager.obj
 0001:000a4520       ?SerializeElements@@YGXAAVCArchive@@PAPAVMAGIC_RES@@H@Z 004a5520 f i MagicManager.obj
 0001:000a45c0       ?DumpElements@@YGXAAVCDumpContext@@PBQAVMAGIC_RES@@H@Z 004a55c0 f i MagicManager.obj
 0001:000a4620       ?ConstructElements@@YGXPAPAVMAGIC_RES@@H@Z 004a5620 f i MagicManager.obj
 0001:000a46d0       ??0CMagicRes@@QAE@XZ       004a56d0 f   MagicRes.obj
 0001:000a4770       ??_ECMagicRes@@UAEPAXI@Z   004a5770 f i MagicRes.obj
 0001:000a4770       ??_GCMagicRes@@UAEPAXI@Z   004a5770 f i MagicRes.obj
 0001:000a47d0       ??1CMagicRes@@UAE@XZ       004a57d0 f   MagicRes.obj
 0001:000a4980       ?LoadMagic@CMagicRes@@QAEHAAVCString@@@Z 004a5980 f   MagicRes.obj
 0001:000a4c40       ?DrawMagic@CMagicRes@@QAEXPAVCDDSurface@@HHHH@Z 004a5c40 f   MagicRes.obj
 0001:000a4d30       ___GetMainWnd              004a5d30 f   MainFrm.obj
 0001:000a4d60       ?_GetBaseClass@CMainFrame@@KGPAUCRuntimeClass@@XZ 004a5d60 f   MainFrm.obj
 0001:000a4d90       ?GetRuntimeClass@CMainFrame@@UBEPAUCRuntimeClass@@XZ 004a5d90 f   MainFrm.obj
 0001:000a4dc0       ?_GetBaseMessageMap@CMainFrame@@KGPBUAFX_MSGMAP@@XZ 004a5dc0 f   MainFrm.obj
 0001:000a4df0       ?GetMessageMap@CMainFrame@@MBEPBUAFX_MSGMAP@@XZ 004a5df0 f   MainFrm.obj
 0001:000a4e20       ??0CMainFrame@@QAE@XZ      004a5e20 f   MainFrm.obj
 0001:000a4eb0       ??_GCMainFrame@@UAEPAXI@Z  004a5eb0 f i MainFrm.obj
 0001:000a4eb0       ??_ECMainFrame@@UAEPAXI@Z  004a5eb0 f i MainFrm.obj
 0001:000a4f00       ??1CMainFrame@@UAE@XZ      004a5f00 f   MainFrm.obj
 0001:000a4f80       ?PreCreateWindow@CMainFrame@@UAEHAAUtagCREATESTRUCTA@@@Z 004a5f80 f   MainFrm.obj
 0001:000a50a0       ?AssertValid@CMainFrame@@UBEXXZ 004a60a0 f   MainFrm.obj
 0001:000a50e0       ?Dump@CMainFrame@@UBEXAAVCDumpContext@@@Z 004a60e0 f   MainFrm.obj
 0001:000a5120       ?OnSetFocus@CMainFrame@@IAEXPAVCWnd@@@Z 004a6120 f   MainFrm.obj
 0001:000a5170       ?OnCmdMsg@CMainFrame@@UAEHIHPAXPAUAFX_CMDHANDLERINFO@@@Z 004a6170 f   MainFrm.obj
 0001:000a5200       ?OnCreate@CMainFrame@@IAEHPAUtagCREATESTRUCTA@@@Z 004a6200 f   MainFrm.obj
 0001:000a52c0       ?OnActivateApp@CMainFrame@@IAEXHPAUHTASK__@@@Z 004a62c0 f   MainFrm.obj
 0001:000a5320       ?OnRestoreSurface@CMainFrame@@IAEJIJ@Z 004a6320 f   MainFrm.obj
 0001:000a5390       ?ReadData@CMsg@@IAEXPAXH@Z 004a6390 f   Msg.obj
 0001:000a5420       ?WriteData@CMsg@@IAEXPAXH@Z 004a6420 f   Msg.obj
 0001:000a54b0       ??0CMsg@@QAE@XZ            004a64b0 f   Msg.obj
 0001:000a5550       ??_GCMsg@@UAEPAXI@Z        004a6550 f i Msg.obj
 0001:000a5550       ??_ECMsg@@UAEPAXI@Z        004a6550 f i Msg.obj
 0001:000a55a0       ??0CMsg@@QAE@AAV0@@Z       004a65a0 f   Msg.obj
 0001:000a5650       ??0CMsg@@QAE@PAX@Z         004a6650 f   Msg.obj
 0001:000a5700       ?ID@CMsg@@QAEAAV1@G@Z      004a6700 f   Msg.obj
 0001:000a5780       ?ID@CMsg@@QAEGXZ           004a6780 f   Msg.obj
 0001:000a57b0       ?GetBuf@CMsg@@QAEPAXXZ     004a67b0 f   Msg.obj
 0001:000a57e0       ?SetBuf@CMsg@@QAEXPAE@Z    004a67e0 f   Msg.obj
 0001:000a5830       ?GetSize@CMsg@@QAEGXZ      004a6830 f   Msg.obj
 0001:000a5870       ?IsReadAll@CMsg@@QAEHXZ    004a6870 f   Msg.obj
 0001:000a58d0       ?Copy@CMsg@@QAEXPAX@Z      004a68d0 f   Msg.obj
 0001:000a5950       ??6CMsg@@QAEAAV0@D@Z       004a6950 f   Msg.obj
 0001:000a59a0       ??6CMsg@@QAEAAV0@E@Z       004a69a0 f   Msg.obj
 0001:000a59f0       ??6CMsg@@QAEAAV0@F@Z       004a69f0 f   Msg.obj
 0001:000a5a40       ??6CMsg@@QAEAAV0@G@Z       004a6a40 f   Msg.obj
 0001:000a5a90       ??6CMsg@@QAEAAV0@H@Z       004a6a90 f   Msg.obj
 0001:000a5ae0       ??6CMsg@@QAEAAV0@K@Z       004a6ae0 f   Msg.obj
 0001:000a5b30       ??6CMsg@@QAEAAV0@PBD@Z     004a6b30 f   Msg.obj
 0001:000a5ba0       ??5CMsg@@QAEAAV0@AAD@Z     004a6ba0 f   Msg.obj
 0001:000a5bf0       ??5CMsg@@QAEAAV0@AAE@Z     004a6bf0 f   Msg.obj
 0001:000a5c40       ??5CMsg@@QAEAAV0@AAF@Z     004a6c40 f   Msg.obj
 0001:000a5c90       ??5CMsg@@QAEAAV0@AAG@Z     004a6c90 f   Msg.obj
 0001:000a5ce0       ??5CMsg@@QAEAAV0@AAH@Z     004a6ce0 f   Msg.obj
 0001:000a5d30       ??5CMsg@@QAEAAV0@AAK@Z     004a6d30 f   Msg.obj
 0001:000a5d80       ??5CMsg@@QAEAAV0@AAVCString@@@Z 004a6d80 f   Msg.obj
 0001:000a5e30       ??4CMsg@@QAEAAV0@AAV0@@Z   004a6e30 f   Msg.obj
 0001:000a5eb0       ??0CMyInvData@@QAE@XZ      004a6eb0 f   MyInvData.obj
 0001:000a5f40       ??_ECMyInvData@@UAEPAXI@Z  004a6f40 f i MyInvData.obj
 0001:000a5f40       ??_GCMyInvData@@UAEPAXI@Z  004a6f40 f i MyInvData.obj
 0001:000a5fa0       ??1CMyInvData@@UAE@XZ      004a6fa0 f   MyInvData.obj
 0001:000a6030       ?Init@CMyInvData@@QAEXXZ   004a7030 f   MyInvData.obj
 0001:000a6120       ??4CMyInvData@@QAEAAV0@AAV0@@Z 004a7120 f   MyInvData.obj
 0001:000a6280       ??0CMyMagicData@@QAE@XZ    004a7280 f   MyMagicData.obj
 0001:000a6310       ??_GCMyMagicData@@UAEPAXI@Z 004a7310 f i MyMagicData.obj
 0001:000a6310       ??_ECMyMagicData@@UAEPAXI@Z 004a7310 f i MyMagicData.obj
 0001:000a6370       ??1CMyMagicData@@UAE@XZ    004a7370 f   MyMagicData.obj
 0001:000a63f0       ?Init@CMyMagicData@@QAEXXZ 004a73f0 f   MyMagicData.obj
 0001:000a6470       ??0CNotice@@QAE@XZ         004a7470 f   Notice.obj
 0001:000a6510       ??_GCNotice@@UAEPAXI@Z     004a7510 f i Notice.obj
 0001:000a6510       ??_ECNotice@@UAEPAXI@Z     004a7510 f i Notice.obj
 0001:000a6570       ??1CNotice@@UAE@XZ         004a7570 f   Notice.obj
 0001:000a6650       ?Create@CNotice@@UAEHPAVCDirectDraw@@VCString@@HHHH@Z 004a7650 f   Notice.obj
 0001:000a67a0       ?Draw@CNotice@@UAEHPAVCDDSurface@@@Z 004a77a0 f   Notice.obj
 0001:000a6940       ?ShowWindow@CNotice@@UAEXXZ 004a7940 f   Notice.obj
 0001:000a69c0       ?HideWindow@CNotice@@UAEXXZ 004a79c0 f   Notice.obj
 0001:000a6a10       ?HideAllWindow@CNotice@@UAEXXZ 004a7a10 f   Notice.obj
 0001:000a6a50       ?OnLButtonDown@CNotice@@UAEHPAVBBDX_MouseInformation@@@Z 004a7a50 f   Notice.obj
 0001:000a6bb0       ?OnLButtonUp@CNotice@@UAEHPAVBBDX_MouseInformation@@@Z 004a7bb0 f   Notice.obj
 0001:000a6cd0       ?MouseProcess@CNotice@@UAEHPAVBBDX_MouseInformation@@@Z 004a7cd0 f   Notice.obj
 0001:000a6df0       ?OnMouseMove@CNotice@@UAEHPAVBBDX_MouseInformation@@@Z 004a7df0 f   Notice.obj
 0001:000a6e30       ?AddString@CNotice@@QAEXPAE@Z 004a7e30 f   Notice.obj
 0001:000a6f10       ?KillFocus@CNotice@@QAEXXZ 004a7f10 f   Notice.obj
 0001:000a6f40       ?SetFocus@CNotice@@UAEXXZ  004a7f40 f   Notice.obj
 0001:000a6f70       ??0MAreaCtrl@@QAE@XZ       004a7f70 f   ObjectClass.obj
 0001:000a6fe0       ?Save@MAreaCtrl@@UAEXAAVCArchive@@@Z 004a7fe0 f   ObjectClass.obj
 0001:000a7050       ?Load@MAreaCtrl@@UAEXAAVCArchive@@@Z 004a8050 f   ObjectClass.obj
 0001:000a70c0       ??0MBtnCtrl@@QAE@XZ        004a80c0 f   ObjectClass.obj
 0001:000a7160       ?Save@MBtnCtrl@@UAEXAAVCArchive@@@Z 004a8160 f   ObjectClass.obj
 0001:000a7230       ?Load@MBtnCtrl@@UAEXAAVCArchive@@@Z 004a8230 f   ObjectClass.obj
 0001:000a7300       ??0MBtnCtrlEx@@QAE@XZ      004a8300 f   ObjectClass.obj
 0001:000a73b0       ?Save@MBtnCtrlEx@@UAEXAAVCArchive@@@Z 004a83b0 f   ObjectClass.obj
 0001:000a74c0       ?Load@MBtnCtrlEx@@UAEXAAVCArchive@@@Z 004a84c0 f   ObjectClass.obj
 0001:000a75d0       ??0MRectManager@@QAE@XZ    004a85d0 f   ObjectClass.obj
 0001:000a7720       ??0CPacketParser@@QAE@XZ   004a8720 f   PacketParser.obj
 0001:000a7770       ??_GCPacketParser@@UAEPAXI@Z 004a8770 f i PacketParser.obj
 0001:000a7770       ??_ECPacketParser@@UAEPAXI@Z 004a8770 f i PacketParser.obj
 0001:000a77d0       ??1CPacketParser@@UAE@XZ   004a87d0 f   PacketParser.obj
 0001:000a7800       ?SessionPacketProcess@CPacketParser@@QAEHPAEH@Z 004a8800 f   PacketParser.obj
 0001:000a7c00       ?GetWord@CPacketParser@@SAAAGPAEAAH@Z 004a8c00 f i PacketParser.obj
 0001:000a7c40       ?Parse_GetWord@SocketMng@@SAAAGPAEAAH@Z 004a8c40 f i PacketParser.obj
 0001:000a7c80       ?PacketProcess@CPacketParser@@QAEHPAEH@Z 004a8c80 f   PacketParser.obj
 0001:000a9260       ?GetMyUserId@CChildView@@QAEHXZ 004aa260 f i PacketParser.obj
 0001:000a9290       ?ZoneChange@CPacketParser@@QAEXHHHH@Z 004aa290 f   PacketParser.obj
 0001:000a9750       ?AcountLoginProcess@CPacketParser@@QAEXPAE@Z 004aa750 f   PacketParser.obj
 0001:000a9f70       ?LoginProcess@CPacketParser@@QAEXPAE@Z 004aaf70 f   PacketParser.obj
 0001:000aa0b0       ?MoveProcess@CPacketParser@@QAEXPAEE@Z 004ab0b0 f   PacketParser.obj
 0001:000aa750       ?MoveRequest@CPacketParser@@QAEXPAVCUser@@VCPoint@@H@Z 004ab750 f   PacketParser.obj
 0001:000aab70       ?MoveRunRequest@CPacketParser@@QAEXPAVCUser@@VCPoint@@H@Z 004abb70 f   PacketParser.obj
 0001:000ab010       ?AttackProcess@CPacketParser@@QAEXPAE@Z 004ac010 f   PacketParser.obj
 0001:000ab410       ?ArrowAttackProcess@CPacketParser@@QAEXPAE@Z 004ac410 f   PacketParser.obj
 0001:000ab620       ?ChatParse@CPacketParser@@QAEXPAE@Z 004ac620 f   PacketParser.obj
 0001:000abd60       ?Conv2ServerMapPos@CPacketParser@@SA?AVCPoint@@V2@@Z 004acd60 f   PacketParser.obj
 0001:000abe60       ?Conv2ClientMapPos@CPacketParser@@SA?AVCPoint@@V2@@Z 004ace60 f   PacketParser.obj
 0001:000abee0       ?ArrowMagicRailAttackProcess@CPacketParser@@QAEXPAE@Z 004acee0 f   PacketParser.obj
 0001:000ac260       ?DeadProcess@CPacketParser@@QAEXPAE@Z 004ad260 f   PacketParser.obj
 0001:000ac2f0       ?Magic_ReadyProcess@CPacketParser@@QAEXPAE@Z 004ad2f0 f   PacketParser.obj
 0001:000ac3e0       ?Magic_CircleProcess@CPacketParser@@QAEXPAE@Z 004ad3e0 f   PacketParser.obj
 0001:000ac730       ?Magic_PoisonProcess@CPacketParser@@QAEXPAE@Z 004ad730 f   PacketParser.obj
 0001:000ac7c0       ?CharStateChange@CPacketParser@@QAEXPAE@Z 004ad7c0 f   PacketParser.obj
 0001:000ac840       ?SetTimeProcess@CPacketParser@@QAEXPAE@Z 004ad840 f   PacketParser.obj
 0001:000ac990       ?ShowMagicProcess@CPacketParser@@QAEXPAE@Z 004ad990 f   PacketParser.obj
 0001:000aca50       ?BattleModeProcess@CPacketParser@@QAEXPAE@Z 004ada50 f   PacketParser.obj
 0001:000acbb0       ?ApplyWeight@CPacketParser@@QAEXPAE@Z 004adbb0 f   PacketParser.obj
 0001:000acc20       ?ChangeItemInfo@CPacketParser@@QAEXPAE@Z 004adc20 f   PacketParser.obj
 0001:000ad070       ?ConnectInfoProcess@CPacketParser@@QAEXPAE@Z 004ae070 f   PacketParser.obj
 0001:000ad210       ?OpenGuildMenu@CPacketParser@@QAEXPAE@Z 004ae210 f   PacketParser.obj
 0001:000ad3a0       ?Lookup@?$CMap@HHPAVCMyMagicData@@PAV1@@@QBEHHAAPAVCMyMagicData@@@Z 004ae3a0 f i PacketParser.obj
 0001:000ad410       ?GetCount@?$CList@VCPoint@@V1@@@QBEHXZ 004ae410 f i PacketParser.obj
 0001:000ad440       ?IsEmpty@?$CList@VCPoint@@V1@@@QBEHXZ 004ae440 f i PacketParser.obj
 0001:000ad480       ?GetHead@?$CList@VCPoint@@V1@@@QAEAAVCPoint@@XZ 004ae480 f i PacketParser.obj
 0001:000ad4e0       ?GetTail@?$CList@VCPoint@@V1@@@QAEAAVCPoint@@XZ 004ae4e0 f i PacketParser.obj
 0001:000ad540       ?RemoveHead@?$CList@VCPoint@@V1@@@QAE?AVCPoint@@XZ 004ae540 f i PacketParser.obj
 0001:000ad640       ?RemoveAll@?$CList@VCPoint@@V1@@@QAEXXZ 004ae640 f i PacketParser.obj
 0001:000ad6f0       ?GetAssocAt@?$CMap@HHPAVCMyMagicData@@PAV1@@@IBEPAUCAssoc@1@HAAI@Z 004ae6f0 f i PacketParser.obj
 0001:000ad790       ?FreeNode@?$CList@VCPoint@@V1@@@IAEXPAUCNode@1@@Z 004ae790 f i PacketParser.obj
 0001:000ad830       ??0CPathFind@@QAE@XZ       004ae830 f   PathFind.obj
 0001:000ad8e0       ??_GCPathFind@@UAEPAXI@Z   004ae8e0 f i PathFind.obj
 0001:000ad8e0       ??_ECPathFind@@UAEPAXI@Z   004ae8e0 f i PathFind.obj
 0001:000ad940       ??1CPathFind@@UAE@XZ       004ae940 f   PathFind.obj
 0001:000adac0       ?ClearData@CPathFind@@QAEXXZ 004aeac0 f   PathFind.obj
 0001:000adbc0       ?SetAllocedMap@CPathFind@@QAEXHHPAPAE@Z 004aebc0 f   PathFind.obj
 0001:000addc0       ?SetAllocedHouseMap@CPathFind@@QAEXHHPAPAE@Z 004aedc0 f   PathFind.obj
 0001:000ae0e0       ?FindPath@CPathFind@@QAEPAVNODE@@HHHH@Z 004af0e0 f   PathFind.obj
 0001:000ae2a0       ?FindPath@CPathFind@@QAEXPAV?$CList@VCPoint@@V1@@@HHHH@Z 004af2a0 f   PathFind.obj
 0001:000ae4a0       ?FindPath@CPathFind@@QAEPAVNODE@@AAVCDC@@HHHHHH@Z 004af4a0 f   PathFind.obj
 0001:000ae6e0       ?DisplayData@CPathFind@@QAEXHHH@Z 004af6e0 f   PathFind.obj
 0001:000ae7c0       ?ReturnBestNode@CPathFind@@QAEPAVNODE@@XZ 004af7c0 f   PathFind.obj
 0001:000ae830       ?FindChildPath@CPathFind@@QAEXPAVNODE@@HH@Z 004af830 f   PathFind.obj
 0001:000aeab0       ?FindChildPathSub@CPathFind@@QAEXPAVNODE@@HHHHH@Z 004afab0 f   PathFind.obj
 0001:000aed30       ?CheckOpen@CPathFind@@QAEPAVNODE@@HH@Z 004afd30 f   PathFind.obj
 0001:000aed90       ?CheckClosed@CPathFind@@QAEPAVNODE@@HH@Z 004afd90 f   PathFind.obj
 0001:000aedf0       ?Insert@CPathFind@@QAEXPAVNODE@@@Z 004afdf0 f   PathFind.obj
 0001:000aee80       ?PropagateDown@CPathFind@@QAEXPAVNODE@@@Z 004afe80 f   PathFind.obj
 0001:000aefc0       ?Push@CPathFind@@QAEXPAVNODE@@@Z 004affc0 f   PathFind.obj
 0001:000af030       ?Pop@CPathFind@@QAEPAVNODE@@XZ 004b0030 f   PathFind.obj
 0001:000af0a0       ?IsBlankMap@CPathFind@@QAEHHH@Z 004b00a0 f   PathFind.obj
 0001:000af110       ?IsMovable@CPathFind@@QAEHHH@Z 004b0110 f   PathFind.obj
 0001:000af1a0       ?LockCell@CPathFind@@QAEXAAVCPoint@@@Z 004b01a0 f   PathFind.obj
 0001:000af210       ?FreeCell@CPathFind@@QAEXAAVCPoint@@@Z 004b0210 f   PathFind.obj
 0001:000af280       ?GetMapData@CPathFind@@QAEHVCPoint@@@Z 004b0280 f   PathFind.obj
 0001:000af2c0       ?GetHouseMapData@CPathFind@@QAEHVCPoint@@@Z 004b02c0 f   PathFind.obj
 0001:000af300       ?FindPath2@CPathFind@@QAEXPAV?$CList@VCPoint@@V1@@@HHHHHH@Z 004b0300 f   PathFind.obj
 0001:000b0a00       ?SetMovable@CPathFind@@QAEHVCPoint@@_N@Z 004b1a00 f   PathFind.obj
 0001:000b0a70       ?AddHead@?$CList@VCPoint@@V1@@@QAEPAU__POSITION@@VCPoint@@@Z 004b1a70 f i PathFind.obj
 0001:000b0b10       ?AddTail@?$CList@VCPoint@@V1@@@QAEPAU__POSITION@@VCPoint@@@Z 004b1b10 f i PathFind.obj
 0001:000b0bb0       ?NewNode@?$CList@VCPoint@@V1@@@IAEPAUCNode@1@PAU21@0@Z 004b1bb0 f i PathFind.obj
 0001:000b0f10       ??0CRain@@QAE@XZ           004b1f10 f   Rain.obj
 0001:000b0fb0       ??_ECRain@@UAEPAXI@Z       004b1fb0 f i Rain.obj
 0001:000b0fb0       ??_GCRain@@UAEPAXI@Z       004b1fb0 f i Rain.obj
 0001:000b1010       ??1CRain@@UAE@XZ           004b2010 f   Rain.obj
 0001:000b1120       ?SetState@CRain@@SAXXZ     004b2120 f   Rain.obj
 0001:000b1260       ?RainMove@CRain@@QAEHXZ    004b2260 f   Rain.obj
 0001:000b1450       ?SetPosition@CRain@@QAEXXZ 004b2450 f   Rain.obj
 0001:000b1500       ?RainDraw@CRain@@QAEXU_DDSURFACEDESC2@@@Z 004b2500 f   Rain.obj
 0001:000b16e0       ?RainDrops@CRain@@QAEHHU_DDSURFACEDESC2@@VCPoint@@@Z 004b26e0 f   Rain.obj
 0001:000b1890       ?LightningEx@CRain@@SAHPAUIDirectDrawGammaControl@@PAU_DDGAMMARAMP@@1@Z 004b2890 f   Rain.obj
 0001:000b19d0       ?SetGammaRamp@CRain@@SAHPAUIDirectDrawGammaControl@@PAU_DDGAMMARAMP@@H@Z 004b29d0 f   Rain.obj
 0001:000b1b70       ?LoadRainDrops@CRain@@SAHPAD@Z 004b2b70 f   Rain.obj
 0001:000b1dc0       ?GetClippedRect@CRain@@QAEHPAUtagRECT@@0@Z 004b2dc0 f   Rain.obj
 0001:000b1e80       ?BltLSPNormal@CRain@@QAEXU_DDSURFACEDESC2@@HHPAUtagRECT@@PAG@Z 004b2e80 f   Rain.obj
 0001:000b2310       ?PutPixelHalf@CUser@@SAXPBG0HKK@Z 004b3310 f i Rain.obj
 0001:000b2390       ??0?$CArray@PAGPAG@@QAE@XZ 004b3390 f i Rain.obj
 0001:000b2400       ?GetSize@?$CArray@PAGPAG@@QBEHXZ 004b3400 f i Rain.obj
 0001:000b2430       ?RemoveAll@?$CArray@PAGPAG@@QAEXXZ 004b3430 f i Rain.obj
 0001:000b2470       ?GetAt@?$CArray@PAGPAG@@QBEPAGH@Z 004b3470 f i Rain.obj
 0001:000b24e0       ?Add@?$CArray@PAGPAG@@QAEHPAG@Z 004b34e0 f i Rain.obj
 0001:000b2530       ??1?$CArray@PAGPAG@@UAE@XZ 004b3530 f i Rain.obj
 0001:000b25e0       ?Serialize@?$CArray@PAGPAG@@UAEXAAVCArchive@@@Z 004b35e0 f i Rain.obj
 0001:000b2680       ?Dump@?$CArray@PAGPAG@@UBEXAAVCDumpContext@@@Z 004b3680 f i Rain.obj
 0001:000b2720       ?AssertValid@?$CArray@PAGPAG@@UBEXXZ 004b3720 f i Rain.obj
 0001:000b2850       ??0?$CArray@PAU_SPR_LSP@@PAU1@@@QAE@XZ 004b3850 f i Rain.obj
 0001:000b28c0       ?GetSize@?$CArray@PAU_SPR_LSP@@PAU1@@@QBEHXZ 004b38c0 f i Rain.obj
 0001:000b28f0       ?RemoveAll@?$CArray@PAU_SPR_LSP@@PAU1@@@QAEXXZ 004b38f0 f i Rain.obj
 0001:000b2930       ?GetAt@?$CArray@PAU_SPR_LSP@@PAU1@@@QBEPAU_SPR_LSP@@H@Z 004b3930 f i Rain.obj
 0001:000b29a0       ?Add@?$CArray@PAU_SPR_LSP@@PAU1@@@QAEHPAU_SPR_LSP@@@Z 004b39a0 f i Rain.obj
 0001:000b29f0       ??1?$CArray@PAU_SPR_LSP@@PAU1@@@UAE@XZ 004b39f0 f i Rain.obj
 0001:000b2aa0       ?Serialize@?$CArray@PAU_SPR_LSP@@PAU1@@@UAEXAAVCArchive@@@Z 004b3aa0 f i Rain.obj
 0001:000b2b40       ?Dump@?$CArray@PAU_SPR_LSP@@PAU1@@@UBEXAAVCDumpContext@@@Z 004b3b40 f i Rain.obj
 0001:000b2be0       ?AssertValid@?$CArray@PAU_SPR_LSP@@PAU1@@@UBEXXZ 004b3be0 f i Rain.obj
 0001:000b2d10       ??_E?$CArray@PAGPAG@@UAEPAXI@Z 004b3d10 f i Rain.obj
 0001:000b2d10       ??_G?$CArray@PAGPAG@@UAEPAXI@Z 004b3d10 f i Rain.obj
 0001:000b2d60       ??_E?$CArray@PAU_SPR_LSP@@PAU1@@@UAEPAXI@Z 004b3d60 f i Rain.obj
 0001:000b2d60       ??_G?$CArray@PAU_SPR_LSP@@PAU1@@@UAEPAXI@Z 004b3d60 f i Rain.obj
 0001:000b2db0       ?SetSize@?$CArray@PAGPAG@@QAEXHH@Z 004b3db0 f i Rain.obj
 0001:000b30d0       ?SetAtGrow@?$CArray@PAGPAG@@QAEXHPAG@Z 004b40d0 f i Rain.obj
 0001:000b3160       ?DestructElements@@YGXPAPAGH@Z 004b4160 f i Rain.obj
 0001:000b31e0       ?SerializeElements@@YGXAAVCArchive@@PAPAGH@Z 004b41e0 f i Rain.obj
 0001:000b3280       ?DumpElements@@YGXAAVCDumpContext@@PBQAGH@Z 004b4280 f i Rain.obj
 0001:000b32e0       ?SetSize@?$CArray@PAU_SPR_LSP@@PAU1@@@QAEXHH@Z 004b42e0 f i Rain.obj
 0001:000b3600       ?SetAtGrow@?$CArray@PAU_SPR_LSP@@PAU1@@@QAEXHPAU_SPR_LSP@@@Z 004b4600 f i Rain.obj
 0001:000b3690       ?DestructElements@@YGXPAPAU_SPR_LSP@@H@Z 004b4690 f i Rain.obj
 0001:000b3710       ?SerializeElements@@YGXAAVCArchive@@PAPAU_SPR_LSP@@H@Z 004b4710 f i Rain.obj
 0001:000b37b0       ?DumpElements@@YGXAAVCDumpContext@@PBQAU_SPR_LSP@@H@Z 004b47b0 f i Rain.obj
 0001:000b3810       ?ConstructElements@@YGXPAPAGH@Z 004b4810 f i Rain.obj
 0001:000b38c0       ?ConstructElements@@YGXPAPAU_SPR_LSP@@H@Z 004b48c0 f i Rain.obj
 0001:000b3970       ??0SLoadingView@@QAE@XZ    004b4970 f   SLoadingView.obj
 0001:000b39c0       ??_GSLoadingView@@UAEPAXI@Z 004b49c0 f i SLoadingView.obj
 0001:000b39c0       ??_ESLoadingView@@UAEPAXI@Z 004b49c0 f i SLoadingView.obj
 0001:000b3a20       ??1SLoadingView@@UAE@XZ    004b4a20 f   SLoadingView.obj
 0001:000b3a60       ?Create@SLoadingView@@QAEHPAVCDirectDraw@@VCString@@HHH@Z 004b4a60 f   SLoadingView.obj
 0001:000b3c00       ?Draw@SLoadingView@@UAEHPAVCDDSurface@@@Z 004b4c00 f   SLoadingView.obj
 0001:000b3c50       ??0SocketMng@@QAE@XZ       004b4c50 f   SocketMng.obj
 0001:000b3d70       ??_GSocketMng@@UAEPAXI@Z   004b4d70 f i SocketMng.obj
 0001:000b3d70       ??_ESocketMng@@UAEPAXI@Z   004b4d70 f i SocketMng.obj
 0001:000b3dd0       ??1?$CTypedPtrList@VCPtrList@@PAVDataPack@@@@UAE@XZ 004b4dd0 f i SocketMng.obj
 0001:000b3e10       ??1?$_CTypedPtrList@VCPtrList@@PAVDataPack@@@@UAE@XZ 004b4e10 f i SocketMng.obj
 0001:000b3e50       ??1SocketMng@@UAE@XZ       004b4e50 f   SocketMng.obj
 0001:000b4030       ?EndManage@SocketMng@@QAEHXZ 004b5030 f   SocketMng.obj
 0001:000b4100       ?InitManage@SocketMng@@QAEHXZ 004b5100 f   SocketMng.obj
 0001:000b4220       ?ThreadRProc@SocketMng@@SAIPAX@Z 004b5220 f   SocketMng.obj
 0001:000b4250       ?ReceiveProcess@SocketMng@@SAHPAV1@@Z 004b5250 f   SocketMng.obj
 0001:000b4490       ?GetReceiveBuffer@BB_Socket@@QAEPAVBB_CircularBuffer@@XZ 004b5490 f i SocketMng.obj
 0001:000b44c0       ?GetData@BB_CircularBuffer@@QAEXPAEH@Z 004b54c0 f i SocketMng.obj
 0001:000b45a0       ?HeadIncrease@BB_CircularBuffer@@QAEHH@Z 004b55a0 f i SocketMng.obj
 0001:000b4630       ?SendProcess@SocketMng@@SAHPAV1@@Z 004b5630 f   SocketMng.obj
 0001:000b4660       ?ThreadSProc@SocketMng@@SAIPAX@Z 004b5660 f   SocketMng.obj
 0001:000b4690       ?RemoveEvents@SocketMng@@IAEXH@Z 004b5690 f   SocketMng.obj
 0001:000b46c0       ?CreateEvents@SocketMng@@IAEXH@Z 004b56c0 f   SocketMng.obj
 0001:000b46f0       ?TriggerSend@SocketMng@@QAEXXZ 004b56f0 f   SocketMng.obj
 0001:000b4720       ?TriggerReceive@SocketMng@@QAEXXZ 004b5720 f   SocketMng.obj
 0001:000b4760       ?ConnectSocket@SocketMng@@QAEHXZ 004b5760 f   SocketMng.obj
 0001:000b4820       ?ConnectGameSocket@SocketMng@@QAEHVCString@@I@Z 004b5820 f   SocketMng.obj
 0001:000b4940       ?Send@SocketMng@@QAEXHPAE@Z 004b5940 f   SocketMng.obj
 0001:000b4a40       ?SendRawPacket@SocketMng@@QAEXHPAE@Z 004b5a40 f   SocketMng.obj
 0001:000b4b30       ?AddReceiveData@SocketMng@@QAEXHPAE@Z 004b5b30 f   SocketMng.obj
 0001:000b4c10       ?RawPacketReceive@SocketMng@@QAEXXZ 004b5c10 f   SocketMng.obj
 0001:000b4d50       ?SendAcountLogin@SocketMng@@QAEXXZ 004b5d50 f   SocketMng.obj
 0001:000b4e20       ?SendLogin@SocketMng@@QAEXXZ 004b5e20 f   SocketMng.obj
 0001:000b4f00       ?SendLogout@SocketMng@@QAEXF@Z 004b5f00 f   SocketMng.obj
 0001:000b4f70       ?SendChat@SocketMng@@QAEXAAVCString@@H@Z 004b5f70 f   SocketMng.obj
 0001:000b5110       ?GetCurMemoChatId@CChildView@@QAE?AVCString@@XZ 004b6110 f i SocketMng.obj
 0001:000b5170       ??0?$CTypedPtrList@VCPtrList@@PAVDataPack@@@@QAE@H@Z 004b6170 f i SocketMng.obj
 0001:000b51c0       ?AddTail@?$CTypedPtrList@VCPtrList@@PAVDataPack@@@@QAEPAU__POSITION@@PAVDataPack@@@Z 004b61c0 f i SocketMng.obj
 0001:000b5200       ??_E?$CTypedPtrList@VCPtrList@@PAVDataPack@@@@UAEPAXI@Z 004b6200 f i SocketMng.obj
 0001:000b5200       ??_G?$CTypedPtrList@VCPtrList@@PAVDataPack@@@@UAEPAXI@Z 004b6200 f i SocketMng.obj
 0001:000b5250       ??0?$_CTypedPtrList@VCPtrList@@PAVDataPack@@@@QAE@H@Z 004b6250 f i SocketMng.obj
 0001:000b52a0       ??_E?$_CTypedPtrList@VCPtrList@@PAVDataPack@@@@UAEPAXI@Z 004b62a0 f i SocketMng.obj
 0001:000b52a0       ??_G?$_CTypedPtrList@VCPtrList@@PAVDataPack@@@@UAEPAXI@Z 004b62a0 f i SocketMng.obj
 0001:000b52f0       ?_GetBaseMessageMap@CSomaApp@@KGPBUAFX_MSGMAP@@XZ 004b62f0 f   Soma.obj
 0001:000b5320       ?GetMessageMap@CSomaApp@@MBEPBUAFX_MSGMAP@@XZ 004b6320 f   Soma.obj
 0001:000b5350       ??0CSomaApp@@QAE@XZ        004b6350 f   Soma.obj
 0001:000b53b0       ??_GCSomaApp@@UAEPAXI@Z    004b63b0 f i Soma.obj
 0001:000b53b0       ??_ECSomaApp@@UAEPAXI@Z    004b63b0 f i Soma.obj
 0001:000b5400       ??1CSomaApp@@UAE@XZ        004b6400 f i Soma.obj
 0001:000b5540       ?InitInstance@CSomaApp@@UAEHXZ 004b6540 f   Soma.obj
 0001:000b5920       ?Run@CSomaApp@@UAEHXZ      004b6920 f   Soma.obj
 0001:000b5b10       ?ExitInstance@CSomaApp@@UAEHXZ 004b6b10 f   Soma.obj
 0001:000b5be0       ?CommandLineParsing@CSomaApp@@QAEHAAVCString@@@Z 004b6be0 f   Soma.obj
 0001:000b5c50       ??0SWater@@QAE@XZ          004b6c50 f   SWater.obj
 0001:000b5ca0       ?InputData@SWater@@QAEXHH@Z 004b6ca0 f   SWater.obj
 0001:000b5dd0       ?Draw@SWater@@QAEXU_DDSURFACEDESC2@@@Z 004b6dd0 f   SWater.obj
 0001:000b6160       ??0CTileMapTool@@QAE@XZ    004b7160 f   tilemaptool.obj
 0001:000b6200       ??_GCTileMapTool@@UAEPAXI@Z 004b7200 f i tilemaptool.obj
 0001:000b6200       ??_ECTileMapTool@@UAEPAXI@Z 004b7200 f i tilemaptool.obj
 0001:000b6260       ??1CTileMapTool@@UAE@XZ    004b7260 f   tilemaptool.obj
 0001:000b6380       ?ToolDataGet@CTileMapTool@@QAEPAU_TILE_MAP_DATA_TOOL@@HHH@Z 004b7380 f   tilemaptool.obj
 0001:000b6410       ?New@CTileMapTool@@QAEXXZ  004b7410 f   tilemaptool.obj
 0001:000b6450       ?LoadFromToolData@CTileMapTool@@QAEXPBD@Z 004b7450 f   tilemaptool.obj
 0001:000b6900       ?SaveToToolData@CTileMapTool@@QAEXPBD@Z 004b7900 f   tilemaptool.obj
 0001:000b6930       ?SaveToGameFormat@CTileMapTool@@QAEXPBDK@Z 004b7930 f   tilemaptool.obj
 0001:000b6960       ?ReAlloc@CTileMapTool@@QAEXHH@Z 004b7960 f   tilemaptool.obj
 0001:000b6b40       ?ReleaseEx@CTileMapTool@@QAEXXZ 004b7b40 f   tilemaptool.obj
 0001:000b6c70       ?AllocTool@CTileMapTool@@QAEXHH@Z 004b7c70 f   tilemaptool.obj
 0001:000b6dc0       ??0_TILE_SET_TOOL@@QAE@XZ  004b7dc0 f   tilesettool.obj
 0001:000b6e10       ??1_TILE_SET_TOOL@@QAE@XZ  004b7e10 f   tilesettool.obj
 0001:000b6eb0       ??0CTileSetTool@@QAE@XZ    004b7eb0 f   tilesettool.obj
 0001:000b6f00       ??_GCTileSetTool@@UAEPAXI@Z 004b7f00 f i tilesettool.obj
 0001:000b6f00       ??_ECTileSetTool@@UAEPAXI@Z 004b7f00 f i tilesettool.obj
 0001:000b6f60       ??1CTileSetTool@@UAE@XZ    004b7f60 f   tilesettool.obj
 0001:000b6fe0       ?DataGetSafe@CTileSetTool@@QAEPAV_TILE_SUB_SET_DATA_TOOL@@HH@Z 004b7fe0 f   tilesettool.obj
 0001:000b7060       ?GetTileSet@CTileSetTool@@QAEPAV_TILE_SET_TOOL@@H@Z 004b8060 f   tilesettool.obj
 0001:000b70b0       ?DataGetPos@CTileSetTool@@QAEPAUtagPOINT@@HHHH@Z 004b80b0 f   tilesettool.obj
 0001:000b7110       ?GetPos@_TILE_SUB_SET_DATA_TOOL@@QAEPAUtagPOINT@@HH@Z 004b8110 f i tilesettool.obj
 0001:000b7180       ?DataGetPosCur@CTileSetTool@@QAEPAUtagPOINT@@HHH@Z 004b8180 f   tilesettool.obj
 0001:000b71e0       ?GetPosCur@_TILE_SUB_SET_DATA_TOOL@@QAEPAUtagPOINT@@H@Z 004b81e0 f i tilesettool.obj
 0001:000b7250       ?DataGetFlagCur@CTileSetTool@@QAEPAHHHH@Z 004b8250 f   tilesettool.obj
 0001:000b72b0       ?GetFlagCur@_TILE_SUB_SET_DATA_TOOL@@QAEPAHH@Z 004b82b0 f i tilesettool.obj
 0001:000b7320       ?ReleaseAll@CTileSetTool@@QAEXXZ 004b8320 f   tilesettool.obj
 0001:000b73b0       ??_G_TILE_SET_TOOL@@QAEPAXI@Z 004b83b0 f i tilesettool.obj
 0001:000b7410       ?Load@CTileSetTool@@QAEXPBD@Z 004b8410 f   tilesettool.obj
 0001:000b76e0       ??_E_TILE_SUB_SET_DATA_TOOL@@UAEPAXI@Z 004b86e0 f i tilesettool.obj
 0001:000b7780       ?ResetAni@CTileSetTool@@QAEXXZ 004b8780 f   tilesettool.obj
 0001:000b7820       ?Increase@CTileSetTool@@QAEXXZ 004b8820 f   tilesettool.obj
 0001:000b78c0       ?Decrease@CTileSetTool@@QAEXXZ 004b88c0 f   tilesettool.obj
 0001:000b7960       ??0?$CMap@HHPAV_TILE_SET_TOOL@@PAV1@@@QAE@H@Z 004b8960 f i tilesettool.obj
 0001:000b7a30       ?Lookup@?$CMap@HHPAV_TILE_SET_TOOL@@PAV1@@@QBEHHAAPAV_TILE_SET_TOOL@@@Z 004b8a30 f i tilesettool.obj
 0001:000b7aa0       ??A?$CMap@HHPAV_TILE_SET_TOOL@@PAV1@@@QAEAAPAV_TILE_SET_TOOL@@H@Z 004b8aa0 f i tilesettool.obj
 0001:000b7b60       ?RemoveAll@?$CMap@HHPAV_TILE_SET_TOOL@@PAV1@@@QAEXXZ 004b8b60 f i tilesettool.obj
 0001:000b7c50       ??1?$CMap@HHPAV_TILE_SET_TOOL@@PAV1@@@UAE@XZ 004b8c50 f i tilesettool.obj
 0001:000b7cf0       ?Serialize@?$CMap@HHPAV_TILE_SET_TOOL@@PAV1@@@UAEXAAVCArchive@@@Z 004b8cf0 f i tilesettool.obj
 0001:000b7e40       ?Dump@?$CMap@HHPAV_TILE_SET_TOOL@@PAV1@@@UBEXAAVCDumpContext@@@Z 004b8e40 f i tilesettool.obj
 0001:000b7f20       ?AssertValid@?$CMap@HHPAV_TILE_SET_TOOL@@PAV1@@@UBEXXZ 004b8f20 f i tilesettool.obj
 0001:000b7fb0       ??_E?$CMap@HHPAV_TILE_SET_TOOL@@PAV1@@@UAEPAXI@Z 004b8fb0 f i tilesettool.obj
 0001:000b7fb0       ??_G?$CMap@HHPAV_TILE_SET_TOOL@@PAV1@@@UAEPAXI@Z 004b8fb0 f i tilesettool.obj
 0001:000b8000       ?SetAt@?$CMap@HHPAV_TILE_SET_TOOL@@PAV1@@@QAEXHPAV_TILE_SET_TOOL@@@Z 004b9000 f i tilesettool.obj
 0001:000b8050       ?InitHashTable@?$CMap@HHPAV_TILE_SET_TOOL@@PAV1@@@QAEXIH@Z 004b9050 f i tilesettool.obj
 0001:000b8150       ?NewAssoc@?$CMap@HHPAV_TILE_SET_TOOL@@PAV1@@@IAEPAUCAssoc@1@XZ 004b9150 f i tilesettool.obj
 0001:000b8290       ?GetAssocAt@?$CMap@HHPAV_TILE_SET_TOOL@@PAV1@@@IBEPAUCAssoc@1@HAAI@Z 004b9290 f i tilesettool.obj
 0001:000b8330       ?DestructElements@@YGXPAPAV_TILE_SET_TOOL@@H@Z 004b9330 f i tilesettool.obj
 0001:000b83b0       ?SerializeElements@@YGXAAVCArchive@@PAPAV_TILE_SET_TOOL@@H@Z 004b93b0 f i tilesettool.obj
 0001:000b8450       ?DumpElements@@YGXAAVCDumpContext@@PBQAV_TILE_SET_TOOL@@H@Z 004b9450 f i tilesettool.obj
 0001:000b84b0       ?ConstructElements@@YGXPAPAV_TILE_SET_TOOL@@H@Z 004b94b0 f i tilesettool.obj
 0001:000b8560       ??0CTransObjData@@QAE@XZ   004b9560 f   TransObj.obj
 0001:000b85c0       ??_ECTransObjData@@UAEPAXI@Z 004b95c0 f i TransObj.obj
 0001:000b85c0       ??_GCTransObjData@@UAEPAXI@Z 004b95c0 f i TransObj.obj
 0001:000b8620       ??1CTransObjData@@UAE@XZ   004b9620 f   TransObj.obj
 0001:000b8650       ?TransDegree@CTransObjData@@QAEHPAH0H@Z 004b9650 f   TransObj.obj
 0001:000b8730       ??0CTransObj@@QAE@XZ       004b9730 f   TransObj.obj
 0001:000b8780       ??_GCTransObj@@UAEPAXI@Z   004b9780 f i TransObj.obj
 0001:000b8780       ??_ECTransObj@@UAEPAXI@Z   004b9780 f i TransObj.obj
 0001:000b87e0       ??1CTransObj@@UAE@XZ       004b97e0 f   TransObj.obj
 0001:000b88c0       ?TransDegree@CTransObj@@QAEHHPAH0H@Z 004b98c0 f   TransObj.obj
 0001:000b8ad0       ??0?$CMap@HHPAVCTransObjData@@PAV1@@@QAE@H@Z 004b9ad0 f i TransObj.obj
 0001:000b8ba0       ?Lookup@?$CMap@HHPAVCTransObjData@@PAV1@@@QBEHHAAPAVCTransObjData@@@Z 004b9ba0 f i TransObj.obj
 0001:000b8c10       ??A?$CMap@HHPAVCTransObjData@@PAV1@@@QAEAAPAVCTransObjData@@H@Z 004b9c10 f i TransObj.obj
 0001:000b8cd0       ?RemoveKey@?$CMap@HHPAVCTransObjData@@PAV1@@@QAEHH@Z 004b9cd0 f i TransObj.obj
 0001:000b8d90       ?RemoveAll@?$CMap@HHPAVCTransObjData@@PAV1@@@QAEXXZ 004b9d90 f i TransObj.obj
 0001:000b8e80       ?GetStartPosition@?$CMap@HHPAVCTransObjData@@PAV1@@@QBEPAU__POSITION@@XZ 004b9e80 f i TransObj.obj
 0001:000b8eb0       ?GetNextAssoc@?$CMap@HHPAVCTransObjData@@PAV1@@@QBEXAAPAU__POSITION@@AAHAAPAVCTransObjData@@@Z 004b9eb0 f i TransObj.obj
 0001:000b9030       ??1?$CMap@HHPAVCTransObjData@@PAV1@@@UAE@XZ 004ba030 f i TransObj.obj
 0001:000b90d0       ?Serialize@?$CMap@HHPAVCTransObjData@@PAV1@@@UAEXAAVCArchive@@@Z 004ba0d0 f i TransObj.obj
 0001:000b9220       ?Dump@?$CMap@HHPAVCTransObjData@@PAV1@@@UBEXAAVCDumpContext@@@Z 004ba220 f i TransObj.obj
 0001:000b9300       ?AssertValid@?$CMap@HHPAVCTransObjData@@PAV1@@@UBEXXZ 004ba300 f i TransObj.obj
 0001:000b9390       ??_E?$CMap@HHPAVCTransObjData@@PAV1@@@UAEPAXI@Z 004ba390 f i TransObj.obj
 0001:000b9390       ??_G?$CMap@HHPAVCTransObjData@@PAV1@@@UAEPAXI@Z 004ba390 f i TransObj.obj
 0001:000b93e0       ?SetAt@?$CMap@HHPAVCTransObjData@@PAV1@@@QAEXHPAVCTransObjData@@@Z 004ba3e0 f i TransObj.obj
 0001:000b9430       ?InitHashTable@?$CMap@HHPAVCTransObjData@@PAV1@@@QAEXIH@Z 004ba430 f i TransObj.obj
 0001:000b9530       ?NewAssoc@?$CMap@HHPAVCTransObjData@@PAV1@@@IAEPAUCAssoc@1@XZ 004ba530 f i TransObj.obj
 0001:000b9670       ?FreeAssoc@?$CMap@HHPAVCTransObjData@@PAV1@@@IAEXPAUCAssoc@1@@Z 004ba670 f i TransObj.obj
 0001:000b9720       ?GetAssocAt@?$CMap@HHPAVCTransObjData@@PAV1@@@IBEPAUCAssoc@1@HAAI@Z 004ba720 f i TransObj.obj
 0001:000b97c0       ?DestructElements@@YGXPAPAVCTransObjData@@H@Z 004ba7c0 f i TransObj.obj
 0001:000b9840       ?SerializeElements@@YGXAAVCArchive@@PAPAVCTransObjData@@H@Z 004ba840 f i TransObj.obj
 0001:000b98e0       ?DumpElements@@YGXAAVCDumpContext@@PBQAVCTransObjData@@H@Z 004ba8e0 f i TransObj.obj
 0001:000b9940       ?ConstructElements@@YGXPAPAVCTransObjData@@H@Z 004ba940 f i TransObj.obj
 0001:000b99f0       ??0CTWFont@@QAE@XZ         004ba9f0 f   TWFont.obj
 0001:000b9ac0       ??1CTWFont@@QAE@XZ         004baac0 f   TWFont.obj
 0001:000b9b60       ?TextOutA@CTWFont@@QAEXVCPoint@@PBDKAAVCDC@@I@Z 004bab60 f   TWFont.obj
 0001:000b9c20       ?TextOutClip@CTWFont@@QAEHVCRect@@PBDKAAVCDC@@HH@Z 004bac20 f   TWFont.obj
 0001:000b9cf0       ?CreateFontA@CTWFont@@QAEHVCString@@HH@Z 004bacf0 f   TWFont.obj
 0001:000b9f10       ?ChangeFont@CTWFont@@QAEHVCString@@HH@Z 004baf10 f   TWFont.obj
 0001:000ba140       ?CreateFontWithoutPath@CTWFont@@QAEHVCString@@HH@Z 004bb140 f   TWFont.obj
 0001:000ba230       ?ChangeFontWithoutPath@CTWFont@@QAEHVCString@@HH@Z 004bb230 f   TWFont.obj
 0001:000ba320       ?CreateFontA@CTWFont@@QAEHVCString@@H@Z 004bb320 f   TWFont.obj
 0001:000ba3b0       ?TextOutA@CTWFont@@QAEXVCPoint@@PBDEAAU_DDSURFACEDESC2@@I@Z 004bb3b0 f   TWFont.obj
 0001:000ba820       ?TextOutHi@CTWFont@@QAEXVCPoint@@PBDGAAU_DDSURFACEDESC2@@I@Z 004bb820 f   TWFont.obj
 0001:000baca0       ?TextOutClip@CTWFont@@QAEHVCRect@@PBDEAAU_DDSURFACEDESC2@@HHHHH@Z 004bbca0 f   TWFont.obj
 0001:000bb340       ?TextOutClipHi@CTWFont@@QAEHVCRect@@PBDGAAU_DDSURFACEDESC2@@HHHHH@Z 004bc340 f   TWFont.obj
 0001:000bba60       ?CaretDraw@CTWFont@@AAEXVCPoint@@EAAU_DDSURFACEDESC2@@@Z 004bca60 f   TWFont.obj
 0001:000bbb00       ?CaretDrawHi@CTWFont@@AAEXVCPoint@@GAAU_DDSURFACEDESC2@@@Z 004bcb00 f   TWFont.obj
 0001:000bbbc0       ?DrawChar@CTWFont@@AAEXPAEVCPoint@@EAAU_DDSURFACEDESC2@@H@Z 004bcbc0 f   TWFont.obj
 0001:000bbd60       ?DrawCharHi@CTWFont@@AAEXPAEVCPoint@@GAAU_DDSURFACEDESC2@@H@Z 004bcd60 f   TWFont.obj
 0001:000bbf50       ?GetLineWidth@CTWFont@@QAEHPBD@Z 004bcf50 f   TWFont.obj
 0001:000bc160       ?GetWordWidth@CTWFont@@QAEHPBD@Z 004bd160 f   TWFont.obj
 0001:000bc2f0       ?SplitString@CTWFont@@QAEXPBDPAD1H@Z 004bd2f0 f   TWFont.obj
 0001:000bc590       ?ChatOut@CTWFont@@QAEHVCRect@@PBDGAAU_DDSURFACEDESC2@@HH@Z 004bd590 f   TWFont.obj
 0001:000bcbf0       ?GetChatLineCount@CTWFont@@QAEHHPBD@Z 004bdbf0 f   TWFont.obj
 0001:000bcf50       ??0CUIHorzScrollBar@@QAE@XZ 004bdf50 f   UIHorzScrollBar.obj
 0001:000bcfd0       ??_GCUIHorzScrollBar@@UAEPAXI@Z 004bdfd0 f i UIHorzScrollBar.obj
 0001:000bcfd0       ??_ECUIHorzScrollBar@@UAEPAXI@Z 004bdfd0 f i UIHorzScrollBar.obj
 0001:000bd030       ??1CUIHorzScrollBar@@UAE@XZ 004be030 f   UIHorzScrollBar.obj
 0001:000bd060       ?OnLButtonDown@CUIHorzScrollBar@@QAEHPAVBBDX_MouseInformation@@@Z 004be060 f   UIHorzScrollBar.obj
 0001:000bd130       ?OnLButtonUp@CUIHorzScrollBar@@QAEHPAVBBDX_MouseInformation@@@Z 004be130 f   UIHorzScrollBar.obj
 0001:000bd2a0       ?OnMouseMove@CUIHorzScrollBar@@QAEHPAVBBDX_MouseInformation@@@Z 004be2a0 f   UIHorzScrollBar.obj
 0001:000bd460       ?Create@CUIHorzScrollBar@@QAEHPAVCUIRes@@VCRect@@H@Z 004be460 f   UIHorzScrollBar.obj
 0001:000bd570       ?Draw@CUIHorzScrollBar@@QAEXPAVCDDSurface@@@Z 004be570 f   UIHorzScrollBar.obj
 0001:000bd6a0       ?InitScroll@CUIHorzScrollBar@@QAEXXZ 004be6a0 f   UIHorzScrollBar.obj
 0001:000bd710       ?SetStartLine@CUIHorzScrollBar@@QAEXH@Z 004be710 f   UIHorzScrollBar.obj
 0001:000bd870       ?SetEndPos@CUIHorzScrollBar@@QAEXXZ 004be870 f   UIHorzScrollBar.obj
 0001:000bd8d0       ??0CUIRes@@QAE@PAVCWnd@@@Z 004be8d0 f   UIRes.obj
 0001:000bdab0       ??_ECUIRes@@UAEPAXI@Z      004beab0 f i UIRes.obj
 0001:000bdab0       ??_GCUIRes@@UAEPAXI@Z      004beab0 f i UIRes.obj
 0001:000bdb10       ??0?$CTypedPtrArray@VCPtrArray@@PAVMAreaCtrl@@@@QAE@XZ 004beb10 f i UIRes.obj
 0001:000bdb60       ??1?$CTypedPtrArray@VCPtrArray@@PAVMAreaCtrl@@@@UAE@XZ 004beb60 f i UIRes.obj
 0001:000bdba0       ??0?$CTypedPtrArray@VCPtrArray@@PAVMBtnCtrl@@@@QAE@XZ 004beba0 f i UIRes.obj
 0001:000bdbf0       ??1?$CTypedPtrArray@VCPtrArray@@PAVMBtnCtrl@@@@UAE@XZ 004bebf0 f i UIRes.obj
 0001:000bdc30       ??0?$CTypedPtrArray@VCPtrArray@@PAVMBtnCtrlEx@@@@QAE@XZ 004bec30 f i UIRes.obj
 0001:000bdc80       ??1?$CTypedPtrArray@VCPtrArray@@PAVMBtnCtrlEx@@@@UAE@XZ 004bec80 f i UIRes.obj
 0001:000bdcc0       ??0?$CTypedPtrArray@VCPtrArray@@PAVMRectManager@@@@QAE@XZ 004becc0 f i UIRes.obj
 0001:000bdd10       ??1?$CTypedPtrArray@VCPtrArray@@PAVMRectManager@@@@UAE@XZ 004bed10 f i UIRes.obj
 0001:000bdd50       ??_G?$CTypedPtrArray@VCPtrArray@@PAVMAreaCtrl@@@@UAEPAXI@Z 004bed50 f i UIRes.obj
 0001:000bdd50       ??_E?$CTypedPtrArray@VCPtrArray@@PAVMAreaCtrl@@@@UAEPAXI@Z 004bed50 f i UIRes.obj
 0001:000bdda0       ??_E?$CTypedPtrArray@VCPtrArray@@PAVMBtnCtrl@@@@UAEPAXI@Z 004beda0 f i UIRes.obj
 0001:000bdda0       ??_G?$CTypedPtrArray@VCPtrArray@@PAVMBtnCtrl@@@@UAEPAXI@Z 004beda0 f i UIRes.obj
 0001:000bddf0       ??_E?$CTypedPtrArray@VCPtrArray@@PAVMBtnCtrlEx@@@@UAEPAXI@Z 004bedf0 f i UIRes.obj
 0001:000bddf0       ??_G?$CTypedPtrArray@VCPtrArray@@PAVMBtnCtrlEx@@@@UAEPAXI@Z 004bedf0 f i UIRes.obj
 0001:000bde40       ??_G?$CTypedPtrArray@VCPtrArray@@PAVMRectManager@@@@UAEPAXI@Z 004bee40 f i UIRes.obj
 0001:000bde40       ??_E?$CTypedPtrArray@VCPtrArray@@PAVMRectManager@@@@UAEPAXI@Z 004bee40 f i UIRes.obj
 0001:000bde90       ??1CUIRes@@UAE@XZ          004bee90 f   UIRes.obj
 0001:000be1d0       ?Create@CUIRes@@UAEHPAVCDirectDraw@@VCString@@HHHH@Z 004bf1d0 f   UIRes.obj
 0001:000be3d0       ?LoadResource@CUIRes@@IAEHXZ 004bf3d0 f   UIRes.obj
 0001:000bec80       ?Draw@CUIRes@@UAEHPAVCDDSurface@@@Z 004bfc80 f   UIRes.obj
 0001:000bed50       ?Draw3ButtonCtrl@CUIRes@@QAEHPAVCDDSurface@@HH@Z 004bfd50 f   UIRes.obj
 0001:000bf000       ?Draw4ButtonCtrl@CUIRes@@QAEHPAVCDDSurface@@HH@Z 004c0000 f   UIRes.obj
 0001:000bf3c0       ?OnLButtonDown@CUIRes@@UAEHPAVBBDX_MouseInformation@@@Z 004c03c0 f   UIRes.obj
 0001:000bf610       ?IsMoveable@CUIRes@@QAEHXZ 004c0610 f i UIRes.obj
 0001:000bf640       ?OnLButtonUp@CUIRes@@UAEHPAVBBDX_MouseInformation@@@Z 004c0640 f   UIRes.obj
 0001:000bf930       ?OnMouseMove@CUIRes@@UAEHPAVBBDX_MouseInformation@@@Z 004c0930 f   UIRes.obj
 0001:000bfc50       ?OnLButtonPressing@CUIRes@@UAEHVCPoint@@@Z 004c0c50 f   UIRes.obj
 0001:000bfd50       ?OnButtonAction@CUIRes@@UAEHHH@Z 004c0d50 f   UIRes.obj
 0001:000bfda0       ?OnButtonActionContinue@CUIRes@@UAEHH@Z 004c0da0 f   UIRes.obj
 0001:000bfdf0       ?InitButton@CUIRes@@QAEXXZ 004c0df0 f   UIRes.obj
 0001:000bfe80       ?PtInUIRes@CUIRes@@QAEHVCPoint@@@Z 004c0e80 f   UIRes.obj
 0001:000c00a0       ?SetToolTips@CUIRes@@QAEHVCString@@VCPoint@@@Z 004c10a0 f   UIRes.obj
 0001:000c00f0       ?ShowWindow@CUIRes@@UAEXXZ 004c10f0 f   UIRes.obj
 0001:000c0150       ?HideWindow@CUIRes@@UAEXXZ 004c1150 f   UIRes.obj
 0001:000c01a0       ?SetFocus@CUIRes@@UAEXXZ   004c11a0 f   UIRes.obj
 0001:000c0200       ?KillFocus@CUIRes@@QAEXXZ  004c1200 f   UIRes.obj
 0001:000c0260       ?OnKeyDown@CUIRes@@UAEHIII@Z 004c1260 f   UIRes.obj
 0001:000c02c0       ?SetCapture@CUIRes@@QAEXXZ 004c12c0 f   UIRes.obj
 0001:000c0300       ?ReleaseCapture@CUIRes@@QAEXXZ 004c1300 f   UIRes.obj
 0001:000c0340       ?MouseProcess@CUIRes@@UAEHPAVBBDX_MouseInformation@@@Z 004c1340 f   UIRes.obj
 0001:000c0460       ?GetPosMode@CUIRes@@UAEHXZ 004c1460 f   UIRes.obj
 0001:000c04e0       ?Add@?$CTypedPtrArray@VCPtrArray@@PAVMAreaCtrl@@@@QAEHPAVMAreaCtrl@@@Z 004c14e0 f i UIRes.obj
 0001:000c0520       ?Add@?$CTypedPtrArray@VCPtrArray@@PAVMBtnCtrl@@@@QAEHPAVMBtnCtrl@@@Z 004c1520 f i UIRes.obj
 0001:000c0560       ?Add@?$CTypedPtrArray@VCPtrArray@@PAVMBtnCtrlEx@@@@QAEHPAVMBtnCtrlEx@@@Z 004c1560 f i UIRes.obj
 0001:000c05a0       ?Add@?$CTypedPtrArray@VCPtrArray@@PAVMRectManager@@@@QAEHPAVMRectManager@@@Z 004c15a0 f i UIRes.obj
 0001:000c05e0       ??A?$CTypedPtrArray@VCPtrArray@@PAVMRectManager@@@@QAEAAPAVMRectManager@@H@Z 004c15e0 f i UIRes.obj
 0001:000c0620       ??0CUIScrollBar@@QAE@XZ    004c1620 f   UIScrollBar.obj
 0001:000c06a0       ??_GCUIScrollBar@@UAEPAXI@Z 004c16a0 f i UIScrollBar.obj
 0001:000c06a0       ??_ECUIScrollBar@@UAEPAXI@Z 004c16a0 f i UIScrollBar.obj
 0001:000c0700       ??1CUIScrollBar@@UAE@XZ    004c1700 f   UIScrollBar.obj
 0001:000c0730       ?OnLButtonDown@CUIScrollBar@@QAEHPAVBBDX_MouseInformation@@@Z 004c1730 f   UIScrollBar.obj
 0001:000c0800       ?OnLButtonUp@CUIScrollBar@@QAEHPAVBBDX_MouseInformation@@@Z 004c1800 f   UIScrollBar.obj
 0001:000c0970       ?OnMouseMove@CUIScrollBar@@QAEHPAVBBDX_MouseInformation@@@Z 004c1970 f   UIScrollBar.obj
 0001:000c0b30       ?Create@CUIScrollBar@@QAEHPAVCUIRes@@VCRect@@H@Z 004c1b30 f   UIScrollBar.obj
 0001:000c0c40       ?Draw@CUIScrollBar@@QAEXPAVCDDSurface@@@Z 004c1c40 f   UIScrollBar.obj
 0001:000c0d70       ?InitScroll@CUIScrollBar@@QAEXXZ 004c1d70 f   UIScrollBar.obj
 0001:000c0de0       ?SetStartLine@CUIScrollBar@@QAEXH@Z 004c1de0 f   UIScrollBar.obj
 0001:000c0f40       ?SetEndPos@CUIScrollBar@@QAEXXZ 004c1f40 f   UIScrollBar.obj
 0001:000c0fa0       ??0CUser@@QAE@XZ           004c1fa0 f   User.obj
 0001:000c15b0       ??_GCUser@@UAEPAXI@Z       004c25b0 f i User.obj
 0001:000c15b0       ??_ECUser@@UAEPAXI@Z       004c25b0 f i User.obj
 0001:000c1610       ??0?$CTypedPtrArray@VCPtrArray@@PAVCMyMagicData@@@@QAE@XZ 004c2610 f i User.obj
 0001:000c1660       ??1?$CTypedPtrArray@VCPtrArray@@PAVCMyMagicData@@@@UAE@XZ 004c2660 f i User.obj
 0001:000c16a0       ??_E?$CTypedPtrArray@VCPtrArray@@PAVCMyMagicData@@@@UAEPAXI@Z 004c26a0 f i User.obj
 0001:000c16a0       ??_G?$CTypedPtrArray@VCPtrArray@@PAVCMyMagicData@@@@UAEPAXI@Z 004c26a0 f i User.obj
 0001:000c16f0       ??1CUser@@UAE@XZ           004c26f0 f   User.obj
 0001:000c1b20       ?SetFlyEndMagic@CUser@@QAEXHHHH@Z 004c2b20 f   User.obj
 0001:000c1ba0       ?SetCharRes@CUser@@QAEXHH@Z 004c2ba0 f   User.obj
 0001:000c1c20       ?RenderChar@CUser@@QAEXPAVCDDSurface@@VCPoint@@@Z 004c2c20 f   User.obj
 0001:000c1d70       ?RenderBodyAndArmature@CUser@@QAEXPAVCDDSurface@@VCPoint@@UtagRECT@@@Z 004c2d70 f   User.obj
 0001:000c2990       ?GetSpr@CUser@@QAEHPAPAU_SPR_LSP@@PAPAG@Z 004c3990 f   User.obj
 0001:000c2d60       ?Move@CUser@@QAEXXZ        004c3d60 f   User.obj
 0001:000c31b0       ?MoveNextStep_New2@CUser@@QAEXXZ 004c41b0 f   User.obj
 0001:000c3df0       ?GetUserId@CUser@@QAEHXZ   004c4df0 f i User.obj
 0001:000c3e20       ?SetDirection@CUser@@QAEXW4UserDirection@1@@Z 004c4e20 f i User.obj
 0001:000c3e50       ?GetClippedRect@CUser@@SAHPAUtagRECT@@0@Z 004c4e50 f   User.obj
 0001:000c3f20       ?SetDirection@CUser@@QAEXH@Z 004c4f20 f   User.obj
 0001:000c4000       ?SetDstPos@CUser@@QAEXVCPoint@@@Z 004c5000 f   User.obj
 0001:000c4090       ?SetPosition@CUser@@QAEXVCPoint@@@Z 004c5090 f   User.obj
 0001:000c4220       ?PixelToCellUnit@CUser@@SA?AVCPoint@@V2@@Z 004c5220 f   User.obj
 0001:000c4370       ?CellUnitToPixel@CUser@@SA?AVCPoint@@V2@@Z 004c5370 f   User.obj
 0001:000c43e0       ?SetCellPosition@CUser@@QAEXVCPoint@@@Z 004c53e0 f   User.obj
 0001:000c4440       ?SetCellDstPos@CUser@@QAEXVCPoint@@@Z 004c5440 f   User.obj
 0001:000c44a0       ?CalcMoveList2@CUser@@QAEPAV?$CList@VCPoint@@V1@@@VCPoint@@0H@Z 004c54a0 f   User.obj
 0001:000c45f0       ?ReSetFindStep@CPathFind@@QAEXH@Z 004c55f0 f i User.obj
 0001:000c4620       ?CalcMoveList@CUser@@SAPAV?$CList@VCPoint@@V1@@@VCPoint@@0H@Z 004c5620 f   User.obj
 0001:000c4b00       ?SetMoveList@CUser@@QAEXPAV?$CList@VCPoint@@V1@@@@Z 004c5b00 f   User.obj
 0001:000c4bb0       ?SendNextRunMoveReq@CUser@@QAEXVCPoint@@0@Z 004c5bb0 f   User.obj
 0001:000c4ce0       ?SetMoveFirst@CUser@@QAEXVCPoint@@0@Z 004c5ce0 f   User.obj
 0001:000c5110       ?SendNextMoveReq@CUser@@QAEXVCPoint@@@Z 004c6110 f   User.obj
 0001:000c5230       ?SetMoveMiddle@CUser@@QAEXVCPoint@@@Z 004c6230 f   User.obj
 0001:000c5440       ?SetMoveEnd@CUser@@QAEXVCPoint@@@Z 004c6440 f   User.obj
 0001:000c5650       ?SetRunMoveFirst@CUser@@QAEXVCPoint@@00@Z 004c6650 f   User.obj
 0001:000c5840       ?SetRunMoveMiddle@CUser@@QAEXVCPoint@@0@Z 004c6840 f   User.obj
 0001:000c59c0       ?SetRunMoveEnd@CUser@@QAEXVCPoint@@0@Z 004c69c0 f   User.obj
 0001:000c5b90       ?SetMagic@CUser@@QAEXHHH@Z 004c6b90 f   User.obj
 0001:000c5c10       ?SetMagicType@CMagic@@QAEXH@Z 004c6c10 f i User.obj
 0001:000c5c40       ?Set3DMagic@CUser@@QAEXPADHHH@Z 004c6c40 f   User.obj
 0001:000c5c90       ?Set3DMagicEx@CUser@@QAEXHHHH@Z 004c6c90 f   User.obj
 0001:000c5ce0       ?SetMotion@CUser@@QAEHW4UserMotion@1@@Z 004c6ce0 f   User.obj
 0001:000c6340       ?SetWearItem@CUser@@QAEXHHHH@Z 004c7340 f   User.obj
 0001:000c67f0       ?BltLSPDark@CUser@@SAXPAVCDDSurface@@HHPAUtagRECT@@PAGH@Z 004c77f0 f   User.obj
 0001:000c6cc0       ?PutPixelDark@CUser@@SAXPBG0HHKK@Z 004c7cc0 f i User.obj
 0001:000c6d30       ?BltLSPNormal@CUser@@SAXPAVCDDSurface@@HHPAUtagRECT@@PAGHHH@Z 004c7d30 f   User.obj
 0001:000c7570       ?BltLSPDrawObj@CUser@@SAXPAVCDDSurface@@HHPAUtagRECT@@PAG@Z 004c8570 f   User.obj
 0001:000c7b20       ?BltLSPAlphaAdd@CUser@@SAXPAVCDDSurface@@HHPAUtagRECT@@PAG@Z 004c8b20 f   User.obj
 0001:000c7fc0       ?PutPixelAlphaAdd@CUser@@SAXPBG0HKKK@Z 004c8fc0 f i User.obj
 0001:000c8060       ?BltLSPTrans@CUser@@SAXPAVCDDSurface@@HHPAUtagRECT@@PAGHH@Z 004c9060 f   User.obj
 0001:000c8620       ?PutPixelTrans@CUser@@SAXPBG0HHHKK@Z 004c9620 f i User.obj
 0001:000c86b0       ?BltLSPChat@CUser@@SAXPAVCDDSurface@@@Z 004c96b0 f   User.obj
 0001:000c8790       ?PutPixelShadow@CUser@@SAXPBGHHKK@Z 004c9790 f i User.obj
 0001:000c87f0       ?BltBlackTrans@CUser@@SAXPAVCDDSurface@@VCRect@@@Z 004c97f0 f   User.obj
 0001:000c8930       ?BltLSPShadowEx@CUser@@SAXPAVCDDSurface@@HHPAUtagRECT@@PAGKK@Z 004c9930 f   User.obj
 0001:000c8dc0       ?BltLSPShadow@CUser@@SAXPAVCDDSurface@@HHPAUtagRECT@@PAGH@Z 004c9dc0 f   User.obj
 0001:000c92b0       ?BltLSPBitStepTrans@CUser@@SAXPAVCDDSurface@@HHPAUtagRECT@@PAGHH@Z 004ca2b0 f   User.obj
 0001:000c9890       ?PutPixelBitStepTrans@CUser@@SAXPBG0HHHKK@Z 004ca890 f i User.obj
 0001:000c9930       ?BltLSPHalfAlpha@CUser@@SAXPAVCDDSurface@@HHPAUtagRECT@@PAGKK@Z 004ca930 f   User.obj
 0001:000c9e00       ?BltLSPHalfAlphaEx@CUser@@SAXPAVCDDSurface@@HHPAUtagRECT@@PAGKK@Z 004cae00 f   User.obj
 0001:000ca3c0       ?SetInvAll@CUser@@QAEXPAE@Z 004cb3c0 f   User.obj
 0001:000cacb0       ?Chang_Item@CUser@@QAEXFF@Z 004cbcb0 f   User.obj
 0001:000cad90       ?Change_View_item@CUser@@QAEXFF@Z 004cbd90 f   User.obj
 0001:000caea0       ?GetJangchk_Item@CUser@@QAEHH@Z 004cbea0 f   User.obj
 0001:000caef0       ?GetInv_ItemUsage@CUser@@QAEFH@Z 004cbef0 f   User.obj
 0001:000caf30       ?GetInv_ItemPic@CUser@@QAEHH@Z 004cbf30 f   User.obj
 0001:000caf70       ?GetInv_ItemType@CUser@@QAEHH@Z 004cbf70 f   User.obj
 0001:000cafb0       ?GetInv_ItemIndex@CUser@@QAEHH@Z 004cbfb0 f   User.obj
 0001:000caff0       ?GetInv_ItemArm@CUser@@QAEHH@Z 004cbff0 f   User.obj
 0001:000cb030       ?GetInv_ItemName@CUser@@QAE?AVCString@@H@Z 004cc030 f   User.obj
 0001:000cb090       ?SendRevival@CUser@@QAEXH@Z 004cc090 f   User.obj
 0001:000cb100       ?View_Id@CUser@@QAEXPAVCDC@@VCPoint@@@Z 004cc100 f   User.obj
 0001:000cb350       ?View_BubbleChat@CUser@@QAEXVCPoint@@@Z 004cc350 f   User.obj
 0001:000cb910       ?Del_Item@CUser@@QAEXEF@Z  004cc910 f   User.obj
 0001:000cb980       ?Add_Item@CUser@@QAEXFEEFEFFFFFVCString@@0QAFKFFF0@Z 004cc980 f   User.obj
 0001:000cbbc0       ?Add_Item@CUser@@QAEXPAE@Z 004ccbc0 f   User.obj
 0001:000cbff0       ?MoveItemToBelt@CUser@@QAEHFF@Z 004ccff0 f   User.obj
 0001:000cc150       ?MoveItemToInv@CUser@@QAEHFF@Z 004cd150 f   User.obj
 0001:000cc2b0       ?AddMagic@CUser@@QAEXFEEFEEVCString@@0FFHFF@Z 004cd2b0 f   User.obj
 0001:000cc650       ?DelMagic@CUser@@QAEXF@Z   004cd650 f   User.obj
 0001:000cc850       ?ChangeMoney@CUser@@QAEXK@Z 004cd850 f   User.obj
 0001:000cc890       ?ChangeItemInfo@CUser@@QAEXEEAAVCMyInvData@@@Z 004cd890 f   User.obj
 0001:000cce20       ?BltLSPDrawLine@CUser@@SAXPAVCDDSurface@@HHPAUtagRECT@@PAGH@Z 004cde20 f   User.obj
 0001:000cd410       ?DrawLine@CUser@@QAEXPAVCDDSurface@@VCPoint@@H@Z 004ce410 f   User.obj
 0001:000cd5d0       ?SetChatString@CUser@@QAEXAAVCString@@@Z 004ce5d0 f   User.obj
 0001:000cd630       ?SetIdNameString@CUser@@QAEXAAVCString@@@Z 004ce630 f   User.obj
 0001:000cd670       ?Add@?$CTypedPtrArray@VCPtrArray@@PAVCMyMagicData@@@@QAEHPAVCMyMagicData@@@Z 004ce670 f i User.obj
 0001:000cd6b0       ??0?$CArray@PAVCMagic@@PAV1@@@QAE@XZ 004ce6b0 f i User.obj
 0001:000cd720       ?GetSize@?$CArray@PAVCMagic@@PAV1@@@QBEHXZ 004ce720 f i User.obj
 0001:000cd750       ?RemoveAll@?$CArray@PAVCMagic@@PAV1@@@QAEXXZ 004ce750 f i User.obj
 0001:000cd790       ?GetAt@?$CArray@PAVCMagic@@PAV1@@@QBEPAVCMagic@@H@Z 004ce790 f i User.obj
 0001:000cd800       ??1?$CArray@PAVCMagic@@PAV1@@@UAE@XZ 004ce800 f i User.obj
 0001:000cd8b0       ?Serialize@?$CArray@PAVCMagic@@PAV1@@@UAEXAAVCArchive@@@Z 004ce8b0 f i User.obj
 0001:000cd950       ?Dump@?$CArray@PAVCMagic@@PAV1@@@UBEXAAVCDumpContext@@@Z 004ce950 f i User.obj
 0001:000cd9f0       ?AssertValid@?$CArray@PAVCMagic@@PAV1@@@UBEXXZ 004ce9f0 f i User.obj
 0001:000cdb20       ??0?$CArray@VCString@@V1@@@QAE@XZ 004ceb20 f i User.obj
 0001:000cdb90       ??1?$CArray@VCString@@V1@@@UAE@XZ 004ceb90 f i User.obj
 0001:000cdc40       ?Serialize@?$CArray@VCString@@V1@@@UAEXAAVCArchive@@@Z 004cec40 f i User.obj
 0001:000cdce0       ?Dump@?$CArray@VCString@@V1@@@UBEXAAVCDumpContext@@@Z 004cece0 f i User.obj
 0001:000cdd80       ?AssertValid@?$CArray@VCString@@V1@@@UBEXXZ 004ced80 f i User.obj
 0001:000cdeb0       ??0?$CArray@U_TAG_FLY_END_MAGIC@@U1@@@QAE@XZ 004ceeb0 f i User.obj
 0001:000cdf20       ?Add@?$CArray@U_TAG_FLY_END_MAGIC@@U1@@@QAEHU_TAG_FLY_END_MAGIC@@@Z 004cef20 f i User.obj
 0001:000cdf90       ??1?$CArray@U_TAG_FLY_END_MAGIC@@U1@@@UAE@XZ 004cef90 f i User.obj
 0001:000ce040       ?Serialize@?$CArray@U_TAG_FLY_END_MAGIC@@U1@@@UAEXAAVCArchive@@@Z 004cf040 f i User.obj
 0001:000ce0e0       ?Dump@?$CArray@U_TAG_FLY_END_MAGIC@@U1@@@UBEXAAVCDumpContext@@@Z 004cf0e0 f i User.obj
 0001:000ce180       ?AssertValid@?$CArray@U_TAG_FLY_END_MAGIC@@U1@@@UBEXXZ 004cf180 f i User.obj
 0001:000ce2b0       ??0?$CArray@U_TAG_APPLIED_CON_MAGIC@@U1@@@QAE@XZ 004cf2b0 f i User.obj
 0001:000ce320       ??1?$CArray@U_TAG_APPLIED_CON_MAGIC@@U1@@@UAE@XZ 004cf320 f i User.obj
 0001:000ce3d0       ?Serialize@?$CArray@U_TAG_APPLIED_CON_MAGIC@@U1@@@UAEXAAVCArchive@@@Z 004cf3d0 f i User.obj
 0001:000ce470       ?Dump@?$CArray@U_TAG_APPLIED_CON_MAGIC@@U1@@@UBEXAAVCDumpContext@@@Z 004cf470 f i User.obj
 0001:000ce510       ?AssertValid@?$CArray@U_TAG_APPLIED_CON_MAGIC@@U1@@@UBEXXZ 004cf510 f i User.obj
 0001:000ce640       ??0?$CMap@HHPAVCMyMagicData@@PAV1@@@QAE@H@Z 004cf640 f i User.obj
 0001:000ce710       ??A?$CMap@HHPAVCMyMagicData@@PAV1@@@QAEAAPAVCMyMagicData@@H@Z 004cf710 f i User.obj
 0001:000ce7d0       ?RemoveKey@?$CMap@HHPAVCMyMagicData@@PAV1@@@QAEHH@Z 004cf7d0 f i User.obj
 0001:000ce890       ?RemoveAll@?$CMap@HHPAVCMyMagicData@@PAV1@@@QAEXXZ 004cf890 f i User.obj
 0001:000ce980       ?GetStartPosition@?$CMap@HHPAVCMyMagicData@@PAV1@@@QBEPAU__POSITION@@XZ 004cf980 f i User.obj
 0001:000ce9b0       ?GetNextAssoc@?$CMap@HHPAVCMyMagicData@@PAV1@@@QBEXAAPAU__POSITION@@AAHAAPAVCMyMagicData@@@Z 004cf9b0 f i User.obj
 0001:000ceb30       ??1?$CMap@HHPAVCMyMagicData@@PAV1@@@UAE@XZ 004cfb30 f i User.obj
 0001:000cebd0       ?Serialize@?$CMap@HHPAVCMyMagicData@@PAV1@@@UAEXAAVCArchive@@@Z 004cfbd0 f i User.obj
 0001:000ced20       ?Dump@?$CMap@HHPAVCMyMagicData@@PAV1@@@UBEXAAVCDumpContext@@@Z 004cfd20 f i User.obj
 0001:000cee00       ?AssertValid@?$CMap@HHPAVCMyMagicData@@PAV1@@@UBEXXZ 004cfe00 f i User.obj
 0001:000cee90       ??0?$CList@VCPoint@@V1@@@QAE@H@Z 004cfe90 f i User.obj
 0001:000cef60       ?Serialize@?$CList@VCPoint@@V1@@@UAEXAAVCArchive@@@Z 004cff60 f i User.obj
 0001:000cf070       ?Dump@?$CList@VCPoint@@V1@@@UBEXAAVCDumpContext@@@Z 004d0070 f i User.obj
 0001:000cf130       ?AssertValid@?$CList@VCPoint@@V1@@@UBEXXZ 004d0130 f i User.obj
 0001:000cf220       ??_E?$CArray@PAVCMagic@@PAV1@@@UAEPAXI@Z 004d0220 f i User.obj
 0001:000cf220       ??_G?$CArray@PAVCMagic@@PAV1@@@UAEPAXI@Z 004d0220 f i User.obj
 0001:000cf270       ??_G?$CArray@VCString@@V1@@@UAEPAXI@Z 004d0270 f i User.obj
 0001:000cf270       ??_E?$CArray@VCString@@V1@@@UAEPAXI@Z 004d0270 f i User.obj
 0001:000cf2c0       ??_G?$CArray@U_TAG_FLY_END_MAGIC@@U1@@@UAEPAXI@Z 004d02c0 f i User.obj
 0001:000cf2c0       ??_E?$CArray@U_TAG_FLY_END_MAGIC@@U1@@@UAEPAXI@Z 004d02c0 f i User.obj
 0001:000cf310       ??_E?$CArray@U_TAG_APPLIED_CON_MAGIC@@U1@@@UAEPAXI@Z 004d0310 f i User.obj
 0001:000cf310       ??_G?$CArray@U_TAG_APPLIED_CON_MAGIC@@U1@@@UAEPAXI@Z 004d0310 f i User.obj
 0001:000cf360       ??_G?$CMap@HHPAVCMyMagicData@@PAV1@@@UAEPAXI@Z 004d0360 f i User.obj
 0001:000cf360       ??_E?$CMap@HHPAVCMyMagicData@@PAV1@@@UAEPAXI@Z 004d0360 f i User.obj
 0001:000cf3b0       ??_E?$CList@VCPoint@@V1@@@UAEPAXI@Z 004d03b0 f i User.obj
 0001:000cf3b0       ??_G?$CList@VCPoint@@V1@@@UAEPAXI@Z 004d03b0 f i User.obj
 0001:000cf400       ??1?$CList@VCPoint@@V1@@@UAE@XZ 004d0400 f i User.obj
 0001:000cf4a0       ?SetSize@?$CArray@PAVCMagic@@PAV1@@@QAEXHH@Z 004d04a0 f i User.obj
 0001:000cf7c0       ?DestructElements@@YGXPAPAVCMagic@@H@Z 004d07c0 f i User.obj
 0001:000cf840       ?SerializeElements@@YGXAAVCArchive@@PAPAVCMagic@@H@Z 004d0840 f i User.obj
 0001:000cf8e0       ?DumpElements@@YGXAAVCDumpContext@@PBQAVCMagic@@H@Z 004d08e0 f i User.obj
 0001:000cf940       ?SetSize@?$CArray@VCString@@V1@@@QAEXHH@Z 004d0940 f i User.obj
 0001:000cfc60       ?DumpElements@@YGXAAVCDumpContext@@PBVCString@@H@Z 004d0c60 f i User.obj
 0001:000cfcc0       ?SetAtGrow@?$CArray@U_TAG_FLY_END_MAGIC@@U1@@@QAEXHU_TAG_FLY_END_MAGIC@@@Z 004d0cc0 f i User.obj
 0001:000cfd70       ?SerializeElements@@YGXAAVCArchive@@PAU_TAG_FLY_END_MAGIC@@H@Z 004d0d70 f i User.obj
 0001:000cfe10       ?DumpElements@@YGXAAVCDumpContext@@PBU_TAG_FLY_END_MAGIC@@H@Z 004d0e10 f i User.obj
 0001:000cfe70       ?SetSize@?$CArray@U_TAG_APPLIED_CON_MAGIC@@U1@@@QAEXHH@Z 004d0e70 f i User.obj
 0001:000d0190       ?DestructElements@@YGXPAU_TAG_APPLIED_CON_MAGIC@@H@Z 004d1190 f i User.obj
 0001:000d0210       ?SerializeElements@@YGXAAVCArchive@@PAU_TAG_APPLIED_CON_MAGIC@@H@Z 004d1210 f i User.obj
 0001:000d02b0       ?DumpElements@@YGXAAVCDumpContext@@PBU_TAG_APPLIED_CON_MAGIC@@H@Z 004d12b0 f i User.obj
 0001:000d0310       ?SetAt@?$CMap@HHPAVCMyMagicData@@PAV1@@@QAEXHPAVCMyMagicData@@@Z 004d1310 f i User.obj
 0001:000d0360       ?InitHashTable@?$CMap@HHPAVCMyMagicData@@PAV1@@@QAEXIH@Z 004d1360 f i User.obj
 0001:000d0460       ?NewAssoc@?$CMap@HHPAVCMyMagicData@@PAV1@@@IAEPAUCAssoc@1@XZ 004d1460 f i User.obj
 0001:000d05a0       ?FreeAssoc@?$CMap@HHPAVCMyMagicData@@PAV1@@@IAEXPAUCAssoc@1@@Z 004d15a0 f i User.obj
 0001:000d0650       ?DestructElements@@YGXPAPAVCMyMagicData@@H@Z 004d1650 f i User.obj
 0001:000d06d0       ?SerializeElements@@YGXAAVCArchive@@PAPAVCMyMagicData@@H@Z 004d16d0 f i User.obj
 0001:000d0770       ?DumpElements@@YGXAAVCDumpContext@@PBQAVCMyMagicData@@H@Z 004d1770 f i User.obj
 0001:000d07d0       ?GetHeadPosition@?$CList@VCPoint@@V1@@@QBEPAU__POSITION@@XZ 004d17d0 f i User.obj
 0001:000d0800       ?GetNext@?$CList@VCPoint@@V1@@@QAEAAVCPoint@@AAPAU__POSITION@@@Z 004d1800 f i User.obj
 0001:000d0880       ?ConstructElements@@YGXPAPAVCMagic@@H@Z 004d1880 f i User.obj
 0001:000d0930       ?ConstructElements@@YGXPAU_TAG_APPLIED_CON_MAGIC@@H@Z 004d1930 f i User.obj
 0001:000d09e0       ?ConstructElements@@YGXPAPAVCMyMagicData@@H@Z 004d19e0 f i User.obj
 0001:000d0a90       ??0CUserManager@@QAE@XZ    004d1a90 f   UserManager.obj
 0001:000d0cd0       ??_ECUserManager@@UAEPAXI@Z 004d1cd0 f i UserManager.obj
 0001:000d0cd0       ??_GCUserManager@@UAEPAXI@Z 004d1cd0 f i UserManager.obj
 0001:000d0d30       ??1?$CTypedPtrList@VCPtrList@@PAVCMagic@@@@UAE@XZ 004d1d30 f i UserManager.obj
 0001:000d0d70       ??0?$CTypedPtrArray@VCPtrArray@@PAU_TAG_ACTION_INFO@@@@QAE@XZ 004d1d70 f i UserManager.obj
 0001:000d0dc0       ??1?$CTypedPtrArray@VCPtrArray@@PAU_TAG_ACTION_INFO@@@@UAE@XZ 004d1dc0 f i UserManager.obj
 0001:000d0e00       ??1?$_CTypedPtrList@VCPtrList@@PAVCMagic@@@@UAE@XZ 004d1e00 f i UserManager.obj
 0001:000d0e40       ??_E?$CTypedPtrArray@VCPtrArray@@PAU_TAG_ACTION_INFO@@@@UAEPAXI@Z 004d1e40 f i UserManager.obj
 0001:000d0e40       ??_G?$CTypedPtrArray@VCPtrArray@@PAU_TAG_ACTION_INFO@@@@UAEPAXI@Z 004d1e40 f i UserManager.obj
 0001:000d0e90       ??1CUserManager@@UAE@XZ    004d1e90 f   UserManager.obj
 0001:000d11f0       ??_G_TAG_SET_MAGIC_INFO@@QAEPAXI@Z 004d21f0 f i UserManager.obj
 0001:000d1250       ??1_TAG_SET_MAGIC_INFO@@QAE@XZ 004d2250 f i UserManager.obj
 0001:000d1290       ?RemoveAllData@CUserManager@@QAEXXZ 004d2290 f   UserManager.obj
 0001:000d1400       ?RemoveAllDataWithoutMe@CUserManager@@QAEXXZ 004d2400 f   UserManager.obj
 0001:000d15f0       ?RemoveUser@CUserManager@@QAEXH@Z 004d25f0 f   UserManager.obj
 0001:000d1680       ?RenderUsers@CUserManager@@QAEXPAVCDDSurface@@VCPoint@@@Z 004d2680 f   UserManager.obj
 0001:000d1fb0       ?GetFocus@CUser@@QAEHXZ    004d2fb0 f i UserManager.obj
 0001:000d1fe0       ?SetFocus@CUser@@QAEXH@Z   004d2fe0 f i UserManager.obj
 0001:000d2020       ?GetCellPosition@CUser@@QAE?AVCPoint@@XZ 004d3020 f i UserManager.obj
 0001:000d2070       ?InHouseRenderUsers@CUserManager@@QAEXPAVCDDSurface@@VCPoint@@@Z 004d3070 f   UserManager.obj
 0001:000d2bc0       ?IsHouseIn@CHouse@@QAEHXZ  004d3bc0 f i UserManager.obj
 0001:000d2bf0       ?GetTransDegree@CHouse@@QAEHXZ 004d3bf0 f i UserManager.obj
 0001:000d2c20       ?DrawUserSortY@CUserManager@@QAEXH@Z 004d3c20 f   UserManager.obj
 0001:000d2c80       ?compare@CUserManager@@SAHPBX0@Z 004d3c80 f   UserManager.obj
 0001:000d2d00       ?Move@CUserManager@@QAEXXZ 004d3d00 f   UserManager.obj
 0001:000d2d70       ?GetMyPos@CUserManager@@QAE?AVCPoint@@XZ 004d3d70 f   UserManager.obj
 0001:000d2de0       ?IsInRange@CUserManager@@QAEHVCRect@@PAVCUser@@VCPoint@@@Z 004d3de0 f   UserManager.obj
 0001:000d2ea0       ?GetCharRect@CUser@@QAEAAVCRect@@XZ 004d3ea0 f i UserManager.obj
 0001:000d2ed0       ?SetMoveableTable@CUserManager@@QAEXPAVSM_MapManager@@@Z 004d3ed0 f   UserManager.obj
 0001:000d2f40       ?ModifyUser@CUserManager@@QAEXHEVCString@@0HFEEHHQAFHFF@Z 004d3f40 f   UserManager.obj
 0001:000d3790       ?SetUserId@CUser@@QAEXH@Z  004d4790 f i UserManager.obj
 0001:000d37d0       ?DeleteUser@CUserManager@@QAEXHHH@Z 004d47d0 f   UserManager.obj
 0001:000d38a0       ?IsMoveable@CUserManager@@QAEHVCPoint@@@Z 004d48a0 f   UserManager.obj
 0001:000d38f0       ?GetUserWithPos@CUserManager@@QAEPAVCUser@@VCPoint@@0@Z 004d48f0 f   UserManager.obj
 0001:000d39c0       ?GetUserWithCellPos@CUserManager@@QAEPAVCUser@@VCPoint@@@Z 004d49c0 f   UserManager.obj
 0001:000d3a60       ?GetUserWithUid@CUserManager@@QAEPAVCUser@@H@Z 004d4a60 f   UserManager.obj
 0001:000d3ac0       ?SetMoveFirst@CUserManager@@QAEXPAVCUser@@VCPoint@@1@Z 004d4ac0 f   UserManager.obj
 0001:000d3b10       ?SetMoveMid@CUserManager@@QAEXPAVCUser@@VCPoint@@@Z 004d4b10 f   UserManager.obj
 0001:000d3b50       ?SetMoveEnd@CUserManager@@QAEXPAVCUser@@VCPoint@@@Z 004d4b50 f   UserManager.obj
 0001:000d3b90       ?SetRunMoveFirst@CUserManager@@QAEXPAVCUser@@VCPoint@@11@Z 004d4b90 f   UserManager.obj
 0001:000d3be0       ?SetRunMoveMid@CUserManager@@QAEXPAVCUser@@VCPoint@@1@Z 004d4be0 f   UserManager.obj
 0001:000d3c30       ?SetRunMoveEnd@CUserManager@@QAEXPAVCUser@@VCPoint@@1@Z 004d4c30 f   UserManager.obj
 0001:000d3c80       ?AttackChar@CUserManager@@QAEXEHVCPoint@@H0@Z 004d4c80 f   UserManager.obj
 0001:000d4200       ?IsArrivedInCell@CUser@@QAEHXZ 004d5200 f i UserManager.obj
 0001:000d4230       ?DeleteMagic@CUserManager@@QAEXH@Z 004d5230 f   UserManager.obj
 0001:000d4460       ?Attack3DMagic@CUserManager@@QAEXHHPAD@Z 004d5460 f   UserManager.obj
 0001:000d4650       ?Attack3DMagicEx@CUserManager@@QAEXHHHH@Z 004d5650 f   UserManager.obj
 0001:000d4840       ?AttackDir3DMagicEx@CUserManager@@QAEXHHHH@Z 004d5840 f   UserManager.obj
 0001:000d48e0       ?SetAimed3DMagic@CUserManager@@QAEHVCPoint@@0PADHH@Z 004d58e0 f   UserManager.obj
 0001:000d4a20       ?SetMagicAttackDesUid@CMagic@@QAEXH@Z 004d5a20 f i UserManager.obj
 0001:000d4a50       ?SetAimed3DMagicEx@CUserManager@@QAEHVCPoint@@0HHHH@Z 004d5a50 f   UserManager.obj
 0001:000d4b90       ?SetDirAimed3DMagicEx@CUserManager@@QAEHVCPoint@@HHHH@Z 004d5b90 f   UserManager.obj
 0001:000d4cc0       ?MagicTableInit@CUserManager@@QAEXXZ 004d5cc0 f   UserManager.obj
 0001:000d4ed0       ?ReadMagicTable@CUserManager@@QAEXHHHHKH@Z 004d5ed0 f   UserManager.obj
 0001:000d51f0       ??0_TAG_SET_MAGIC_INFO@@QAE@XZ 004d61f0 f i UserManager.obj
 0001:000d5230       ?PoisonAffect@CUserManager@@QAEXHF@Z 004d6230 f   UserManager.obj
 0001:000d52b0       ?CharStateChange@CUserManager@@QAEXHK@Z 004d62b0 f   UserManager.obj
 0001:000d5400       ?ReadMagicTable@CUserManager@@QAEXHHFKPAHPAFHHKH@Z 004d6400 f   UserManager.obj
 0001:000d5cc0       ?MagicAttackKind@CUserManager@@QAEXPAU_TAG_SET_MAGIC_INFO@@HPAHH@Z 004d6cc0 f   UserManager.obj
 0001:000d5d20       ?SetMagicComet@CUserManager@@QAEXPAU_TAG_SET_MAGIC_INFO@@HPAHH@Z 004d6d20 f   UserManager.obj
 0001:000d5de0       ?ApplyMagicEx@CUserManager@@QAEXXZ 004d6de0 f   UserManager.obj
 0001:000d6120       ?UserAppliedMagic@CUserManager@@QAEXHEPAFPAK@Z 004d7120 f   UserManager.obj
 0001:000d61d0       ?ApplyConMagic@CUserManager@@QAEXXZ 004d71d0 f   UserManager.obj
 0001:000d62f0       ?ApplyConMagic@CUserManager@@QAEXHPAVCUser@@@Z 004d72f0 f   UserManager.obj
 0001:000d6480       ?Cyclone@CUserManager@@QAEXHH@Z 004d7480 f   UserManager.obj
 0001:000d65f0       ?MagicChar@CUserManager@@QAEHPAU_TAG_SET_MAGIC_INFO@@@Z 004d75f0 f   UserManager.obj
 0001:000d6b00       ?FlyMagicChar@CUserManager@@QAEHPAU_TAG_SET_MAGIC_INFO@@@Z 004d7b00 f   UserManager.obj
 0001:000d70c0       ?ConMagicChar@CUserManager@@QAEHPAU_TAG_SET_MAGIC_INFO@@@Z 004d80c0 f   UserManager.obj
 0001:000d7450       ?FlyMagicComet@CUserManager@@QAEHPAU_TAG_SET_MAGIC_INFO@@@Z 004d8450 f   UserManager.obj
 0001:000d7ab0       ?SetPosition@CMagicComet@@QAEXVCPoint@@0@Z 004d8ab0 f i UserManager.obj
 0001:000d7b00       ?AttackMagic@CUserManager@@QAEXHHHH@Z 004d8b00 f   UserManager.obj
 0001:000d7cf0       ?GetClientDirection@CUserManager@@QAEHVCPoint@@0@Z 004d8cf0 f   UserManager.obj
 0001:000d7e10       ?GetDirection@CUserManager@@QAEEVCPoint@@0@Z 004d8e10 f   UserManager.obj
 0001:000d80b0       ?SendReadyMagic@CUserManager@@QAEHH@Z 004d90b0 f   UserManager.obj
 0001:000d83f0       ?SendMagicAttack@CUserManager@@QAEHHFHE@Z 004d93f0 f   UserManager.obj
 0001:000d88d0       ?SendAttack@CUserManager@@QAEHH@Z 004d98d0 f   UserManager.obj
 0001:000d8ed0       ?Set3DMagic@CUserManager@@QAEXHPADHHH@Z 004d9ed0 f   UserManager.obj
 0001:000d8f40       ?Set3DMagicEx@CUserManager@@QAEXHHHHH@Z 004d9f40 f   UserManager.obj
 0001:000d8fb0       ?SetMagic@CUserManager@@QAEXHHHH@Z 004d9fb0 f   UserManager.obj
 0001:000d9020       ?SetAimedMagic@CUserManager@@QAEHHHHH@Z 004da020 f   UserManager.obj
 0001:000d9130       ?SetAimedMagic@CUserManager@@QAEHVCPoint@@0HHHH@Z 004da130 f   UserManager.obj
 0001:000d9270       ?SetViewMagic@CUserManager@@QAEHHHHHH@Z 004da270 f   UserManager.obj
 0001:000d9500       ?RailAttackMagic@CUserManager@@QAEXHHHHH@Z 004da500 f   UserManager.obj
 0001:000d9580       ?DrawDownMagics@CUserManager@@QAEXPAVCDDSurface@@@Z 004da580 f   UserManager.obj
 0001:000d9670       ?IsDownMagic@CMagic@@QAEHXZ 004da670 f i UserManager.obj
 0001:000d96b0       ?DrawUpMagics@CUserManager@@QAEXPAVCDDSurface@@@Z 004da6b0 f   UserManager.obj
 0001:000d9840       ?GetMagicType@CMagic@@QAEHXZ 004da840 f i UserManager.obj
 0001:000d9870       ?DrawUp3DMagics@CUserManager@@QAEXXZ 004da870 f   UserManager.obj
 0001:000d9990       ?Set_MyInv_Data_All@CUserManager@@QAEXHPAE@Z 004da990 f   UserManager.obj
 0001:000d99f0       ?SendChang_Item@CUserManager@@QAEHFF@Z 004da9f0 f   UserManager.obj
 0001:000d9a80       ?ChangItem@CUserManager@@QAEXFF@Z 004daa80 f   UserManager.obj
 0001:000d9ae0       ?ChangItem@CUserManager@@QAEXHFF@Z 004daae0 f   UserManager.obj
 0001:000d9b50       ?GetMapData@CUserManager@@QAEHVCPoint@@@Z 004dab50 f   UserManager.obj
 0001:000d9ba0       ?GetHouseMapData@CUserManager@@QAEHVCPoint@@@Z 004daba0 f   UserManager.obj
 0001:000d9bf0       ?SetUserDead@CUserManager@@QAEXXZ 004dabf0 f   UserManager.obj
 0001:000d9ce0       ??0_TAG_DEAD_INFO@@QAE@XZ  004dace0 f i UserManager.obj
 0001:000d9d20       ?PreUserDead@CUserManager@@QAEXHHH@Z 004dad20 f   UserManager.obj
 0001:000da130       ?UserDead@CUserManager@@QAEXHHH@Z 004db130 f   UserManager.obj
 0001:000da320       ?GetMyCellPos@CUserManager@@QAE?AVCPoint@@XZ 004db320 f   UserManager.obj
 0001:000da390       ?ActionMotion@CUserManager@@QAEXHHH@Z 004db390 f   UserManager.obj
 0001:000da430       ?ActionProcess@CUserManager@@QAEXXZ 004db430 f   UserManager.obj
 0001:000daad0       ?HpMpRecovery@CUserManager@@QAEXPAE@Z 004dbad0 f   UserManager.obj
 0001:000dac30       ?GetMe@CUserManager@@QAEPAVCUser@@XZ 004dbc30 f   UserManager.obj
 0001:000daca0       ??0?$CTypedPtrList@VCPtrList@@PAVCMagic@@@@QAE@H@Z 004dbca0 f i UserManager.obj
 0001:000dacf0       ?AddTail@?$CTypedPtrList@VCPtrList@@PAVCMagic@@@@QAEPAU__POSITION@@PAVCMagic@@@Z 004dbcf0 f i UserManager.obj
 0001:000dad30       ?GetNext@?$_CTypedPtrList@VCPtrList@@PAVCMagic@@@@QAEAAPAVCMagic@@AAPAU__POSITION@@@Z 004dbd30 f i UserManager.obj
 0001:000dad70       ?Add@?$CTypedPtrArray@VCPtrArray@@PAU_TAG_ACTION_INFO@@@@QAEHPAU_TAG_ACTION_INFO@@@Z 004dbd70 f i UserManager.obj
 0001:000dadb0       ??A?$CTypedPtrArray@VCPtrArray@@PAU_TAG_ACTION_INFO@@@@QAEAAPAU_TAG_ACTION_INFO@@H@Z 004dbdb0 f i UserManager.obj
 0001:000dadf0       ??_E?$CTypedPtrList@VCPtrList@@PAVCMagic@@@@UAEPAXI@Z 004dbdf0 f i UserManager.obj
 0001:000dadf0       ??_G?$CTypedPtrList@VCPtrList@@PAVCMagic@@@@UAEPAXI@Z 004dbdf0 f i UserManager.obj
 0001:000dae40       ??0?$_CTypedPtrList@VCPtrList@@PAVCMagic@@@@QAE@H@Z 004dbe40 f i UserManager.obj
 0001:000dae90       ??_E?$_CTypedPtrList@VCPtrList@@PAVCMagic@@@@UAEPAXI@Z 004dbe90 f i UserManager.obj
 0001:000dae90       ??_G?$_CTypedPtrList@VCPtrList@@PAVCMagic@@@@UAEPAXI@Z 004dbe90 f i UserManager.obj
 0001:000daee0       ?GetAt@?$CArray@HH@@QBEHH@Z 004dbee0 f i UserManager.obj
 0001:000daf50       ??0?$CMap@HHPAVCUser@@PAV1@@@QAE@H@Z 004dbf50 f i UserManager.obj
 0001:000db020       ?Lookup@?$CMap@HHPAVCUser@@PAV1@@@QBEHHAAPAVCUser@@@Z 004dc020 f i UserManager.obj
 0001:000db090       ??A?$CMap@HHPAVCUser@@PAV1@@@QAEAAPAVCUser@@H@Z 004dc090 f i UserManager.obj
 0001:000db150       ?RemoveKey@?$CMap@HHPAVCUser@@PAV1@@@QAEHH@Z 004dc150 f i UserManager.obj
 0001:000db210       ?RemoveAll@?$CMap@HHPAVCUser@@PAV1@@@QAEXXZ 004dc210 f i UserManager.obj
 0001:000db300       ?GetStartPosition@?$CMap@HHPAVCUser@@PAV1@@@QBEPAU__POSITION@@XZ 004dc300 f i UserManager.obj
 0001:000db330       ?GetNextAssoc@?$CMap@HHPAVCUser@@PAV1@@@QBEXAAPAU__POSITION@@AAHAAPAVCUser@@@Z 004dc330 f i UserManager.obj
 0001:000db4b0       ??1?$CMap@HHPAVCUser@@PAV1@@@UAE@XZ 004dc4b0 f i UserManager.obj
 0001:000db550       ?Serialize@?$CMap@HHPAVCUser@@PAV1@@@UAEXAAVCArchive@@@Z 004dc550 f i UserManager.obj
 0001:000db6a0       ?Dump@?$CMap@HHPAVCUser@@PAV1@@@UBEXAAVCDumpContext@@@Z 004dc6a0 f i UserManager.obj
 0001:000db780       ?AssertValid@?$CMap@HHPAVCUser@@PAV1@@@UBEXXZ 004dc780 f i UserManager.obj
 0001:000db810       ??0?$CArray@PAU_TAG_SET_MAGIC_INFO@@PAU1@@@QAE@XZ 004dc810 f i UserManager.obj
 0001:000db880       ?GetSize@?$CArray@PAU_TAG_SET_MAGIC_INFO@@PAU1@@@QBEHXZ 004dc880 f i UserManager.obj
 0001:000db8b0       ?RemoveAll@?$CArray@PAU_TAG_SET_MAGIC_INFO@@PAU1@@@QAEXXZ 004dc8b0 f i UserManager.obj
 0001:000db8f0       ?GetAt@?$CArray@PAU_TAG_SET_MAGIC_INFO@@PAU1@@@QBEPAU_TAG_SET_MAGIC_INFO@@H@Z 004dc8f0 f i UserManager.obj
 0001:000db960       ?Add@?$CArray@PAU_TAG_SET_MAGIC_INFO@@PAU1@@@QAEHPAU_TAG_SET_MAGIC_INFO@@@Z 004dc960 f i UserManager.obj
 0001:000db9b0       ?RemoveAt@?$CArray@PAU_TAG_SET_MAGIC_INFO@@PAU1@@@QAEXHH@Z 004dc9b0 f i UserManager.obj
 0001:000dbad0       ??1?$CArray@PAU_TAG_SET_MAGIC_INFO@@PAU1@@@UAE@XZ 004dcad0 f i UserManager.obj
 0001:000dbb80       ?Serialize@?$CArray@PAU_TAG_SET_MAGIC_INFO@@PAU1@@@UAEXAAVCArchive@@@Z 004dcb80 f i UserManager.obj
 0001:000dbc20       ?Dump@?$CArray@PAU_TAG_SET_MAGIC_INFO@@PAU1@@@UBEXAAVCDumpContext@@@Z 004dcc20 f i UserManager.obj
 0001:000dbcc0       ?AssertValid@?$CArray@PAU_TAG_SET_MAGIC_INFO@@PAU1@@@UBEXXZ 004dccc0 f i UserManager.obj
 0001:000dbdf0       ??0?$CArray@PAU_TAG_MAGIC_TABLE@@PAU1@@@QAE@XZ 004dcdf0 f i UserManager.obj
 0001:000dbe60       ?GetSize@?$CArray@PAU_TAG_MAGIC_TABLE@@PAU1@@@QBEHXZ 004dce60 f i UserManager.obj
 0001:000dbe90       ?RemoveAll@?$CArray@PAU_TAG_MAGIC_TABLE@@PAU1@@@QAEXXZ 004dce90 f i UserManager.obj
 0001:000dbed0       ?Add@?$CArray@PAU_TAG_MAGIC_TABLE@@PAU1@@@QAEHPAU_TAG_MAGIC_TABLE@@@Z 004dced0 f i UserManager.obj
 0001:000dbf20       ??1?$CArray@PAU_TAG_MAGIC_TABLE@@PAU1@@@UAE@XZ 004dcf20 f i UserManager.obj
 0001:000dbfd0       ?Serialize@?$CArray@PAU_TAG_MAGIC_TABLE@@PAU1@@@UAEXAAVCArchive@@@Z 004dcfd0 f i UserManager.obj
 0001:000dc070       ?Dump@?$CArray@PAU_TAG_MAGIC_TABLE@@PAU1@@@UBEXAAVCDumpContext@@@Z 004dd070 f i UserManager.obj
 0001:000dc110       ?AssertValid@?$CArray@PAU_TAG_MAGIC_TABLE@@PAU1@@@UBEXXZ 004dd110 f i UserManager.obj
 0001:000dc240       ??0?$CArray@U_TAG_DEAD_INFO@@U1@@@QAE@XZ 004dd240 f i UserManager.obj
 0001:000dc2b0       ?GetSize@?$CArray@U_TAG_DEAD_INFO@@U1@@@QBEHXZ 004dd2b0 f i UserManager.obj
 0001:000dc2e0       ?GetAt@?$CArray@U_TAG_DEAD_INFO@@U1@@@QBE?AU_TAG_DEAD_INFO@@H@Z 004dd2e0 f i UserManager.obj
 0001:000dc370       ?Add@?$CArray@U_TAG_DEAD_INFO@@U1@@@QAEHU_TAG_DEAD_INFO@@@Z 004dd370 f i UserManager.obj
 0001:000dc3e0       ?RemoveAt@?$CArray@U_TAG_DEAD_INFO@@U1@@@QAEXHH@Z 004dd3e0 f i UserManager.obj
 0001:000dc510       ??1?$CArray@U_TAG_DEAD_INFO@@U1@@@UAE@XZ 004dd510 f i UserManager.obj
 0001:000dc5c0       ?Serialize@?$CArray@U_TAG_DEAD_INFO@@U1@@@UAEXAAVCArchive@@@Z 004dd5c0 f i UserManager.obj
 0001:000dc660       ?Dump@?$CArray@U_TAG_DEAD_INFO@@U1@@@UBEXAAVCDumpContext@@@Z 004dd660 f i UserManager.obj
 0001:000dc700       ?AssertValid@?$CArray@U_TAG_DEAD_INFO@@U1@@@UBEXXZ 004dd700 f i UserManager.obj
 0001:000dc830       ?GetSize@?$CArray@U_TAG_APPLIED_CON_MAGIC@@U1@@@QBEHXZ 004dd830 f i UserManager.obj
 0001:000dc860       ?RemoveAll@?$CArray@U_TAG_APPLIED_CON_MAGIC@@U1@@@QAEXXZ 004dd860 f i UserManager.obj
 0001:000dc8a0       ?GetAt@?$CArray@U_TAG_APPLIED_CON_MAGIC@@U1@@@QBE?AU_TAG_APPLIED_CON_MAGIC@@H@Z 004dd8a0 f i UserManager.obj
 0001:000dc920       ?Add@?$CArray@U_TAG_APPLIED_CON_MAGIC@@U1@@@QAEHU_TAG_APPLIED_CON_MAGIC@@@Z 004dd920 f i UserManager.obj
 0001:000dc970       ?RemoveAt@?$CArray@U_TAG_APPLIED_CON_MAGIC@@U1@@@QAEXHH@Z 004dd970 f i UserManager.obj
 0001:000dca90       ??_E?$CMap@HHPAVCUser@@PAV1@@@UAEPAXI@Z 004dda90 f i UserManager.obj
 0001:000dca90       ??_G?$CMap@HHPAVCUser@@PAV1@@@UAEPAXI@Z 004dda90 f i UserManager.obj
 0001:000dcae0       ??_E?$CArray@PAU_TAG_SET_MAGIC_INFO@@PAU1@@@UAEPAXI@Z 004ddae0 f i UserManager.obj
 0001:000dcae0       ??_G?$CArray@PAU_TAG_SET_MAGIC_INFO@@PAU1@@@UAEPAXI@Z 004ddae0 f i UserManager.obj
 0001:000dcb30       ??_E?$CArray@PAU_TAG_MAGIC_TABLE@@PAU1@@@UAEPAXI@Z 004ddb30 f i UserManager.obj
 0001:000dcb30       ??_G?$CArray@PAU_TAG_MAGIC_TABLE@@PAU1@@@UAEPAXI@Z 004ddb30 f i UserManager.obj
 0001:000dcb80       ??_G?$CArray@U_TAG_DEAD_INFO@@U1@@@UAEPAXI@Z 004ddb80 f i UserManager.obj
 0001:000dcb80       ??_E?$CArray@U_TAG_DEAD_INFO@@U1@@@UAEPAXI@Z 004ddb80 f i UserManager.obj
 0001:000dcbd0       ?SetAt@?$CMap@HHPAVCUser@@PAV1@@@QAEXHPAVCUser@@@Z 004ddbd0 f i UserManager.obj
 0001:000dcc20       ?InitHashTable@?$CMap@HHPAVCUser@@PAV1@@@QAEXIH@Z 004ddc20 f i UserManager.obj
 0001:000dcd20       ?NewAssoc@?$CMap@HHPAVCUser@@PAV1@@@IAEPAUCAssoc@1@XZ 004ddd20 f i UserManager.obj
 0001:000dce60       ?FreeAssoc@?$CMap@HHPAVCUser@@PAV1@@@IAEXPAUCAssoc@1@@Z 004dde60 f i UserManager.obj
 0001:000dcf10       ?GetAssocAt@?$CMap@HHPAVCUser@@PAV1@@@IBEPAUCAssoc@1@HAAI@Z 004ddf10 f i UserManager.obj
 0001:000dcfb0       ?DestructElements@@YGXPAPAVCUser@@H@Z 004ddfb0 f i UserManager.obj
 0001:000dd030       ?SerializeElements@@YGXAAVCArchive@@PAPAVCUser@@H@Z 004de030 f i UserManager.obj
 0001:000dd0d0       ?DumpElements@@YGXAAVCDumpContext@@PBQAVCUser@@H@Z 004de0d0 f i UserManager.obj
 0001:000dd130       ?SetSize@?$CArray@PAU_TAG_SET_MAGIC_INFO@@PAU1@@@QAEXHH@Z 004de130 f i UserManager.obj
 0001:000dd450       ?SetAtGrow@?$CArray@PAU_TAG_SET_MAGIC_INFO@@PAU1@@@QAEXHPAU_TAG_SET_MAGIC_INFO@@@Z 004de450 f i UserManager.obj
 0001:000dd4e0       ?DestructElements@@YGXPAPAU_TAG_SET_MAGIC_INFO@@H@Z 004de4e0 f i UserManager.obj
 0001:000dd560       ?SerializeElements@@YGXAAVCArchive@@PAPAU_TAG_SET_MAGIC_INFO@@H@Z 004de560 f i UserManager.obj
 0001:000dd600       ?DumpElements@@YGXAAVCDumpContext@@PBQAU_TAG_SET_MAGIC_INFO@@H@Z 004de600 f i UserManager.obj
 0001:000dd660       ?SetSize@?$CArray@PAU_TAG_MAGIC_TABLE@@PAU1@@@QAEXHH@Z 004de660 f i UserManager.obj
 0001:000dd980       ?SetAtGrow@?$CArray@PAU_TAG_MAGIC_TABLE@@PAU1@@@QAEXHPAU_TAG_MAGIC_TABLE@@@Z 004de980 f i UserManager.obj
 0001:000dda10       ?DestructElements@@YGXPAPAU_TAG_MAGIC_TABLE@@H@Z 004dea10 f i UserManager.obj
 0001:000dda90       ?SerializeElements@@YGXAAVCArchive@@PAPAU_TAG_MAGIC_TABLE@@H@Z 004dea90 f i UserManager.obj
 0001:000ddb30       ?DumpElements@@YGXAAVCDumpContext@@PBQAU_TAG_MAGIC_TABLE@@H@Z 004deb30 f i UserManager.obj
 0001:000ddb90       ?SetSize@?$CArray@U_TAG_DEAD_INFO@@U1@@@QAEXHH@Z 004deb90 f i UserManager.obj
 0001:000ddec0       ?SetAtGrow@?$CArray@U_TAG_DEAD_INFO@@U1@@@QAEXHU_TAG_DEAD_INFO@@@Z 004deec0 f i UserManager.obj
 0001:000ddf70       ?DestructElements@@YGXPAU_TAG_DEAD_INFO@@H@Z 004def70 f i UserManager.obj
 0001:000ddff0       ?SerializeElements@@YGXAAVCArchive@@PAU_TAG_DEAD_INFO@@H@Z 004deff0 f i UserManager.obj
 0001:000de090       ?DumpElements@@YGXAAVCDumpContext@@PBU_TAG_DEAD_INFO@@H@Z 004df090 f i UserManager.obj
 0001:000de0f0       ?SetAtGrow@?$CArray@U_TAG_APPLIED_CON_MAGIC@@U1@@@QAEXHU_TAG_APPLIED_CON_MAGIC@@@Z 004df0f0 f i UserManager.obj
 0001:000de190       ?ConstructElements@@YGXPAPAVCUser@@H@Z 004df190 f i UserManager.obj
 0001:000de240       ?ConstructElements@@YGXPAPAU_TAG_SET_MAGIC_INFO@@H@Z 004df240 f i UserManager.obj
 0001:000de2f0       ?ConstructElements@@YGXPAPAU_TAG_MAGIC_TABLE@@H@Z 004df2f0 f i UserManager.obj
 0001:000de3a0       ?ConstructElements@@YGXPAU_TAG_DEAD_INFO@@H@Z 004df3a0 f i UserManager.obj
 0001:000de490       ??0CWeather@@QAE@XZ        004df490 f   Weather.obj
 0001:000de500       ??_GCWeather@@UAEPAXI@Z    004df500 f i Weather.obj
 0001:000de500       ??_ECWeather@@UAEPAXI@Z    004df500 f i Weather.obj
 0001:000de560       ??1CWeather@@UAE@XZ        004df560 f   Weather.obj
 0001:000de590       ?SetWeatherInfo@CWeather@@QAEXFFFKKEE@Z 004df590 f   Weather.obj
 0001:000de650       ?SetRain@CRain@@SAXXZ      004df650 f i Weather.obj
 0001:000de690       ?SetEraseRain@CRain@@SAXXZ 004df690 f i Weather.obj
 0001:000de6d0       ?GetNightState@CWeather@@QAEHXZ 004df6d0 f   Weather.obj
 0001:000de700       ?GetRainState@CWeather@@QAEHXZ 004df700 f   Weather.obj
 0001:000de740       ?GetSnowState@CWeather@@QAEHXZ 004df740 f   Weather.obj
 0001:000de780       ?GetWeatherInfo@CWeather@@QAEXAAF000AAE@Z 004df780 f   Weather.obj
 0001:000de7ea       _DirectDrawCreate@12       004df7ea f   ddraw:DDRAW.dll
 0001:000de7f0       ??0CAniObjLSP@@QAE@XZ      004df7f0 f   IGObject_Debug:AniObjLSP.obj
 0001:000de8b0       ??_GCAniObjLSP@@UAEPAXI@Z  004df8b0 f i IGObject_Debug:AniObjLSP.obj
 0001:000de8b0       ??_ECAniObjLSP@@UAEPAXI@Z  004df8b0 f i IGObject_Debug:AniObjLSP.obj
 0001:000de910       ??1CAniObjLSP@@UAE@XZ      004df910 f   IGObject_Debug:AniObjLSP.obj
 0001:000de9a0       ??1?$map@HKU?$less@H@std@@V?$allocator@K@2@@std@@QAE@XZ 004df9a0 f i IGObject_Debug:AniObjLSP.obj
 0001:000de9e0       ?SprRelease@CAniObjLSP@@QAEXXZ 004df9e0 f   IGObject_Debug:AniObjLSP.obj
 0001:000dead0       ?SprLoad@CAniObjLSP@@UAEXPBDH@Z 004dfad0 f   IGObject_Debug:AniObjLSP.obj
 0001:000dee80       ??4_SPR_HEADER@@QAEABU0@ABU0@@Z 004dfe80 f i IGObject_Debug:AniObjLSP.obj
 0001:000deed0       ?SprLoadEx@CAniObjLSP@@UAEXPBDHH@Z 004dfed0 f   IGObject_Debug:AniObjLSP.obj
 0001:000df4b0       ?SprAlloc@CAniObjLSP@@MAEXH@Z 004e04b0 f   IGObject_Debug:AniObjLSP.obj
 0001:000df560       ?SprGet@CAniObjLSP@@QAEHHPAPBU_SPR_LSP@@@Z 004e0560 f   IGObject_Debug:AniObjLSP.obj
 0001:000df650       ?RemoveUnUseSpr@CAniObjLSP@@QAEXXZ 004e0650 f   IGObject_Debug:AniObjLSP.obj
 0001:000df7e0       ?Decode2_555@CAniObjLSP@@QAEXPAU_SPR_LSP@@@Z 004e07e0 f   IGObject_Debug:AniObjLSP.obj
 0001:000df8d0       ?Decode2_555_1@CAniObjLSP@@QAEXPAU_SPR_LSP@@@Z 004e08d0 f   IGObject_Debug:AniObjLSP.obj
 0001:000df9c0       ?Decode2_565_1@CAniObjLSP@@QAEXPAU_SPR_LSP@@@Z 004e09c0 f   IGObject_Debug:AniObjLSP.obj
 0001:000dfab0       ?Decode2_Shadow@CAniObjLSP@@QAEXPAU_SPR_LSP@@@Z 004e0ab0 f   IGObject_Debug:AniObjLSP.obj
 0001:000dfb80       ?Decode2_565@CAniObjLSP@@QAEXPAU_SPR_LSP@@@Z 004e0b80 f   IGObject_Debug:AniObjLSP.obj
 0001:000dfc70       ?SprGetAnimated@CAniObjLSP@@QAEHPAPBU_SPR_LSP@@H@Z 004e0c70 f   IGObject_Debug:AniObjLSP.obj
 0001:000dfcf0       ?Convert8PixelTo16Pixel@CAniObjLSP@@IAEHPAEPAGPAUtagRGBQUAD@@H@Z 004e0cf0 f   IGObject_Debug:AniObjLSP.obj
 0001:000dfde0       ?RGB16@CAniObjLSP@@IAEGGGG@Z 004e0de0 f i IGObject_Debug:AniObjLSP.obj
 0001:000dfe40       ??0?$map@HKU?$less@H@std@@V?$allocator@K@2@@std@@QAE@ABU?$less@H@1@ABV?$allocator@K@1@@Z 004e0e40 f i IGObject_Debug:AniObjLSP.obj
 0001:000dfe90       ?begin@?$map@HKU?$less@H@std@@V?$allocator@K@2@@std@@QAE?AViterator@?$_Tree@HU?$pair@$$CBHK@std@@U_Kfn@?$map@HKU?$less@H@std@@V?$allocator@K@2@@2@U?$less@H@2@V?$allocator@K@2@@2@XZ 004e0e90 f i IGObject_Debug:AniObjLSP.obj
 0001:000dfed0       ?end@?$map@HKU?$less@H@std@@V?$allocator@K@2@@std@@QAE?AViterator@?$_Tree@HU?$pair@$$CBHK@std@@U_Kfn@?$map@HKU?$less@H@std@@V?$allocator@K@2@@2@U?$less@H@2@V?$allocator@K@2@@2@XZ 004e0ed0 f i IGObject_Debug:AniObjLSP.obj
 0001:000dff10       ?insert@?$map@HKU?$less@H@std@@V?$allocator@K@2@@std@@QAE?AU?$pair@Viterator@?$_Tree@HU?$pair@$$CBHK@std@@U_Kfn@?$map@HKU?$less@H@std@@V?$allocator@K@2@@2@U?$less@H@2@V?$allocator@K@2@@std@@_N@2@ABU?$pair@$$CBHK@2@@Z 004e0f10 f i IGObject_Debug:AniObjLSP.obj
 0001:000dff70       ?erase@?$map@HKU?$less@H@std@@V?$allocator@K@2@@std@@QAE?AViterator@?$_Tree@HU?$pair@$$CBHK@std@@U_Kfn@?$map@HKU?$less@H@std@@V?$allocator@K@2@@2@U?$less@H@2@V?$allocator@K@2@@2@V342@@Z 004e0f70 f i IGObject_Debug:AniObjLSP.obj
 0001:000dffc0       ?find@?$map@HKU?$less@H@std@@V?$allocator@K@2@@std@@QAE?AViterator@?$_Tree@HU?$pair@$$CBHK@std@@U_Kfn@?$map@HKU?$less@H@std@@V?$allocator@K@2@@2@U?$less@H@2@V?$allocator@K@2@@2@ABH@Z 004e0fc0 f i IGObject_Debug:AniObjLSP.obj
 0001:000e0010       ??1?$_Tree@HU?$pair@$$CBHK@std@@U_Kfn@?$map@HKU?$less@H@std@@V?$allocator@K@2@@2@U?$less@H@2@V?$allocator@K@2@@std@@QAE@XZ 004e1010 f i IGObject_Debug:AniObjLSP.obj
 0001:000e00e0       ??0_Lockit@std@@QAE@XZ     004e10e0 f i IGObject_Debug:AniObjLSP.obj
 0001:000e0110       ??1_Lockit@std@@QAE@XZ     004e1110 f i IGObject_Debug:AniObjLSP.obj
 0001:000e0140       ??0?$pair@$$CBHK@std@@QAE@ABHABK@Z 004e1140 f i IGObject_Debug:AniObjLSP.obj
 0001:000e0180       ??Diterator@?$_Tree@HU?$pair@$$CBHK@std@@U_Kfn@?$map@HKU?$less@H@std@@V?$allocator@K@2@@2@U?$less@H@2@V?$allocator@K@2@@std@@QBEAAU?$pair@$$CBHK@2@XZ 004e1180 f i IGObject_Debug:AniObjLSP.obj
 0001:000e01c0       ??Eiterator@?$_Tree@HU?$pair@$$CBHK@std@@U_Kfn@?$map@HKU?$less@H@std@@V?$allocator@K@2@@2@U?$less@H@2@V?$allocator@K@2@@std@@QAEAAV012@XZ 004e11c0 f i IGObject_Debug:AniObjLSP.obj
 0001:000e0200       ??Eiterator@?$_Tree@HU?$pair@$$CBHK@std@@U_Kfn@?$map@HKU?$less@H@std@@V?$allocator@K@2@@2@U?$less@H@2@V?$allocator@K@2@@std@@QAE?AV012@H@Z 004e1200 f i IGObject_Debug:AniObjLSP.obj
 0001:000e0250       ??9iterator@?$_Tree@HU?$pair@$$CBHK@std@@U_Kfn@?$map@HKU?$less@H@std@@V?$allocator@K@2@@2@U?$less@H@2@V?$allocator@K@2@@std@@QBE_NABV012@@Z 004e1250 f i IGObject_Debug:AniObjLSP.obj
 0001:000e02a0       ?_Value@?$_Tree@HU?$pair@$$CBHK@std@@U_Kfn@?$map@HKU?$less@H@std@@V?$allocator@K@2@@2@U?$less@H@2@V?$allocator@K@2@@std@@KAAAU?$pair@$$CBHK@2@PAU_Node@12@@Z 004e12a0 f i IGObject_Debug:AniObjLSP.obj
 0001:000e02d0       ??0?$_Tree@HU?$pair@$$CBHK@std@@U_Kfn@?$map@HKU?$less@H@std@@V?$allocator@K@2@@2@U?$less@H@2@V?$allocator@K@2@@std@@QAE@ABU?$less@H@1@_NABV?$allocator@K@1@@Z 004e12d0 f i IGObject_Debug:AniObjLSP.obj
 0001:000e0330       ?begin@?$_Tree@HU?$pair@$$CBHK@std@@U_Kfn@?$map@HKU?$less@H@std@@V?$allocator@K@2@@2@U?$less@H@2@V?$allocator@K@2@@std@@QAE?AViterator@12@XZ 004e1330 f i IGObject_Debug:AniObjLSP.obj
 0001:000e0380       ?end@?$_Tree@HU?$pair@$$CBHK@std@@U_Kfn@?$map@HKU?$less@H@std@@V?$allocator@K@2@@2@U?$less@H@2@V?$allocator@K@2@@std@@QAE?AViterator@12@XZ 004e1380 f i IGObject_Debug:AniObjLSP.obj
 0001:000e03d0       ?insert@?$_Tree@HU?$pair@$$CBHK@std@@U_Kfn@?$map@HKU?$less@H@std@@V?$allocator@K@2@@2@U?$less@H@2@V?$allocator@K@2@@std@@QAE?AU?$pair@Viterator@?$_Tree@HU?$pair@$$CBHK@std@@U_Kfn@?$map@HKU?$less@H@std@@V?$allocator@K@2@@2@U?$less@H@2@V?$allocator@K@2@@std@@_N@2@ABU?$pair@$$CBHK@2@@Z 004e13d0 f i IGObject_Debug:AniObjLSP.obj
 0001:000e05c0       ?erase@?$_Tree@HU?$pair@$$CBHK@std@@U_Kfn@?$map@HKU?$less@H@std@@V?$allocator@K@2@@2@U?$less@H@2@V?$allocator@K@2@@std@@QAE?AViterator@12@V312@@Z 004e15c0 f i IGObject_Debug:AniObjLSP.obj
 0001:000e0df0       ?erase@?$_Tree@HU?$pair@$$CBHK@std@@U_Kfn@?$map@HKU?$less@H@std@@V?$allocator@K@2@@2@U?$less@H@2@V?$allocator@K@2@@std@@QAE?AViterator@12@V312@0@Z 004e1df0 f i IGObject_Debug:AniObjLSP.obj
 0001:000e0f10       ?find@?$_Tree@HU?$pair@$$CBHK@std@@U_Kfn@?$map@HKU?$less@H@std@@V?$allocator@K@2@@2@U?$less@H@2@V?$allocator@K@2@@std@@QAE?AViterator@12@ABH@Z 004e1f10 f i IGObject_Debug:AniObjLSP.obj
 0001:000e0fd0       ?_Freenode@?$_Tree@HU?$pair@$$CBHK@std@@U_Kfn@?$map@HKU?$less@H@std@@V?$allocator@K@2@@2@U?$less@H@2@V?$allocator@K@2@@std@@IAEXPAU_Node@12@@Z 004e1fd0 f i IGObject_Debug:AniObjLSP.obj
 0001:000e1010       ?_Inc@const_iterator@?$_Tree@HU?$pair@$$CBHK@std@@U_Kfn@?$map@HKU?$less@H@std@@V?$allocator@K@2@@2@U?$less@H@2@V?$allocator@K@2@@std@@QAEXXZ 004e2010 f i IGObject_Debug:AniObjLSP.obj
 0001:000e10d0       ??8iterator@?$_Tree@HU?$pair@$$CBHK@std@@U_Kfn@?$map@HKU?$less@H@std@@V?$allocator@K@2@@2@U?$less@H@2@V?$allocator@K@2@@std@@QBE_NABV012@@Z 004e20d0 f i IGObject_Debug:AniObjLSP.obj
 0001:000e1110       ??0?$pair@Viterator@?$_Tree@HU?$pair@$$CBHK@std@@U_Kfn@?$map@HKU?$less@H@std@@V?$allocator@K@2@@2@U?$less@H@2@V?$allocator@K@2@@std@@_N@std@@QAE@ABViterator@?$_Tree@HU?$pair@$$CBHK@std@@U_Kfn@?$map@HKU?$less@H@std@@V?$allocator@K@2@@2@U?$less@H@2@V?$allocator@K@2@@1@AB_N@Z 004e2110 f i IGObject_Debug:AniObjLSP.obj
 0001:000e1150       ??R_Kfn@?$map@HKU?$less@H@std@@V?$allocator@K@2@@std@@QBEABHABU?$pair@$$CBHK@2@@Z 004e2150 f i IGObject_Debug:AniObjLSP.obj
 0001:000e1180       ??R?$less@H@std@@QBE_NABH0@Z 004e2180 f i IGObject_Debug:AniObjLSP.obj
 0001:000e11c0       ?deallocate@?$allocator@K@std@@QAEXPAXI@Z 004e21c0 f i IGObject_Debug:AniObjLSP.obj
 0001:000e1200       ?_Color@?$_Tree@HU?$pair@$$CBHK@std@@U_Kfn@?$map@HKU?$less@H@std@@V?$allocator@K@2@@2@U?$less@H@2@V?$allocator@K@2@@std@@KAAAW4_Redbl@12@PAU_Node@12@@Z 004e2200 f i IGObject_Debug:AniObjLSP.obj
 0001:000e1230       ?_Key@?$_Tree@HU?$pair@$$CBHK@std@@U_Kfn@?$map@HKU?$less@H@std@@V?$allocator@K@2@@2@U?$less@H@2@V?$allocator@K@2@@std@@KAABHPAU_Node@12@@Z 004e2230 f i IGObject_Debug:AniObjLSP.obj
 0001:000e1270       ?_Left@?$_Tree@HU?$pair@$$CBHK@std@@U_Kfn@?$map@HKU?$less@H@std@@V?$allocator@K@2@@2@U?$less@H@2@V?$allocator@K@2@@std@@KAAAPAU_Node@12@PAU312@@Z 004e2270 f i IGObject_Debug:AniObjLSP.obj
 0001:000e12a0       ?_Parent@?$_Tree@HU?$pair@$$CBHK@std@@U_Kfn@?$map@HKU?$less@H@std@@V?$allocator@K@2@@2@U?$less@H@2@V?$allocator@K@2@@std@@KAAAPAU_Node@12@PAU312@@Z 004e22a0 f i IGObject_Debug:AniObjLSP.obj
 0001:000e12d0       ?_Right@?$_Tree@HU?$pair@$$CBHK@std@@U_Kfn@?$map@HKU?$less@H@std@@V?$allocator@K@2@@2@U?$less@H@2@V?$allocator@K@2@@std@@KAAAPAU_Node@12@PAU312@@Z 004e22d0 f i IGObject_Debug:AniObjLSP.obj
 0001:000e1300       ?size@?$_Tree@HU?$pair@$$CBHK@std@@U_Kfn@?$map@HKU?$less@H@std@@V?$allocator@K@2@@2@U?$less@H@2@V?$allocator@K@2@@std@@QBEIXZ 004e2300 f i IGObject_Debug:AniObjLSP.obj
 0001:000e1330       ?lower_bound@?$_Tree@HU?$pair@$$CBHK@std@@U_Kfn@?$map@HKU?$less@H@std@@V?$allocator@K@2@@2@U?$less@H@2@V?$allocator@K@2@@std@@QAE?AViterator@12@ABH@Z 004e2330 f i IGObject_Debug:AniObjLSP.obj
 0001:000e1380       ?_Erase@?$_Tree@HU?$pair@$$CBHK@std@@U_Kfn@?$map@HKU?$less@H@std@@V?$allocator@K@2@@2@U?$less@H@2@V?$allocator@K@2@@std@@IAEXPAU_Node@12@@Z 004e2380 f i IGObject_Debug:AniObjLSP.obj
 0001:000e1420       ?_Init@?$_Tree@HU?$pair@$$CBHK@std@@U_Kfn@?$map@HKU?$less@H@std@@V?$allocator@K@2@@2@U?$less@H@2@V?$allocator@K@2@@std@@IAEXXZ 004e2420 f i IGObject_Debug:AniObjLSP.obj
 0001:000e1540       ?_Insert@?$_Tree@HU?$pair@$$CBHK@std@@U_Kfn@?$map@HKU?$less@H@std@@V?$allocator@K@2@@2@U?$less@H@2@V?$allocator@K@2@@std@@IAE?AViterator@12@PAU_Node@12@0ABU?$pair@$$CBHK@2@@Z 004e2540 f i IGObject_Debug:AniObjLSP.obj
 0001:000e19f0       ?_Lmost@?$_Tree@HU?$pair@$$CBHK@std@@U_Kfn@?$map@HKU?$less@H@std@@V?$allocator@K@2@@2@U?$less@H@2@V?$allocator@K@2@@std@@IAEAAPAU_Node@12@XZ 004e29f0 f i IGObject_Debug:AniObjLSP.obj
 0001:000e1a30       ?_Lrotate@?$_Tree@HU?$pair@$$CBHK@std@@U_Kfn@?$map@HKU?$less@H@std@@V?$allocator@K@2@@2@U?$less@H@2@V?$allocator@K@2@@std@@IAEXPAU_Node@12@@Z 004e2a30 f i IGObject_Debug:AniObjLSP.obj
 0001:000e1b80       ?_Max@?$_Tree@HU?$pair@$$CBHK@std@@U_Kfn@?$map@HKU?$less@H@std@@V?$allocator@K@2@@2@U?$less@H@2@V?$allocator@K@2@@std@@KAPAU_Node@12@PAU312@@Z 004e2b80 f i IGObject_Debug:AniObjLSP.obj
 0001:000e1be0       ?_Min@?$_Tree@HU?$pair@$$CBHK@std@@U_Kfn@?$map@HKU?$less@H@std@@V?$allocator@K@2@@2@U?$less@H@2@V?$allocator@K@2@@std@@KAPAU_Node@12@PAU312@@Z 004e2be0 f i IGObject_Debug:AniObjLSP.obj
 0001:000e1c40       ?_Rmost@?$_Tree@HU?$pair@$$CBHK@std@@U_Kfn@?$map@HKU?$less@H@std@@V?$allocator@K@2@@2@U?$less@H@2@V?$allocator@K@2@@std@@IAEAAPAU_Node@12@XZ 004e2c40 f i IGObject_Debug:AniObjLSP.obj
 0001:000e1c80       ?_Root@?$_Tree@HU?$pair@$$CBHK@std@@U_Kfn@?$map@HKU?$less@H@std@@V?$allocator@K@2@@2@U?$less@H@2@V?$allocator@K@2@@std@@IAEAAPAU_Node@12@XZ 004e2c80 f i IGObject_Debug:AniObjLSP.obj
 0001:000e1cc0       ?_Rrotate@?$_Tree@HU?$pair@$$CBHK@std@@U_Kfn@?$map@HKU?$less@H@std@@V?$allocator@K@2@@2@U?$less@H@2@V?$allocator@K@2@@std@@IAEXPAU_Node@12@@Z 004e2cc0 f i IGObject_Debug:AniObjLSP.obj
 0001:000e1e10       ?_Destval@?$_Tree@HU?$pair@$$CBHK@std@@U_Kfn@?$map@HKU?$less@H@std@@V?$allocator@K@2@@2@U?$less@H@2@V?$allocator@K@2@@std@@IAEXPAU?$pair@$$CBHK@2@@Z 004e2e10 f i IGObject_Debug:AniObjLSP.obj
 0001:000e1e50       ?_Mynode@const_iterator@?$_Tree@HU?$pair@$$CBHK@std@@U_Kfn@?$map@HKU?$less@H@std@@V?$allocator@K@2@@2@U?$less@H@2@V?$allocator@K@2@@std@@QBEPAU_Node@23@XZ 004e2e50 f i IGObject_Debug:AniObjLSP.obj
 0001:000e1e80       ??0iterator@?$_Tree@HU?$pair@$$CBHK@std@@U_Kfn@?$map@HKU?$less@H@std@@V?$allocator@K@2@@2@U?$less@H@2@V?$allocator@K@2@@std@@QAE@PAU_Node@12@@Z 004e2e80 f i IGObject_Debug:AniObjLSP.obj
 0001:000e1ec0       ??Fiterator@?$_Tree@HU?$pair@$$CBHK@std@@U_Kfn@?$map@HKU?$less@H@std@@V?$allocator@K@2@@2@U?$less@H@2@V?$allocator@K@2@@std@@QAEAAV012@XZ 004e2ec0 f i IGObject_Debug:AniObjLSP.obj
 0001:000e1f00       ?_Lbound@?$_Tree@HU?$pair@$$CBHK@std@@U_Kfn@?$map@HKU?$less@H@std@@V?$allocator@K@2@@2@U?$less@H@2@V?$allocator@K@2@@std@@IBEPAU_Node@12@ABH@Z 004e2f00 f i IGObject_Debug:AniObjLSP.obj
 0001:000e1fb0       ?_Buynode@?$_Tree@HU?$pair@$$CBHK@std@@U_Kfn@?$map@HKU?$less@H@std@@V?$allocator@K@2@@2@U?$less@H@2@V?$allocator@K@2@@std@@IAEPAU_Node@12@PAU312@W4_Redbl@12@@Z 004e2fb0 f i IGObject_Debug:AniObjLSP.obj
 0001:000e2020       ?_Consval@?$_Tree@HU?$pair@$$CBHK@std@@U_Kfn@?$map@HKU?$less@H@std@@V?$allocator@K@2@@2@U?$less@H@2@V?$allocator@K@2@@std@@IAEXPAU?$pair@$$CBHK@2@ABU32@@Z 004e3020 f i IGObject_Debug:AniObjLSP.obj
 0001:000e2060       ??0const_iterator@?$_Tree@HU?$pair@$$CBHK@std@@U_Kfn@?$map@HKU?$less@H@std@@V?$allocator@K@2@@2@U?$less@H@2@V?$allocator@K@2@@std@@QAE@PAU_Node@12@@Z 004e3060 f i IGObject_Debug:AniObjLSP.obj
 0001:000e20a0       ?_Dec@const_iterator@?$_Tree@HU?$pair@$$CBHK@std@@U_Kfn@?$map@HKU?$less@H@std@@V?$allocator@K@2@@2@U?$less@H@2@V?$allocator@K@2@@std@@QAEXXZ 004e30a0 f i IGObject_Debug:AniObjLSP.obj
 0001:000e2190       ?_Charalloc@?$allocator@K@std@@QAEPADI@Z 004e3190 f i IGObject_Debug:AniObjLSP.obj
 0001:000e21d0       ?_Root@?$_Tree@HU?$pair@$$CBHK@std@@U_Kfn@?$map@HKU?$less@H@std@@V?$allocator@K@2@@2@U?$less@H@2@V?$allocator@K@2@@std@@IBEAAPAU_Node@12@XZ 004e31d0 f i IGObject_Debug:AniObjLSP.obj
 0001:000e2210       ?swap@std@@YAXAAW4_Redbl@?$_Tree@HU?$pair@$$CBHK@std@@U_Kfn@?$map@HKU?$less@H@std@@V?$allocator@K@2@@2@U?$less@H@2@V?$allocator@K@2@@1@0@Z 004e3210 f i IGObject_Debug:AniObjLSP.obj
 0001:000e2250       ?_Destroy@std@@YAXPAU?$pair@$$CBHK@1@@Z 004e3250 f i IGObject_Debug:AniObjLSP.obj
 0001:000e2270       ?_Construct@std@@YAXPAU?$pair@$$CBHK@1@ABU21@@Z 004e3270 f i IGObject_Debug:AniObjLSP.obj
 0001:000e22d0       ?_Allocate@std@@YAPADHPAD@Z 004e32d0 f i IGObject_Debug:AniObjLSP.obj
 0001:000e2320       ??0CAniObj@@QAE@XZ         004e3320 f   IGObject_Debug:AniObj.obj
 0001:000e2400       ??_ECAniObj@@UAEPAXI@Z     004e3400 f i IGObject_Debug:AniObj.obj
 0001:000e2400       ??_GCAniObj@@UAEPAXI@Z     004e3400 f i IGObject_Debug:AniObj.obj
 0001:000e2460       ??1CAniObj@@UAE@XZ         004e3460 f   IGObject_Debug:AniObj.obj
 0001:000e24b0       ?AniRelease@CAniObj@@QAEXXZ 004e34b0 f   IGObject_Debug:AniObj.obj
 0001:000e2590       ?AniCtrlRelease@CAniObj@@QAEXXZ 004e3590 f   IGObject_Debug:AniObj.obj
 0001:000e2700       ?AniLoad@CAniObj@@QAEXPBD@Z 004e3700 f   IGObject_Debug:AniObj.obj
 0001:000e2970       ??4_ANI_HEADER@@QAEABU0@ABU0@@Z 004e3970 f i IGObject_Debug:AniObj.obj
 0001:000e29c0       ?AniLoadEx@CAniObj@@QAEXPBDH@Z 004e39c0 f   IGObject_Debug:AniObj.obj
 0001:000e2c40       ?AniAlloc@CAniObj@@QAEXH@Z 004e3c40 f   IGObject_Debug:AniObj.obj
 0001:000e2cf0       ?AniCtrlAlloc@CAniObj@@QAEXH@Z 004e3cf0 f   IGObject_Debug:AniObj.obj
 0001:000e2ea0       ?AniCtrlAllocEx@CAniObj@@QAEXHH@Z 004e3ea0 f   IGObject_Debug:AniObj.obj
 0001:000e3070       ?AniDataGet@CAniObj@@QAEPAU_ANI_DATA@@H@Z 004e4070 f   IGObject_Debug:AniObj.obj
 0001:000e30c0       ?AniSet@CAniObj@@QAEXHHH@Z 004e40c0 f   IGObject_Debug:AniObj.obj
 0001:000e3180       ?FrmSet@CAniObj@@QAEXHH@Z  004e4180 f   IGObject_Debug:AniObj.obj
 0001:000e31e0       ?DirSet@CAniObj@@QAEXHH@Z  004e41e0 f   IGObject_Debug:AniObj.obj
 0001:000e3270       ?FrmGetMax@CAniObj@@QAEHH@Z 004e4270 f   IGObject_Debug:AniObj.obj
 0001:000e32f0       ?ActionSpeedSet@CAniObj@@QAEMM@Z 004e42f0 f   IGObject_Debug:AniObj.obj
 0001:000e3350       ?FrmGetByAniAndDirAndSeq@CAniObj@@QAEHHHH@Z 004e4350 f   IGObject_Debug:AniObj.obj
 0001:000e3400       ?FrmGetAnimated@CAniObj@@QAEHH@Z 004e4400 f   IGObject_Debug:AniObj.obj
 0001:000e3600       ??0CDDEngineNew@@QAE@XZ    004e4600 f   IGObject_Debug:DDEngine.obj
 0001:000e3790       ??_ECDDEngineNew@@UAEPAXI@Z 004e4790 f i IGObject_Debug:DDEngine.obj
 0001:000e3790       ??_GCDDEngineNew@@UAEPAXI@Z 004e4790 f i IGObject_Debug:DDEngine.obj
 0001:000e37f0       ??1CDDEngineNew@@UAE@XZ    004e47f0 f   IGObject_Debug:DDEngine.obj
 0001:000e3930       ?Init@CDDEngineNew@@QAEXPAUHWND__@@HHH@Z 004e4930 f   IGObject_Debug:DDEngine.obj
 0001:000e3f70       ?SurfaceCreate@CDDEngineNew@@QAEPAUIDirectDrawSurface7@@HHHK@Z 004e4f70 f   IGObject_Debug:DDEngine.obj
 0001:000e40b0       ?SurfaceColorKeySet@CDDEngineNew@@QAEXPAUIDirectDrawSurface7@@K@Z 004e50b0 f   IGObject_Debug:DDEngine.obj
 0001:000e4130       ?RGB16@CDDEngineNew@@QAEGK@Z 004e5130 f i IGObject_Debug:DDEngine.obj
 0001:000e41f0       ?BltNormal@CDDEngineNew@@QAEXPAUIDirectDrawSurface7@@HHPBUtagRECT@@HHHK0@Z 004e51f0 f   IGObject_Debug:DDEngine.obj
 0001:000e46c0       ?SurfaceLock@CDDEngineNew@@QAEJPAUIDirectDrawSurface7@@PAU_DDSURFACEDESC2@@PAUtagRECT@@@Z 004e56c0 f i IGObject_Debug:DDEngine.obj
 0001:000e4740       ?SurfaceUnlock@CDDEngineNew@@QAEJPAUIDirectDrawSurface7@@PAUtagRECT@@@Z 004e5740 f i IGObject_Debug:DDEngine.obj
 0001:000e47a0       ?PutPixelAlphaAdd@CDDEngineNew@@IAEXPBG0HKKK@Z 004e57a0 f i IGObject_Debug:DDEngine.obj
 0001:000e4840       ?PutPixelAlphaSoft@CDDEngineNew@@IAEXPBG0HKKK@Z 004e5840 f i IGObject_Debug:DDEngine.obj
 0001:000e48d0       ?PutPixelTrans@CDDEngineNew@@IAEXPBG0HHHKK@Z 004e58d0 f i IGObject_Debug:DDEngine.obj
 0001:000e4900       ?PutPixelDark@CDDEngineNew@@IAEXPBG0HHKK@Z 004e5900 f i IGObject_Debug:DDEngine.obj
 0001:000e4970       ?PutPixelShadow@CDDEngineNew@@IAEXPBG0HKK@Z 004e5970 f i IGObject_Debug:DDEngine.obj
 0001:000e49f0       ?PutPixelColor@CDDEngineNew@@IAEXPBG0HHKKK@Z 004e59f0 f i IGObject_Debug:DDEngine.obj
 0001:000e4a70       ?BackBufferLock@CDDEngineNew@@QAEXXZ 004e5a70 f   IGObject_Debug:DDEngine.obj
 0001:000e4af0       ?BackBufferUnlock@CDDEngineNew@@QAEXXZ 004e5af0 f   IGObject_Debug:DDEngine.obj
 0001:000e4b60       ?SurfaceCreateWithBMP@CDDEngineNew@@QAEPAUIDirectDrawSurface7@@PBDHKH@Z 004e5b60 f   IGObject_Debug:DDEngine.obj
 0001:000e4d30       ?SurfaceCreateWithGenericBMP@CDDEngineNew@@IAEPAUIDirectDrawSurface7@@PBDHK@Z 004e5d30 f   IGObject_Debug:DDEngine.obj
 0001:000e4ee0       ?SurfaceCreateWith16BMP@CDDEngineNew@@QAEPAUIDirectDrawSurface7@@PBDHKH@Z 004e5ee0 f   IGObject_Debug:DDEngine.obj
 0001:000e5130       ?Conv565_0PixelTo555Pixel@CDDEngineNew@@QAEXPAGPBGH@Z 004e6130 f i IGObject_Debug:DDEngine.obj
 0001:000e51b0       ?Conv565_1PixelTo555Pixel@CDDEngineNew@@QAEXPAGPBGH@Z 004e61b0 f i IGObject_Debug:DDEngine.obj
 0001:000e5270       ?Conv565_0SetPixel@CDDEngineNew@@QAEXPAGPBGH@Z 004e6270 f i IGObject_Debug:DDEngine.obj
 0001:000e5300       ?Conv565_1SetPixel@CDDEngineNew@@QAEXPAGPBGH@Z 004e6300 f i IGObject_Debug:DDEngine.obj
 0001:000e53b0       ?GetWidth@CDib16@@QAEHXZ   004e63b0 f i IGObject_Debug:DDEngine.obj
 0001:000e53e0       ?GetHeight@CDib16@@QAEHXZ  004e63e0 f i IGObject_Debug:DDEngine.obj
 0001:000e5410       ?Lock@CDib16@@QAEPAGXZ     004e6410 f i IGObject_Debug:DDEngine.obj
 0001:000e5470       ?Unlock@CDib16@@QAEXXZ     004e6470 f i IGObject_Debug:DDEngine.obj
 0001:000e54c0       ?PathGetCur@CDDEngineNew@@QBEPBDPBDH@Z 004e64c0 f   IGObject_Debug:DDEngine.obj
 0001:000e5580       ?PathSetCur@CDDEngineNew@@QAEXPBD@Z 004e6580 f   IGObject_Debug:DDEngine.obj
 0001:000e5620       ?PathSetWork@CDDEngineNew@@QAEXPBD@Z 004e6620 f   IGObject_Debug:DDEngine.obj
 0001:000e5670       ?Flip@CDDEngineNew@@QAEXPBUtagRECT@@@Z 004e6670 f   IGObject_Debug:DDEngine.obj
 0001:000e5a30       ?SurfaceFillRect@CDDEngineNew@@QAEXPAUIDirectDrawSurface7@@PBUtagRECT@@KH@Z 004e6a30 f   IGObject_Debug:DDEngine.obj
 0001:000e5e20       ?SurfaceGetSize@CDDEngineNew@@QAEXPAUIDirectDrawSurface7@@PAUtagRECT@@@Z 004e6e20 f   IGObject_Debug:DDEngine.obj
 0001:000e5ed0       ?DrawLine@CDDEngineNew@@QAEXPAUIDirectDrawSurface7@@HHHHK@Z 004e6ed0 f   IGObject_Debug:DDEngine.obj
 0001:000e5ff0       ?DrawBox@CDDEngineNew@@QAEXPAUIDirectDrawSurface7@@PBUtagRECT@@K@Z 004e6ff0 f   IGObject_Debug:DDEngine.obj
 0001:000e6130       ?DrawRhombus@CDDEngineNew@@QAEXPAUIDirectDrawSurface7@@HHK@Z 004e7130 f   IGObject_Debug:DDEngine.obj
 0001:000e62a0       ?DrawPolygon@CDDEngineNew@@QAEXPAUIDirectDrawSurface7@@PAUtagPOINT@@HK@Z 004e72a0 f   IGObject_Debug:DDEngine.obj
 0001:000e63c0       ?TextOutA@CDDEngineNew@@QAEXPAUIDirectDrawSurface7@@HHPBDKI@Z 004e73c0 f   IGObject_Debug:DDEngine.obj
 0001:000e64d0       ?SurfaceColorKeyGet@CDDEngineNew@@QAEKPAUIDirectDrawSurface7@@@Z 004e74d0 f   IGObject_Debug:DDEngine.obj
 0001:000e6540       ?RGB24@CDDEngineNew@@QAEKG@Z 004e7540 f i IGObject_Debug:DDEngine.obj
 0001:000e6600       ?Blt@CDDEngineNew@@QAEXPAUIDirectDrawSurface7@@0PAUtagRECT@@1H@Z 004e7600 f   IGObject_Debug:DDEngine.obj
 0001:000e6670       ??0CMapObj@@QAE@XZ         004e7670 f   IGObject_Debug:MapObj.obj
 0001:000e6730       ??_GCMapObj@@UAEPAXI@Z     004e7730 f i IGObject_Debug:MapObj.obj
 0001:000e6730       ??_ECMapObj@@UAEPAXI@Z     004e7730 f i IGObject_Debug:MapObj.obj
 0001:000e6790       ??1CMapObj@@UAE@XZ         004e7790 f   IGObject_Debug:MapObj.obj
 0001:000e6820       ?Release@CMapObj@@QAEXXZ   004e7820 f   IGObject_Debug:MapObj.obj
 0001:000e68c0       ?Alloc@CMapObj@@QAEXHH@Z   004e78c0 f   IGObject_Debug:MapObj.obj
 0001:000e69c0       ?Load@CMapObj@@QAEXPBD@Z   004e79c0 f   IGObject_Debug:MapObj.obj
 0001:000e6b70       ?Load@CMapObj@@QAEXAAPAX@Z 004e7b70 f   IGObject_Debug:MapObj.obj
 0001:000e6cb0       ?SetAlphaObj@CMapObj@@QAEXPAU_MAP_OBJ_HEADER@@@Z 004e7cb0 f   IGObject_Debug:MapObj.obj
 0001:000e6dc0       ?GetHalfAlpha@CMapObj@@QAEHH@Z 004e7dc0 f   IGObject_Debug:MapObj.obj
 0001:000e6e60       ?GetAddAlpha@CMapObj@@QAEHH@Z 004e7e60 f   IGObject_Debug:MapObj.obj
 0001:000e6f00       ?DeleteAlphaObj@CMapObj@@QAEXXZ 004e7f00 f   IGObject_Debug:MapObj.obj
 0001:000e6fb0       ??0?$list@HV?$allocator@H@std@@@std@@QAE@ABV?$allocator@H@1@@Z 004e7fb0 f i IGObject_Debug:MapObj.obj
 0001:000e7010       ??1?$list@HV?$allocator@H@std@@@std@@QAE@XZ 004e8010 f i IGObject_Debug:MapObj.obj
 0001:000e7090       ?begin@?$list@HV?$allocator@H@std@@@std@@QAE?AViterator@12@XZ 004e8090 f i IGObject_Debug:MapObj.obj
 0001:000e70e0       ?end@?$list@HV?$allocator@H@std@@@std@@QAE?AViterator@12@XZ 004e80e0 f i IGObject_Debug:MapObj.obj
 0001:000e7130       ?insert@?$list@HV?$allocator@H@std@@@std@@QAE?AViterator@12@V312@ABH@Z 004e8130 f i IGObject_Debug:MapObj.obj
 0001:000e7200       ?erase@?$list@HV?$allocator@H@std@@@std@@QAE?AViterator@12@V312@0@Z 004e8200 f i IGObject_Debug:MapObj.obj
 0001:000e7270       ??0iterator@?$list@HV?$allocator@H@std@@@std@@QAE@XZ 004e8270 f i IGObject_Debug:MapObj.obj
 0001:000e72b0       ??Diterator@?$list@HV?$allocator@H@std@@@std@@QBEAAHXZ 004e82b0 f i IGObject_Debug:MapObj.obj
 0001:000e72f0       ??Eiterator@?$list@HV?$allocator@H@std@@@std@@QAE?AV012@H@Z 004e82f0 f i IGObject_Debug:MapObj.obj
 0001:000e7340       ??9iterator@?$list@HV?$allocator@H@std@@@std@@QBE_NABV012@@Z 004e8340 f i IGObject_Debug:MapObj.obj
 0001:000e7390       ?erase@?$list@HV?$allocator@H@std@@@std@@QAE?AViterator@12@V312@@Z 004e8390 f i IGObject_Debug:MapObj.obj
 0001:000e7470       ?_Buynode@?$list@HV?$allocator@H@std@@@std@@IAEPAU_Node@12@PAU312@0@Z 004e8470 f i IGObject_Debug:MapObj.obj
 0001:000e7500       ?_Freenode@?$list@HV?$allocator@H@std@@@std@@IAEXPAU_Node@12@@Z 004e8500 f i IGObject_Debug:MapObj.obj
 0001:000e7540       ?_Next@_Acc@?$list@HV?$allocator@H@std@@@std@@SAAAPAU_Node@23@PAU423@@Z 004e8540 f i IGObject_Debug:MapObj.obj
 0001:000e7570       ?_Prev@_Acc@?$list@HV?$allocator@H@std@@@std@@SAAAPAU_Node@23@PAU423@@Z 004e8570 f i IGObject_Debug:MapObj.obj
 0001:000e75a0       ?_Value@_Acc@?$list@HV?$allocator@H@std@@@std@@SAAAHPAU_Node@23@@Z 004e85a0 f i IGObject_Debug:MapObj.obj
 0001:000e75d0       ?construct@?$allocator@H@std@@QAEXPAHABH@Z 004e85d0 f i IGObject_Debug:MapObj.obj
 0001:000e7610       ??0const_iterator@?$list@HV?$allocator@H@std@@@std@@QAE@XZ 004e8610 f i IGObject_Debug:MapObj.obj
 0001:000e7640       ?_Mynode@const_iterator@?$list@HV?$allocator@H@std@@@std@@QBEPAU_Node@23@XZ 004e8640 f i IGObject_Debug:MapObj.obj
 0001:000e7670       ??0iterator@?$list@HV?$allocator@H@std@@@std@@QAE@PAU_Node@12@@Z 004e8670 f i IGObject_Debug:MapObj.obj
 0001:000e76b0       ??Eiterator@?$list@HV?$allocator@H@std@@@std@@QAEAAV012@XZ 004e86b0 f i IGObject_Debug:MapObj.obj
 0001:000e7700       ??8iterator@?$list@HV?$allocator@H@std@@@std@@QBE_NABV012@@Z 004e8700 f i IGObject_Debug:MapObj.obj
 0001:000e7740       ?_Charalloc@?$allocator@H@std@@QAEPADI@Z 004e8740 f i IGObject_Debug:MapObj.obj
 0001:000e7780       ?deallocate@?$allocator@H@std@@QAEXPAXI@Z 004e8780 f i IGObject_Debug:MapObj.obj
 0001:000e77c0       ?destroy@?$allocator@H@std@@QAEXPAH@Z 004e87c0 f i IGObject_Debug:MapObj.obj
 0001:000e7800       ??0const_iterator@?$list@HV?$allocator@H@std@@@std@@QAE@PAU_Node@12@@Z 004e8800 f i IGObject_Debug:MapObj.obj
 0001:000e7840       ?_Construct@std@@YAXPAHABH@Z 004e8840 f i IGObject_Debug:MapObj.obj
 0001:000e78a0       ?_Destroy@std@@YAXPAH@Z    004e88a0 f i IGObject_Debug:MapObj.obj
 0001:000e78c0       ??0CTileMap@@QAE@XZ        004e88c0 f   IGObject_Debug:TileMap.obj
 0001:000e7960       ??_GCTileMap@@UAEPAXI@Z    004e8960 f i IGObject_Debug:TileMap.obj
 0001:000e7960       ??_ECTileMap@@UAEPAXI@Z    004e8960 f i IGObject_Debug:TileMap.obj
 0001:000e79c0       ??1CTileMap@@UAE@XZ        004e89c0 f   IGObject_Debug:TileMap.obj
 0001:000e7a00       ?Release@CTileMap@@QAEXXZ  004e8a00 f   IGObject_Debug:TileMap.obj
 0001:000e7b20       ?Alloc@CTileMap@@QAEXHH@Z  004e8b20 f   IGObject_Debug:TileMap.obj
 0001:000e7c80       ?Load@CTileMap@@QAEXPBD@Z  004e8c80 f   IGObject_Debug:TileMap.obj
 0001:000e7df0       ??4_TILE_MAP_HEADER@@QAEABU0@ABU0@@Z 004e8df0 f i IGObject_Debug:TileMap.obj
 0001:000e7e40       ??0CDib16@@QAE@XZ          004e8e40 f   IGObject_Debug:Dib16.obj
 0001:000e7ea0       ??_ECDib16@@UAEPAXI@Z      004e8ea0 f i IGObject_Debug:Dib16.obj
 0001:000e7ea0       ??_GCDib16@@UAEPAXI@Z      004e8ea0 f i IGObject_Debug:Dib16.obj
 0001:000e7f00       ??1CDib16@@UAE@XZ          004e8f00 f   IGObject_Debug:Dib16.obj
 0001:000e7f40       ?Release@CDib16@@QAEXXZ    004e8f40 f   IGObject_Debug:Dib16.obj
 0001:000e7fb0       ?ImportGenericBMP@CDib16@@QAEHPBD@Z 004e8fb0 f   IGObject_Debug:Dib16.obj
 0001:000e8400       ?RGB16@CDib16@@QAEGGGG@Z   004e9400 f i IGObject_Debug:Dib16.obj
 0001:000e8460       ?ExportTo24BMP@CDib16@@QAEHPBD@Z 004e9460 f   IGObject_Debug:Dib16.obj
 0001:000e87c0       ?RGB24@CDib16@@QAEKG@Z     004e97c0 f i IGObject_Debug:Dib16.obj
 0001:000e8830       ?New@CDib16@@QAEHHH@Z      004e9830 f   IGObject_Debug:Dib16.obj
 0001:000e8970       ?Load@CDib16@@QAEHPBD@Z    004e9970 f   IGObject_Debug:Dib16.obj
 0001:000e8cf0       ?Save@CDib16@@QAEHPBD@Z    004e9cf0 f   IGObject_Debug:Dib16.obj
 0001:000e8e30       ?FillColor@CDib16@@QAEXPAUtagRECT@@K@Z 004e9e30 f   IGObject_Debug:Dib16.obj
 0001:000e8f60       ?RGB16@CDib16@@QAEGK@Z     004e9f60 f i IGObject_Debug:Dib16.obj
 0001:000e8fba       ?GetExecutionPath@CDirectDraw@@SA?AVCString@@H@Z 004e9fba f   DManage:DManage.dll
 0001:000e8fc0       ?ReleaseDC@CDDSurface@@QAEXPAVCDC@@@Z 004e9fc0 f   DManage:DManage.dll
 0001:000e8fc6       ?GetDC@CDDSurface@@QAEPAVCDC@@XZ 004e9fc6 f   DManage:DManage.dll
 0001:000e8fcc       ?GetRuntimeClass@CDDSurface@@UBEPAUCRuntimeClass@@XZ 004e9fcc f   DManage:DManage.dll
 0001:000e8fd2       ?SetColorKey@CDDSurface@@QAEHK@Z 004e9fd2 f   DManage:DManage.dll
 0001:000e8fd8       ?Create@CDDSurface@@QAEHPAVCDirectDraw@@PAU_DDSURFACEDESC2@@@Z 004e9fd8 f   DManage:DManage.dll
 0001:000e8fde       ??0CDDSurface@@QAE@XZ      004e9fde f   DManage:DManage.dll
 0001:000e8fe4       ??1CDDSurface@@UAE@XZ      004e9fe4 f   DManage:DManage.dll
 0001:000e8fea       ?GetInterface@CDDSurface@@QAEPAUIDirectDrawSurface7@@XZ 004e9fea f   DManage:DManage.dll
 0001:000e8ff0       ?Unlock@CDDSurface@@QAEXXZ 004e9ff0 f   DManage:DManage.dll
 0001:000e8ff6       ?GetDescription@CDDSurface@@QAEAAU_DDSURFACEDESC2@@XZ 004e9ff6 f   DManage:DManage.dll
 0001:000e8ffc       ?Lock@CDDSurface@@QAEPAXXZ 004e9ffc f   DManage:DManage.dll
 0001:000e9002       ?GetInterface@CDirectDraw@@QAEPAUIDirectDraw7@@XZ 004ea002 f   DManage:DManage.dll
 0001:000e9008       ?GetDescription@CDDSurface@@QAEHPAU_DDSURFACEDESC2@@@Z 004ea008 f   DManage:DManage.dll
 0001:000e900e       ?GetRGBMasks@CDDSurface@@QAEXAAK00@Z 004ea00e f   DManage:DManage.dll
 0001:000e9014       ?MusicStop@CDirectSound@@QAEHHHH@Z 004ea014 f   DManage:DManage.dll
 0001:000e901a       ?MusicPlay@CDirectSound@@QAEHVCString@@HH@Z 004ea01a f   DManage:DManage.dll
 0001:000e9020       ?SetMusicVolume@CDirectSound@@QAEXJ@Z 004ea020 f   DManage:DManage.dll
 0001:000e9026       ?SetSoundVolume@CDirectSound@@QAEXJ@Z 004ea026 f   DManage:DManage.dll
 0001:000e902c       ?SoundStop@CDirectSound@@QAEHHH@Z 004ea02c f   DManage:DManage.dll
 0001:000e9032       ?IsSoundPlaying@CDirectSound@@QAEHHH@Z 004ea032 f   DManage:DManage.dll
 0001:000e9038       ?SoundPlay@CDirectSound@@QAEHVCString@@HHVCPoint@@MM@Z 004ea038 f   DManage:DManage.dll
 0001:000e903e       ?DrawNight@CNight@@QAEHXZ  004ea03e f   DManage:DManage.dll
 0001:000e9044       ?SetLight@CNight@@QAEXVCPoint@@HK@Z 004ea044 f   DManage:DManage.dll
 0001:000e904a       ?SetNightState@CNight@@QAEXH@Z 004ea04a f   DManage:DManage.dll
 0001:000e9050       ?D3DCreateTextureEx@CDirect3D@@QAEXPAD@Z 004ea050 f   DManage:DManage.dll
 0001:000e9056       ?DrawNight@CNight@@QAEHPAVCDDSurface@@PAV?$CArray@UTAG_LIGHT_INFO@@U1@@@HH@Z 004ea056 f   DManage:DManage.dll
 0001:000e905c       ?SetNightStateEx@CNight@@QAEXHH@Z 004ea05c f   DManage:DManage.dll
 0001:000e9062       ?SetScale@CDirectSound@@QAEXVCPoint@@@Z 004ea062 f   DManage:DManage.dll
 0001:000e9068       ?IsMusicPlaying@CDirectSound@@QAEHHH@Z 004ea068 f   DManage:DManage.dll
 0001:000e906e       ?IsRButtonUp@BBDX_MouseInformation@@QAEHXZ 004ea06e f   DManage:DManage.dll
 0001:000e9074       ?IsRButtonPressing@BBDX_MouseInformation@@QAEHXZ 004ea074 f   DManage:DManage.dll
 0001:000e907a       ?IsRButtonDown@BBDX_MouseInformation@@QAEHXZ 004ea07a f   DManage:DManage.dll
 0001:000e9080       ?IsLButtonUp@BBDX_MouseInformation@@QAEHXZ 004ea080 f   DManage:DManage.dll
 0001:000e9086       ?IsLButtonPressing@BBDX_MouseInformation@@QAEHXZ 004ea086 f   DManage:DManage.dll
 0001:000e908c       ?IsLButtonDown@BBDX_MouseInformation@@QAEHXZ 004ea08c f   DManage:DManage.dll
 0001:000e9092       ?GetPos@BBDX_MouseInformation@@QAEAAVCPoint@@XZ 004ea092 f   DManage:DManage.dll
 0001:000e9098       ?SurfaceFill@CDDSurface@@QAEHK@Z 004ea098 f   DManage:DManage.dll
 0001:000e909e       ?D3DRenderShadow@CDirect3D@@QAEHPADHHH@Z 004ea09e f   DManage:DManage.dll
 0001:000e90a4       ?IsMouseMove@BBDX_MouseInformation@@QAEHXZ 004ea0a4 f   DManage:DManage.dll
 0001:000e90aa       ?BltFast@CDDSurface@@QAEHVCPoint@@PAV1@PAVCRect@@K@Z 004ea0aa f   DManage:DManage.dll
 0001:000e90b0       ?IsLButtonPressing2@BBDX_MouseInformation@@QAEHXZ 004ea0b0 f   DManage:DManage.dll
 0001:000e90b6       ?IsLButtonDobleDown@BBDX_MouseInformation@@QAEHXZ 004ea0b6 f   DManage:DManage.dll
 0001:000e90bc       ??0CDDSurface@@QAE@PAUIDirectDrawSurface7@@@Z 004ea0bc f   DManage:DManage.dll
 0001:000e90c2       ?Blt@CDDSurface@@QAEHPAUtagRECT@@PAV1@0KPAU_DDBLTFX@@@Z 004ea0c2 f   DManage:DManage.dll
 0001:000e90c8       ?GetSoundVolume@CDirectSound@@QAEHXZ 004ea0c8 f   DManage:DManage.dll
 0001:000e90ce       ?GetMusicVolume@CDirectSound@@QAEHXZ 004ea0ce f   DManage:DManage.dll
 0001:000e90d4       ?GetRuntimeClass@CDirectInput@@UBEPAUCRuntimeClass@@XZ 004ea0d4 f   DManage:DManage.dll
 0001:000e90da       ?GetRuntimeClass@CDirectDraw@@UBEPAUCRuntimeClass@@XZ 004ea0da f   DManage:DManage.dll
 0001:000e90e0       ?InitDirectSound@CDirectSound@@QAEHPAUHWND__@@HMM@Z 004ea0e0 f   DManage:DManage.dll
 0001:000e90e6       ??0CDirectSound@@QAE@XZ    004ea0e6 f   DManage:DManage.dll
 0001:000e90ec       ??0CNight@@QAE@H@Z         004ea0ec f   DManage:DManage.dll
 0001:000e90f2       ?SetVAGType@CDirect3D@@QAEXH@Z 004ea0f2 f   DManage:DManage.dll
 0001:000e90f8       ?D3DAlpha@CDirect3D@@QAEXH@Z 004ea0f8 f   DManage:DManage.dll
 0001:000e90fe       ?CleanUp3DEnvironment@CDirect3D@@QAEXXZ 004ea0fe f   DManage:DManage.dll
 0001:000e9104       ?Initialize3D@CDirect3D@@QAEHPAVCDirectDraw@@PAUHWND__@@PAU_GUID@@PBU4@@Z 004ea104 f   DManage:DManage.dll
 0001:000e910a       ??0CDirect3D@@QAE@XZ       004ea10a f   DManage:DManage.dll
 0001:000e9110       ?SetHwndAndWindowed@BBDX_MouseInformation@@QAEXPAUHWND__@@H@Z 004ea110 f   DManage:DManage.dll
 0001:000e9116       ??0BBDX_MouseInformation@@QAE@XZ 004ea116 f   DManage:DManage.dll
 0001:000e911c       ?MouseInputCreate@CDirectInput@@QAEHH@Z 004ea11c f   DManage:DManage.dll
 0001:000e9122       ?Create@CDirectInput@@QAEHPAUHINSTANCE__@@@Z 004ea122 f   DManage:DManage.dll
 0001:000e9128       ??0CDirectInput@@QAE@PAUHWND__@@@Z 004ea128 f   DManage:DManage.dll
 0001:000e912e       ?GetBackBuffer@CDirectDraw@@QAEPAVCDDSurface@@XZ 004ea12e f   DManage:DManage.dll
 0001:000e9134       ?GetFrontBuffer@CDirectDraw@@QAEPAVCDDSurface@@XZ 004ea134 f   DManage:DManage.dll
 0001:000e913a       ?SetWindowedMode@CDirectDraw@@QAEHPAUHWND__@@HH@Z 004ea13a f   DManage:DManage.dll
 0001:000e9140       ?Create@CDDSurface@@QAEHPAVCDirectDraw@@HHH@Z 004ea140 f   DManage:DManage.dll
 0001:000e9146       ?SetFullScreenMode@CDirectDraw@@QAEHPAUHWND__@@HHH@Z 004ea146 f   DManage:DManage.dll
 0001:000e914c       ?Create@CDirectDraw@@QAEHXZ 004ea14c f   DManage:DManage.dll
 0001:000e9152       ??0CDirectDraw@@QAE@XZ     004ea152 f   DManage:DManage.dll
 0001:000e9158       ??1CDirectDraw@@UAE@XZ     004ea158 f   DManage:DManage.dll
 0001:000e915e       ??1CDirectInput@@UAE@XZ    004ea15e f   DManage:DManage.dll
 0001:000e9164       ??1BBDX_MouseInformation@@UAE@XZ 004ea164 f   DManage:DManage.dll
 0001:000e916a       ??1CDirect3D@@UAE@XZ       004ea16a f   DManage:DManage.dll
 0001:000e9170       ??1CNight@@UAE@XZ          004ea170 f   DManage:DManage.dll
 0001:000e9176       ??1CDirectSound@@UAE@XZ    004ea176 f   DManage:DManage.dll
 0001:000e917c       ?MouseInputCheck@CDirectInput@@QAIXPAVBBDX_MouseInformation@@@Z 004ea17c f   DManage:DManage.dll
 0001:000e9182       ?Flip@CDDSurface@@QAEHK@Z  004ea182 f   DManage:DManage.dll
 0001:000e9188       ?DrawFogLayer3@CDDSurface@@QAEXHG@Z 004ea188 f   DManage:DManage.dll
 0001:000e918e       ?CreateFromImage@CDDSurface@@QAEHPAVCDirectDraw@@PBDH@Z 004ea18e f   DManage:DManage.dll
 0001:000e9194       ?GetRect@CDDSurface@@QAEXAAUtagRECT@@@Z 004ea194 f   DManage:DManage.dll
 0001:000e919a       ?GetHeight@CDDSurface@@QAEHXZ 004ea19a f   DManage:DManage.dll
 0001:000e91a0       ?GetPitch@CDDSurface@@QAEHXZ 004ea1a0 f   DManage:DManage.dll
 0001:000e91a6       ?D3DTexturInfo@CDirect3D@@QAEHPADPAPAH1PAPAM211111@Z 004ea1a6 f   DManage:DManage.dll
 0001:000e91ac       ?D3DCreateTextureSpl@CDirect3D@@QAEXPAD@Z 004ea1ac f   DManage:DManage.dll
 0001:000e91b2       ?DestroySeriesTexture@CDirect3D@@QAEXPADH@Z 004ea1b2 f   DManage:DManage.dll
 0001:000e91b8       ?D3DRenderEx@CDirect3D@@QAEHPADHHH@Z 004ea1b8 f   DManage:DManage.dll
 0001:000e91be       ?RestoreAllSurfaces@CDirectDraw@@QAEXXZ 004ea1be f   DManage:DManage.dll
 0001:000e91c4       ?SetFirstNightState@CNight@@QAEXF@Z 004ea1c4 f   DManage:DManage.dll
 0001:000e91ca       ?CreateSurfaceFromLib@BB_Bitmap@@SAPAVCDDSurface@@PAVCDirectDraw@@AAVCFile@@JJ@Z 004ea1ca f   DManage:DManage.dll
 0001:000e91d0       ?GetMapStartPos@SM_MapManager@@QAE?AVCPoint@@XZ 004ea1d0 f   MapManager:MapManager.dll
 0001:000e91d6       ?PixelToCell@SM_MapManager@@QAE?AVCPoint@@V2@@Z 004ea1d6 f   MapManager:MapManager.dll
 0001:000e91dc       ?GetHouseTable@SM_MapManager@@QAEPAPAFAAH0@Z 004ea1dc f   MapManager:MapManager.dll
 0001:000e91e2       ??0SM_MapManager@@QAE@XZ   004ea1e2 f   MapManager:MapManager.dll
 0001:000e91e8       ??1SM_MapManager@@UAE@XZ   004ea1e8 f   MapManager:MapManager.dll
 0001:000e91ee       ?InitManager@SM_MapManager@@QAEXPAVCDirectDraw@@PAUHWND__@@@Z 004ea1ee f   MapManager:MapManager.dll
 0001:000e91f4       ?EndManager@SM_MapManager@@QAEXXZ 004ea1f4 f   MapManager:MapManager.dll
 0001:000e91fa       ?GetAreaNumber@SM_MapManager@@QAEEVCPoint@@@Z 004ea1fa f   MapManager:MapManager.dll
 0001:000e9200       ?IsHouse@SM_MapManager@@QAEHVCPoint@@@Z 004ea200 f   MapManager:MapManager.dll
 0001:000e9206       ?SetCenterPos@SM_MapManager@@QAE?AVCPoint@@V2@@Z 004ea206 f   MapManager:MapManager.dll
 0001:000e920c       ?ShowMapType@SM_MapManager@@QAEXH@Z 004ea20c f   MapManager:MapManager.dll
 0001:000e9212       ?CellToPixel@SM_MapManager@@QAE?AVCPoint@@V2@@Z 004ea212 f   MapManager:MapManager.dll
 0001:000e9218       ?LoadMap@SM_MapManager@@QAEHVCString@@H@Z 004ea218 f   MapManager:MapManager.dll
 0001:000e921e       ?GetMapDimension@SM_MapManager@@QAE?AVCSize@@XZ 004ea21e f   MapManager:MapManager.dll
 0001:000e9224       ?GetMoveableTable@SM_MapManager@@QAEPAPAEAAH0@Z 004ea224 f   MapManager:MapManager.dll
 0001:000e922a       ??3@YAXPAX@Z               004ea22a f   mfc42d:MFC42D.DLL
 0001:000e9230       ??2@YAPAXIPBDH@Z           004ea230 f   mfc42d:MFC42D.DLL
 0001:000e9236       ??1CString@@QAE@XZ         004ea236 f   mfc42d:MFC42D.DLL
 0001:000e923c       ??0CString@@QAE@XZ         004ea23c f   mfc42d:MFC42D.DLL
 0001:000e9242       ??3@YAXPAXPBDH@Z           004ea242 f   mfc42d:MFC42D.DLL
 0001:000e9248       ??1CStdioFile@@UAE@XZ      004ea248 f   mfc42d:MFC42D.DLL
 0001:000e924e       ?Close@CStdioFile@@UAEXXZ  004ea24e f   mfc42d:MFC42D.DLL
 0001:000e9254       ?AfxTrace@@YAXPBDZZ        004ea254 f   mfc42d:MFC42D.DLL
 0001:000e925a       ??0CString@@QAE@ABV0@@Z    004ea25a f   mfc42d:MFC42D.DLL
 0001:000e9260       ?ReadString@CStdioFile@@UAEHAAVCString@@@Z 004ea260 f   mfc42d:MFC42D.DLL
 0001:000e9266       ?Open@CStdioFile@@UAEHPBDIPAVCFileException@@@Z 004ea266 f   mfc42d:MFC42D.DLL
 0001:000e926c       ??BCString@@QBEPBDXZ       004ea26c f   mfc42d:MFC42D.DLL
 0001:000e9272       ??YCString@@QAEABV0@PBD@Z  004ea272 f   mfc42d:MFC42D.DLL
 0001:000e9278       ??4CString@@QAEABV0@ABV0@@Z 004ea278 f   mfc42d:MFC42D.DLL
 0001:000e927e       ??0CStdioFile@@QAE@XZ      004ea27e f   mfc42d:MFC42D.DLL
 0001:000e9284       ?Format@CString@@QAAXPBDZZ 004ea284 f   mfc42d:MFC42D.DLL
 0001:000e928a       ?IsEmpty@CString@@QBEHXZ   004ea28a f   mfc42d:MFC42D.DLL
 0001:000e9290       ?GetRuntimeClass@CObject@@UBEPAUCRuntimeClass@@XZ 004ea290 f   mfc42d:MFC42D.DLL
 0001:000e9296       ??1CObject@@UAE@XZ         004ea296 f   mfc42d:MFC42D.DLL
 0001:000e929c       ?AfxAssertFailedLine@@YGHPBDH@Z 004ea29c f   mfc42d:MFC42D.DLL
 0001:000e92a2       ??0CObject@@IAE@XZ         004ea2a2 f   mfc42d:MFC42D.DLL
 0001:000e92a8       ?AfxAssertValidObject@@YGXPBVCObject@@PBDH@Z 004ea2a8 f   mfc42d:MFC42D.DLL
 0001:000e92ae       ?FreeDataChain@CPlex@@QAEXXZ 004ea2ae f   mfc42d:MFC42D.DLL
 0001:000e92b4       ?AfxIsValidAddress@@YGHPBXIH@Z 004ea2b4 f   mfc42d:MFC42D.DLL
 0001:000e92ba       ?ReadCount@CArchive@@QAEKXZ 004ea2ba f   mfc42d:MFC42D.DLL
 0001:000e92c0       ?WriteCount@CArchive@@QAEXK@Z 004ea2c0 f   mfc42d:MFC42D.DLL
 0001:000e92c6       ?IsStoring@CArchive@@QBEHXZ 004ea2c6 f   mfc42d:MFC42D.DLL
 0001:000e92cc       ?Serialize@CObject@@UAEXAAVCArchive@@@Z 004ea2cc f   mfc42d:MFC42D.DLL
 0001:000e92d2       ?GetDepth@CDumpContext@@QBEHXZ 004ea2d2 f   mfc42d:MFC42D.DLL
 0001:000e92d8       ??6CDumpContext@@QAEAAV0@H@Z 004ea2d8 f   mfc42d:MFC42D.DLL
 0001:000e92de       ??6CDumpContext@@QAEAAV0@PBD@Z 004ea2de f   mfc42d:MFC42D.DLL
 0001:000e92e4       ?Dump@CObject@@UBEXAAVCDumpContext@@@Z 004ea2e4 f   mfc42d:MFC42D.DLL
 0001:000e92ea       ?AssertValid@CObject@@UBEXXZ 004ea2ea f   mfc42d:MFC42D.DLL
 0001:000e92f0       ??3CObject@@SGXPAX@Z       004ea2f0 f   mfc42d:MFC42D.DLL
 0001:000e92f6       ?Create@CPlex@@SGPAU1@AAPAU1@II@Z 004ea2f6 f   mfc42d:MFC42D.DLL
 0001:000e92fc       ?Read@CArchive@@QAEIPAXI@Z 004ea2fc f   mfc42d:MFC42D.DLL
 0001:000e9302       ?Write@CArchive@@QAEXPBXI@Z 004ea302 f   mfc42d:MFC42D.DLL
 0001:000e9308       ?Seek@CFile@@UAEJJI@Z      004ea308 f   mfc42d:MFC42D.DLL
 0001:000e930e       ?Read@CFile@@UAEIPAXI@Z    004ea30e f   mfc42d:MFC42D.DLL
 0001:000e9314       ?Close@CFile@@UAEXXZ       004ea314 f   mfc42d:MFC42D.DLL
 0001:000e931a       ??1CFile@@UAE@XZ           004ea31a f   mfc42d:MFC42D.DLL
 0001:000e9320       ?Open@CFile@@UAEHPBDIPAVCFileException@@@Z 004ea320 f   mfc42d:MFC42D.DLL
 0001:000e9326       ??0CFile@@QAE@XZ           004ea326 f   mfc42d:MFC42D.DLL
 0001:000e932c       ??0CPoint@@QAE@XZ          004ea32c f   mfc42d:MFC42D.DLL
 0001:000e9332       ??1CPen@@UAE@XZ            004ea332 f   mfc42d:MFC42D.DLL
 0001:000e9338       ?DeleteObject@CGdiObject@@QAEHXZ 004ea338 f   mfc42d:MFC42D.DLL
 0001:000e933e       ?LineTo@CDC@@QAEHUtagPOINT@@@Z 004ea33e f   mfc42d:MFC42D.DLL
 0001:000e9344       ?MoveTo@CDC@@QAE?AVCPoint@@UtagPOINT@@@Z 004ea344 f   mfc42d:MFC42D.DLL
 0001:000e934a       ?SelectObject@CDC@@QAEPAVCPen@@PAV2@@Z 004ea34a f   mfc42d:MFC42D.DLL
 0001:000e9350       ?CreatePen@CPen@@QAEHHHK@Z 004ea350 f   mfc42d:MFC42D.DLL
 0001:000e9356       ??0CPen@@QAE@XZ            004ea356 f   mfc42d:MFC42D.DLL
 0001:000e935c       ??0CPoint@@QAE@UtagSIZE@@@Z 004ea35c f   mfc42d:MFC42D.DLL
 0001:000e9362       ??GCPoint@@QBE?AVCSize@@UtagPOINT@@@Z 004ea362 f   mfc42d:MFC42D.DLL
 0001:000e9368       ??0CRect@@QAE@HHHH@Z       004ea368 f   mfc42d:MFC42D.DLL
 0001:000e936e       ??2@YAPAXI@Z               004ea36e f   mfc42d:MFC42D.DLL
 0001:000e9374       ?SetRect@CRect@@QAEXHHHH@Z 004ea374 f   mfc42d:MFC42D.DLL
 0001:000e937a       ??0CRect@@QAE@XZ           004ea37a f   mfc42d:MFC42D.DLL
 0001:000e9380       ??3CObject@@SGXPAXPBDH@Z   004ea380 f   mfc42d:MFC42D.DLL
 0001:000e9386       ??2CObject@@SGPAXIPBDH@Z   004ea386 f   mfc42d:MFC42D.DLL
 0001:000e938c       ??BCRect@@QAEPAUtagRECT@@XZ 004ea38c f   mfc42d:MFC42D.DLL
 0001:000e9392       ??H@YG?AVCString@@ABV0@PBD@Z 004ea392 f   mfc42d:MFC42D.DLL
 0001:000e9398       ??8@YG_NABVCString@@0@Z    004ea398 f   mfc42d:MFC42D.DLL
 0001:000e939e       ?Left@CString@@QBE?AV1@H@Z 004ea39e f   mfc42d:MFC42D.DLL
 0001:000e93a4       ?GetLength@CString@@QBEHXZ 004ea3a4 f   mfc42d:MFC42D.DLL
 0001:000e93aa       ??0CString@@QAE@PBD@Z      004ea3aa f   mfc42d:MFC42D.DLL
 0001:000e93b0       ??4CString@@QAEABV0@PBD@Z  004ea3b0 f   mfc42d:MFC42D.DLL
 0001:000e93b6       ??0CPoint@@QAE@HH@Z        004ea3b6 f   mfc42d:MFC42D.DLL
 0001:000e93bc       ??0CSize@@QAE@XZ           004ea3bc f   mfc42d:MFC42D.DLL
 0001:000e93c2       ?AfxPostQuitMessage@@YGXH@Z 004ea3c2 f   mfc42d:MFC42D.DLL
 0001:000e93c8       ?AfxMessageBox@@YGHPBDII@Z 004ea3c8 f   mfc42d:MFC42D.DLL
 0001:000e93ce       ?AfxGetModuleThreadState@@YGPAVAFX_MODULE_THREAD_STATE@@XZ 004ea3ce f   mfc42d:MFC42D.DLL
 0001:000e93d4       ?GetCount@CPtrList@@QBEHXZ 004ea3d4 f   mfc42d:MFC42D.DLL
 0001:000e93da       ?GetHeadPosition@CPtrList@@QBEPAU__POSITION@@XZ 004ea3da f   mfc42d:MFC42D.DLL
 0001:000e93e0       ?AddHead@CPtrList@@QAEPAU__POSITION@@PAX@Z 004ea3e0 f   mfc42d:MFC42D.DLL
 0001:000e93e6       ?RemoveHead@CPtrList@@QAEPAXXZ 004ea3e6 f   mfc42d:MFC42D.DLL
 0001:000e93ec       ?GetNext@CPtrList@@QAEAAPAXAAPAU__POSITION@@@Z 004ea3ec f   mfc42d:MFC42D.DLL
 0001:000e93f2       ?SetOccDialogInfo@CWnd@@MAEHPAU_AFX_OCC_DIALOG_INFO@@@Z 004ea3f2 f   mfc42d:MFC42D.DLL
 0001:000e93f8       ?IsFrameWnd@CWnd@@UBEHXZ   004ea3f8 f   mfc42d:MFC42D.DLL
 0001:000e93fe       ?CheckAutoCenter@CWnd@@UAEHXZ 004ea3fe f   mfc42d:MFC42D.DLL
 0001:000e9404       ?OnChildNotify@CWnd@@MAEHIIJPAJ@Z 004ea404 f   mfc42d:MFC42D.DLL
 0001:000e940a       ?PostNcDestroy@CWnd@@MAEXXZ 004ea40a f   mfc42d:MFC42D.DLL
 0001:000e9410       ?DefWindowProcA@CWnd@@MAEJIIJ@Z 004ea410 f   mfc42d:MFC42D.DLL
 0001:000e9416       ?OnWndMsg@CWnd@@MAEHIIJPAJ@Z 004ea416 f   mfc42d:MFC42D.DLL
 0001:000e941c       ?WindowProc@CWnd@@MAEJIIJ@Z 004ea41c f   mfc42d:MFC42D.DLL
 0001:000e9422       ?OnAmbientProperty@CWnd@@UAEHPAVCOleControlSite@@JPAUtagVARIANT@@@Z 004ea422 f   mfc42d:MFC42D.DLL
 0001:000e9428       ?EndModalState@CWnd@@UAEXXZ 004ea428 f   mfc42d:MFC42D.DLL
 0001:000e942e       ?BeginModalState@CWnd@@UAEXXZ 004ea42e f   mfc42d:MFC42D.DLL
 0001:000e9434       ?DoDataExchange@CWnd@@MAEXPAVCDataExchange@@@Z 004ea434 f   mfc42d:MFC42D.DLL
 0001:000e943a       ?GetSuperWndProcAddr@CWnd@@MAEPAP6GJPAUHWND__@@IIJ@ZXZ 004ea43a f   mfc42d:MFC42D.DLL
 0001:000e9440       ?OnNotify@CWnd@@MAEHIJPAJ@Z 004ea440 f   mfc42d:MFC42D.DLL
 0001:000e9446       ?OnCommand@CWnd@@MAEHIJ@Z  004ea446 f   mfc42d:MFC42D.DLL
 0001:000e944c       ?EndModalLoop@CWnd@@UAEXH@Z 004ea44c f   mfc42d:MFC42D.DLL
 0001:000e9452       ?ContinueModal@CWnd@@UAEHXZ 004ea452 f   mfc42d:MFC42D.DLL
 0001:000e9458       ?WinHelpA@CWnd@@UAEXKI@Z   004ea458 f   mfc42d:MFC42D.DLL
 0001:000e945e       ?GetScrollBarCtrl@CWnd@@UBEPAVCScrollBar@@H@Z 004ea45e f   mfc42d:MFC42D.DLL
 0001:000e9464       ?OnToolHitTest@CWnd@@UBEHVCPoint@@PAUtagTOOLINFOA@@@Z 004ea464 f   mfc42d:MFC42D.DLL
 0001:000e946a       ?CalcWindowRect@CWnd@@UAEXPAUtagRECT@@I@Z 004ea46a f   mfc42d:MFC42D.DLL
 0001:000e9470       ?PreCreateWindow@CWnd@@UAEHAAUtagCREATESTRUCTA@@@Z 004ea470 f   mfc42d:MFC42D.DLL
 0001:000e9476       ?Create@CWnd@@UAEHPBD0KABUtagRECT@@PAV1@IPAUCCreateContext@@@Z 004ea476 f   mfc42d:MFC42D.DLL
 0001:000e947c       ?PreSubclassWindow@CWnd@@UAEXXZ 004ea47c f   mfc42d:MFC42D.DLL
 0001:000e9482       ?GetConnectionHook@CCmdTarget@@MAEPAUIConnectionPoint@@ABU_GUID@@@Z 004ea482 f   mfc42d:MFC42D.DLL
 0001:000e9488       ?GetExtraConnectionPoints@CCmdTarget@@MAEHPAVCPtrArray@@@Z 004ea488 f   mfc42d:MFC42D.DLL
 0001:000e948e       ?GetInterfaceHook@CCmdTarget@@UAEPAUIUnknown@@PBX@Z 004ea48e f   mfc42d:MFC42D.DLL
 0001:000e9494       ?OnCreateAggregates@CCmdTarget@@UAEHXZ 004ea494 f   mfc42d:MFC42D.DLL
 0001:000e949a       ?GetEventSinkMap@CCmdTarget@@MBEPBUAFX_EVENTSINKMAP@@XZ 004ea49a f   mfc42d:MFC42D.DLL
 0001:000e94a0       ?GetInterfaceMap@CCmdTarget@@MBEPBUAFX_INTERFACEMAP@@XZ 004ea4a0 f   mfc42d:MFC42D.DLL
 0001:000e94a6       ?GetConnectionMap@CCmdTarget@@MBEPBUAFX_CONNECTIONMAP@@XZ 004ea4a6 f   mfc42d:MFC42D.DLL
 0001:000e94ac       ?GetDispatchMap@CCmdTarget@@MBEPBUAFX_DISPMAP@@XZ 004ea4ac f   mfc42d:MFC42D.DLL
 0001:000e94b2       ?GetCommandMap@CCmdTarget@@MBEPBUAFX_OLECMDMAP@@XZ 004ea4b2 f   mfc42d:MFC42D.DLL
 0001:000e94b8       ?GetTypeLib@CCmdTarget@@UAEJKPAPAUITypeLib@@@Z 004ea4b8 f   mfc42d:MFC42D.DLL
 0001:000e94be       ?GetTypeLibCache@CCmdTarget@@UAEPAVCTypeLibCache@@XZ 004ea4be f   mfc42d:MFC42D.DLL
 0001:000e94c4       ?GetTypeInfoCount@CCmdTarget@@UAEIXZ 004ea4c4 f   mfc42d:MFC42D.DLL
 0001:000e94ca       ?GetDispatchIID@CCmdTarget@@UAEHPAU_GUID@@@Z 004ea4ca f   mfc42d:MFC42D.DLL
 0001:000e94d0       ?IsInvokeAllowed@CCmdTarget@@UAEHJ@Z 004ea4d0 f   mfc42d:MFC42D.DLL
 0001:000e94d6       ?OnFinalRelease@CWnd@@UAEXXZ 004ea4d6 f   mfc42d:MFC42D.DLL
 0001:000e94dc       ?OnCmdMsg@CCmdTarget@@UAEHIHPAXPAUAFX_CMDHANDLERINFO@@@Z 004ea4dc f   mfc42d:MFC42D.DLL
 0001:000e94e2       ?Dump@CWnd@@UBEXAAVCDumpContext@@@Z 004ea4e2 f   mfc42d:MFC42D.DLL
 0001:000e94e8       ?AssertValid@CWnd@@UBEXXZ  004ea4e8 f   mfc42d:MFC42D.DLL
 0001:000e94ee       ?GetRuntimeClass@CEdit@@UBEPAUCRuntimeClass@@XZ 004ea4ee f   mfc42d:MFC42D.DLL
 0001:000e94f4       ?PreTranslateMessage@CWnd@@UAEHPAUtagMSG@@@Z 004ea4f4 f   mfc42d:MFC42D.DLL
 0001:000e94fa       ?SetWindowTextA@CWnd@@QAEXPBD@Z 004ea4fa f   mfc42d:MFC42D.DLL
 0001:000e9500       ?SetFocus@CWnd@@QAEPAV1@XZ 004ea500 f   mfc42d:MFC42D.DLL
 0001:000e9506       ?GetParent@CWnd@@QBEPAV1@XZ 004ea506 f   mfc42d:MFC42D.DLL
 0001:000e950c       ??1CStringList@@UAE@XZ     004ea50c f   mfc42d:MFC42D.DLL
 0001:000e9512       ??0CStringList@@QAE@H@Z    004ea512 f   mfc42d:MFC42D.DLL
 0001:000e9518       ?RemoveAll@CStringList@@QAEXXZ 004ea518 f   mfc42d:MFC42D.DLL
 0001:000e951e       ?RemoveHead@CStringList@@QAE?AVCString@@XZ 004ea51e f   mfc42d:MFC42D.DLL
 0001:000e9524       ?Height@CRect@@QBEHXZ      004ea524 f   mfc42d:MFC42D.DLL
 0001:000e952a       ?DrawTextA@CDC@@QAEHABVCString@@PAUtagRECT@@I@Z 004ea52a f   mfc42d:MFC42D.DLL
 0001:000e9530       ?AddTail@CStringList@@QAEPAU__POSITION@@ABVCString@@@Z 004ea530 f   mfc42d:MFC42D.DLL
 0001:000e9536       ?GetNext@CStringList@@QAEAAVCString@@AAPAU__POSITION@@@Z 004ea536 f   mfc42d:MFC42D.DLL
 0001:000e953c       ?GetHeadPosition@CStringList@@QBEPAU__POSITION@@XZ 004ea53c f   mfc42d:MFC42D.DLL
 0001:000e9542       ?OffsetRect@CRect@@QAEXHH@Z 004ea542 f   mfc42d:MFC42D.DLL
 0001:000e9548       ?SetBkMode@CDC@@QAEHH@Z    004ea548 f   mfc42d:MFC42D.DLL
 0001:000e954e       ?FindIndex@CStringList@@QBEPAU__POSITION@@H@Z 004ea54e f   mfc42d:MFC42D.DLL
 0001:000e9554       ?GetCount@CStringList@@QBEHXZ 004ea554 f   mfc42d:MFC42D.DLL
 0001:000e955a       ?OffsetRect@CRect@@QAEXUtagPOINT@@@Z 004ea55a f   mfc42d:MFC42D.DLL
 0001:000e9560       ?Width@CRect@@QBEHXZ       004ea560 f   mfc42d:MFC42D.DLL
 0001:000e9566       ??YCString@@QAEABV0@ABV0@@Z 004ea566 f   mfc42d:MFC42D.DLL
 0001:000e956c       ??1CEdit@@UAE@XZ           004ea56c f   mfc42d:MFC42D.DLL
 0001:000e9572       ?Create@CEdit@@QAEHKABUtagRECT@@PAVCWnd@@I@Z 004ea572 f   mfc42d:MFC42D.DLL
 0001:000e9578       ??0CEdit@@QAE@XZ           004ea578 f   mfc42d:MFC42D.DLL
 0001:000e957e       ?GetSafeHwnd@CWnd@@QBEPAUHWND__@@XZ 004ea57e f   mfc42d:MFC42D.DLL
 0001:000e9584       ?PostMessageA@CWnd@@QAEHIIJ@Z 004ea584 f   mfc42d:MFC42D.DLL
 0001:000e958a       ?OnKeyDown@CWnd@@IAEXIII@Z 004ea58a f   mfc42d:MFC42D.DLL
 0001:000e9590       ?Empty@CString@@QAEXXZ     004ea590 f   mfc42d:MFC42D.DLL
 0001:000e9596       ?SetCaretPos@CWnd@@SGXUtagPOINT@@@Z 004ea596 f   mfc42d:MFC42D.DLL
 0001:000e959c       ?GetWindowTextA@CWnd@@QBEXAAVCString@@@Z 004ea59c f   mfc42d:MFC42D.DLL
 0001:000e95a2       ?MoveWindow@CWnd@@QAEXPBUtagRECT@@H@Z 004ea5a2 f   mfc42d:MFC42D.DLL
 0001:000e95a8       ?CreateFontA@CFont@@QAEHHHHHHEEEEEEEEPBD@Z 004ea5a8 f   mfc42d:MFC42D.DLL
 0001:000e95ae       ??0CFont@@QAE@XZ           004ea5ae f   mfc42d:MFC42D.DLL
 0001:000e95b4       ?SetFont@CWnd@@QAEXPAVCFont@@H@Z 004ea5b4 f   mfc42d:MFC42D.DLL
 0001:000e95ba       ?DestroyWindow@CWnd@@UAEHXZ 004ea5ba f   mfc42d:MFC42D.DLL
 0001:000e95c0       ?OnSetFocus@CWnd@@IAEXPAV1@@Z 004ea5c0 f   mfc42d:MFC42D.DLL
 0001:000e95c6       ?IsChild@CWnd@@QBEHPBV1@@Z 004ea5c6 f   mfc42d:MFC42D.DLL
 0001:000e95cc       ?GetFocus@CWnd@@SGPAV1@XZ  004ea5cc f   mfc42d:MFC42D.DLL
 0001:000e95d2       ?OnKillFocus@CWnd@@IAEXPAV1@@Z 004ea5d2 f   mfc42d:MFC42D.DLL
 0001:000e95d8       ?PtInRect@CRect@@QBEHUtagPOINT@@@Z 004ea5d8 f   mfc42d:MFC42D.DLL
 0001:000e95de       ?GetLine@CEdit@@QBEHHPADH@Z 004ea5de f   mfc42d:MFC42D.DLL
 0001:000e95e4       ?LineFromChar@CEdit@@QBEHH@Z 004ea5e4 f   mfc42d:MFC42D.DLL
 0001:000e95ea       ?LineIndex@CEdit@@QBEHH@Z  004ea5ea f   mfc42d:MFC42D.DLL
 0001:000e95f0       ?GetFirstVisibleLine@CEdit@@QBEHXZ 004ea5f0 f   mfc42d:MFC42D.DLL
 0001:000e95f6       ?GetLineCount@CEdit@@QBEHXZ 004ea5f6 f   mfc42d:MFC42D.DLL
 0001:000e95fc       ?LineTo@CDC@@QAEHHH@Z      004ea5fc f   mfc42d:MFC42D.DLL
 0001:000e9602       ?MoveTo@CDC@@QAE?AVCPoint@@HH@Z 004ea602 f   mfc42d:MFC42D.DLL
 0001:000e9608       ??0CPen@@QAE@HHK@Z         004ea608 f   mfc42d:MFC42D.DLL
 0001:000e960e       ?Offset@CPoint@@QAEXHH@Z   004ea60e f   mfc42d:MFC42D.DLL
 0001:000e9614       ?GetCaretPos@CWnd@@SG?AVCPoint@@XZ 004ea614 f   mfc42d:MFC42D.DLL
 0001:000e961a       ?Right@CString@@QBE?AV1@H@Z 004ea61a f   mfc42d:MFC42D.DLL
 0001:000e9620       ?Mid@CString@@QBE?AV1@HH@Z 004ea620 f   mfc42d:MFC42D.DLL
 0001:000e9626       ??YCString@@QAEABV0@D@Z    004ea626 f   mfc42d:MFC42D.DLL
 0001:000e962c       ?GetSel@CEdit@@QBEXAAH0@Z  004ea62c f   mfc42d:MFC42D.DLL
 0001:000e9632       ?OnChar@CWnd@@IAEXIII@Z    004ea632 f   mfc42d:MFC42D.DLL
 0001:000e9638       ?OnKeyUp@CWnd@@IAEXIII@Z   004ea638 f   mfc42d:MFC42D.DLL
 0001:000e963e       ?AddTail@CStringList@@QAEPAU__POSITION@@PBD@Z 004ea63e f   mfc42d:MFC42D.DLL
 0001:000e9644       ?NormalizeRect@CRect@@QAEXXZ 004ea644 f   mfc42d:MFC42D.DLL
 0001:000e964a       ??9CRect@@QBEHABUtagRECT@@@Z 004ea64a f   mfc42d:MFC42D.DLL
 0001:000e9650       ??_4CRect@@QAEXABUtagRECT@@@Z 004ea650 f   mfc42d:MFC42D.DLL
 0001:000e9656       ?Dump@CPtrArray@@UBEXAAVCDumpContext@@@Z 004ea656 f   mfc42d:MFC42D.DLL
 0001:000e965c       ?AssertValid@CPtrArray@@UBEXXZ 004ea65c f   mfc42d:MFC42D.DLL
 0001:000e9662       ?GetRuntimeClass@CPtrArray@@UBEPAUCRuntimeClass@@XZ 004ea662 f   mfc42d:MFC42D.DLL
 0001:000e9668       ??0CPtrArray@@QAE@XZ       004ea668 f   mfc42d:MFC42D.DLL
 0001:000e966e       ??1CPtrArray@@UAE@XZ       004ea66e f   mfc42d:MFC42D.DLL
 0001:000e9674       ?RemoveAll@CPtrArray@@QAEXXZ 004ea674 f   mfc42d:MFC42D.DLL
 0001:000e967a       ?GetSize@CPtrArray@@QBEHXZ 004ea67a f   mfc42d:MFC42D.DLL
 0001:000e9680       ?GetPosition@CFile@@UBEKXZ 004ea680 f   mfc42d:MFC42D.DLL
 0001:000e9686       ?SetSize@CPtrArray@@QAEXHH@Z 004ea686 f   mfc42d:MFC42D.DLL
 0001:000e968c       ?GetAt@CPtrArray@@QBEPAXH@Z 004ea68c f   mfc42d:MFC42D.DLL
 0001:000e9692       ??ACPtrArray@@QAEAAPAXH@Z  004ea692 f   mfc42d:MFC42D.DLL
 0001:000e9698       ??0CSize@@QAE@HH@Z         004ea698 f   mfc42d:MFC42D.DLL
 0001:000e969e       ??0CPoint@@QAE@UtagPOINT@@@Z 004ea69e f   mfc42d:MFC42D.DLL
 0001:000e96a4       ?GetRuntimeClass@CWnd@@UBEPAUCRuntimeClass@@XZ 004ea6a4 f   mfc42d:MFC42D.DLL
 0001:000e96aa       ??1CWnd@@UAE@XZ            004ea6aa f   mfc42d:MFC42D.DLL
 0001:000e96b0       ??0CWnd@@QAE@XZ            004ea6b0 f   mfc42d:MFC42D.DLL
 0001:000e96b6       ?AfxRegisterWndClass@@YGPBDIPAUHICON__@@PAUHBRUSH__@@0@Z 004ea6b6 f   mfc42d:MFC42D.DLL
 0001:000e96bc       ??1CPaintDC@@UAE@XZ        004ea6bc f   mfc42d:MFC42D.DLL
 0001:000e96c2       ??0CPaintDC@@QAE@PAVCWnd@@@Z 004ea6c2 f   mfc42d:MFC42D.DLL
 0001:000e96c8       ?GetProfileIntA@CWinApp@@QAEIPBD0H@Z 004ea6c8 f   mfc42d:MFC42D.DLL
 0001:000e96ce       ?AfxGetApp@@YGPAVCWinApp@@XZ 004ea6ce f   mfc42d:MFC42D.DLL
 0001:000e96d4       ?GetLength@CFile@@UBEKXZ   004ea6d4 f   mfc42d:MFC42D.DLL
 0001:000e96da       ?OnCreate@CWnd@@IAEHPAUtagCREATESTRUCTA@@@Z 004ea6da f   mfc42d:MFC42D.DLL
 0001:000e96e0       ?OnDestroy@CWnd@@IAEXXZ    004ea6e0 f   mfc42d:MFC42D.DLL
 0001:000e96e6       ?WriteProfileInt@CWinApp@@QAEHPBD0H@Z 004ea6e6 f   mfc42d:MFC42D.DLL
 0001:000e96ec       ?KillTimer@CWnd@@QAEHH@Z   004ea6ec f   mfc42d:MFC42D.DLL
 0001:000e96f2       ??YCPoint@@QAEXUtagPOINT@@@Z 004ea6f2 f   mfc42d:MFC42D.DLL
 0001:000e96f8       ??ZCPoint@@QAEXUtagPOINT@@@Z 004ea6f8 f   mfc42d:MFC42D.DLL
 0001:000e96fe       ?CenterPoint@CRect@@QBE?AVCPoint@@XZ 004ea6fe f   mfc42d:MFC42D.DLL
 0001:000e9704       ??4CRect@@QAEXABUtagRECT@@@Z 004ea704 f   mfc42d:MFC42D.DLL
 0001:000e970a       ?GetBuffer@CString@@QAEPADH@Z 004ea70a f   mfc42d:MFC42D.DLL
 0001:000e9710       ??HCPoint@@QBE?AV0@UtagPOINT@@@Z 004ea710 f   mfc42d:MFC42D.DLL
 0001:000e9716       ??8CPoint@@QBEHUtagPOINT@@@Z 004ea716 f   mfc42d:MFC42D.DLL
 0001:000e971c       ??H@YG?AVCString@@ABV0@0@Z 004ea71c f   mfc42d:MFC42D.DLL
 0001:000e9722       ?Compare@CString@@QBEHPBD@Z 004ea722 f   mfc42d:MFC42D.DLL
 0001:000e9728       ??0CString@@QAE@DH@Z       004ea728 f   mfc42d:MFC42D.DLL
 0001:000e972e       ?ReleaseBuffer@CString@@QAEXH@Z 004ea72e f   mfc42d:MFC42D.DLL
 0001:000e9734       ?MakeLower@CString@@QAEXXZ 004ea734 f   mfc42d:MFC42D.DLL
 0001:000e973a       ?MakeUpper@CString@@QAEXXZ 004ea73a f   mfc42d:MFC42D.DLL
 0001:000e9740       ?GetBufferSetLength@CString@@QAEPADH@Z 004ea740 f   mfc42d:MFC42D.DLL
 0001:000e9746       ?SelectObject@CDC@@QAEPAVCBrush@@PAV2@@Z 004ea746 f   mfc42d:MFC42D.DLL
 0001:000e974c       ?Rectangle@CDC@@QAEHPBUtagRECT@@@Z 004ea74c f   mfc42d:MFC42D.DLL
 0001:000e9752       ?OnTimer@CWnd@@IAEXI@Z     004ea752 f   mfc42d:MFC42D.DLL
 0001:000e9758       ?OnSysKeyDown@CWnd@@IAEXIII@Z 004ea758 f   mfc42d:MFC42D.DLL
 0001:000e975e       ?GetTextExtent@CDC@@QBE?AVCSize@@ABVCString@@@Z 004ea75e f   mfc42d:MFC42D.DLL
 0001:000e9764       ?TextOutA@CDC@@QAEHHHABVCString@@@Z 004ea764 f   mfc42d:MFC42D.DLL
 0001:000e976a       ??0CRect@@QAE@ABUtagRECT@@@Z 004ea76a f   mfc42d:MFC42D.DLL
 0001:000e9770       ?OnSysKeyUp@CWnd@@IAEXIII@Z 004ea770 f   mfc42d:MFC42D.DLL
 0001:000e9776       ??9CPoint@@QBEHUtagPOINT@@@Z 004ea776 f   mfc42d:MFC42D.DLL
 0001:000e977c       ?LimitText@CEdit@@QAEXH@Z  004ea77c f   mfc42d:MFC42D.DLL
 0001:000e9782       ?TopLeft@CRect@@QAEAAVCPoint@@XZ 004ea782 f   mfc42d:MFC42D.DLL
 0001:000e9788       ?Offset@CPoint@@QAEXUtagPOINT@@@Z 004ea788 f   mfc42d:MFC42D.DLL
 0001:000e978e       ?LoadStringA@CString@@QAEHI@Z 004ea78e f   mfc42d:MFC42D.DLL
 0001:000e9794       ?Add@CPtrArray@@QAEHPAX@Z  004ea794 f   mfc42d:MFC42D.DLL
 0001:000e979a       ??ACString@@QBEDH@Z        004ea79a f   mfc42d:MFC42D.DLL
 0001:000e97a0       ?RemoveAt@CPtrArray@@QAEXHH@Z 004ea7a0 f   mfc42d:MFC42D.DLL
 0001:000e97a6       ??1CFont@@UAE@XZ           004ea7a6 f   mfc42d:MFC42D.DLL
 0001:000e97ac       ?LineScroll@CEdit@@QAEXHH@Z 004ea7ac f   mfc42d:MFC42D.DLL
 0001:000e97b2       ?SetTimer@CWnd@@QAEIIIP6GXPAUHWND__@@IIK@Z@Z 004ea7b2 f   mfc42d:MFC42D.DLL
 0001:000e97b8       ??1CRgn@@UAE@XZ            004ea7b8 f   mfc42d:MFC42D.DLL
 0001:000e97be       ?SelectClipRgn@CDC@@QAEHPAVCRgn@@@Z 004ea7be f   mfc42d:MFC42D.DLL
 0001:000e97c4       ?CreateRectRgnIndirect@CRgn@@QAEHPBUtagRECT@@@Z 004ea7c4 f   mfc42d:MFC42D.DLL
 0001:000e97ca       ??0CRgn@@QAE@XZ            004ea7ca f   mfc42d:MFC42D.DLL
 0001:000e97d0       ?GetTextMetricsA@CDC@@QBEHPAUtagTEXTMETRICA@@@Z 004ea7d0 f   mfc42d:MFC42D.DLL
 0001:000e97d6       ?GetBkColor@CDC@@QBEKXZ    004ea7d6 f   mfc42d:MFC42D.DLL
 0001:000e97dc       ?IsEmpty@CStringList@@QBEHXZ 004ea7dc f   mfc42d:MFC42D.DLL
 0001:000e97e2       ?GetAt@CStringList@@QAEAAVCString@@PAU__POSITION@@@Z 004ea7e2 f   mfc42d:MFC42D.DLL
 0001:000e97e8       ?RemoveAt@CStringList@@QAEXPAU__POSITION@@@Z 004ea7e8 f   mfc42d:MFC42D.DLL
 0001:000e97ee       ?CompareNoCase@CString@@QBEHPBD@Z 004ea7ee f   mfc42d:MFC42D.DLL
 0001:000e97f4       ?InsertBefore@CStringList@@QAEPAU__POSITION@@PAU2@ABVCString@@@Z 004ea7f4 f   mfc42d:MFC42D.DLL
 0001:000e97fa       ??1CByteArray@@UAE@XZ      004ea7fa f   mfc42d:MFC42D.DLL
 0001:000e9800       ??1CStringArray@@UAE@XZ    004ea800 f   mfc42d:MFC42D.DLL
 0001:000e9806       ??0CByteArray@@QAE@XZ      004ea806 f   mfc42d:MFC42D.DLL
 0001:000e980c       ??0CStringArray@@QAE@XZ    004ea80c f   mfc42d:MFC42D.DLL
 0001:000e9812       ?RemoveAll@CByteArray@@QAEXXZ 004ea812 f   mfc42d:MFC42D.DLL
 0001:000e9818       ?RemoveAll@CStringArray@@QAEXXZ 004ea818 f   mfc42d:MFC42D.DLL
 0001:000e981e       ??ACStringArray@@QAEAAVCString@@H@Z 004ea81e f   mfc42d:MFC42D.DLL
 0001:000e9824       ??ACByteArray@@QAEAAEH@Z   004ea824 f   mfc42d:MFC42D.DLL
 0001:000e982a       ?Add@CStringArray@@QAEHABVCString@@@Z 004ea82a f   mfc42d:MFC42D.DLL
 0001:000e9830       ?InsertAt@CByteArray@@QAEXHEH@Z 004ea830 f   mfc42d:MFC42D.DLL
 0001:000e9836       ?InsertAt@CStringArray@@QAEXHABVCString@@H@Z 004ea836 f   mfc42d:MFC42D.DLL
 0001:000e983c       ?GetSize@CStringArray@@QBEHXZ 004ea83c f   mfc42d:MFC42D.DLL
 0001:000e9842       ?RemoveAt@CByteArray@@QAEXHH@Z 004ea842 f   mfc42d:MFC42D.DLL
 0001:000e9848       ?RemoveAt@CStringArray@@QAEXHH@Z 004ea848 f   mfc42d:MFC42D.DLL
 0001:000e984e       ?Format@CString@@QAAXIZZ   004ea84e f   mfc42d:MFC42D.DLL
 0001:000e9854       ??1CPtrList@@UAE@XZ        004ea854 f   mfc42d:MFC42D.DLL
 0001:000e985a       ?RemoveAll@CPtrList@@QAEXXZ 004ea85a f   mfc42d:MFC42D.DLL
 0001:000e9860       ?RemoveAt@CPtrList@@QAEXPAU__POSITION@@@Z 004ea860 f   mfc42d:MFC42D.DLL
 0001:000e9866       ?GetTailPosition@CPtrList@@QBEPAU__POSITION@@XZ 004ea866 f   mfc42d:MFC42D.DLL
 0001:000e986c       ?Find@CPtrList@@QBEPAU__POSITION@@PAXPAU2@@Z 004ea86c f   mfc42d:MFC42D.DLL
 0001:000e9872       ?Dump@CPtrList@@UBEXAAVCDumpContext@@@Z 004ea872 f   mfc42d:MFC42D.DLL
 0001:000e9878       ?AssertValid@CPtrList@@UBEXXZ 004ea878 f   mfc42d:MFC42D.DLL
 0001:000e987e       ?GetRuntimeClass@CPtrList@@UBEPAUCRuntimeClass@@XZ 004ea87e f   mfc42d:MFC42D.DLL
 0001:000e9884       ?AddTail@CPtrList@@QAEPAU__POSITION@@PAX@Z 004ea884 f   mfc42d:MFC42D.DLL
 0001:000e988a       ?GetPrev@CPtrList@@QAEAAPAXAAPAU__POSITION@@@Z 004ea88a f   mfc42d:MFC42D.DLL
 0001:000e9890       ??0CPtrList@@QAE@H@Z       004ea890 f   mfc42d:MFC42D.DLL
 0001:000e9896       ??8@YG_NABVCString@@PBD@Z  004ea896 f   mfc42d:MFC42D.DLL
 0001:000e989c       ?AfxGetInstanceHandle@@YGPAUHINSTANCE__@@XZ 004ea89c f   mfc42d:MFC42D.DLL
 0001:000e98a2       ?AfxGetMainWnd@@YGPAVCWnd@@XZ 004ea8a2 f   mfc42d:MFC42D.DLL
 0001:000e98a8       ??0CRect@@QAE@UtagPOINT@@UtagSIZE@@@Z 004ea8a8 f   mfc42d:MFC42D.DLL
 0001:000e98ae       ?PreInitDialog@CDialog@@MAEXXZ 004ea8ae f   mfc42d:MFC42D.DLL
 0001:000e98b4       ?OnSetFont@CDialog@@UAEXPAVCFont@@@Z 004ea8b4 f   mfc42d:MFC42D.DLL
 0001:000e98ba       ?OnInitDialog@CDialog@@UAEHXZ 004ea8ba f   mfc42d:MFC42D.DLL
 0001:000e98c0       ?DoModal@CDialog@@UAEHXZ   004ea8c0 f   mfc42d:MFC42D.DLL
 0001:000e98c6       ?SetOccDialogInfo@CDialog@@MAEHPAU_AFX_OCC_DIALOG_INFO@@@Z 004ea8c6 f   mfc42d:MFC42D.DLL
 0001:000e98cc       ?CheckAutoCenter@CDialog@@UAEHXZ 004ea8cc f   mfc42d:MFC42D.DLL
 0001:000e98d2       ?PreTranslateMessage@CDialog@@UAEHPAUtagMSG@@@Z 004ea8d2 f   mfc42d:MFC42D.DLL
 0001:000e98d8       ?OnCmdMsg@CDialog@@UAEHIHPAXPAUAFX_CMDHANDLERINFO@@@Z 004ea8d8 f   mfc42d:MFC42D.DLL
 0001:000e98de       ?Dump@CDialog@@UBEXAAVCDumpContext@@@Z 004ea8de f   mfc42d:MFC42D.DLL
 0001:000e98e4       ?AssertValid@CDialog@@UBEXXZ 004ea8e4 f   mfc42d:MFC42D.DLL
 0001:000e98ea       ?GetRuntimeClass@CDialog@@UBEPAUCRuntimeClass@@XZ 004ea8ea f   mfc42d:MFC42D.DLL
 0001:000e98f0       ??1CDialog@@UAE@XZ         004ea8f0 f   mfc42d:MFC42D.DLL
 0001:000e98f6       ??0CDialog@@QAE@IPAVCWnd@@@Z 004ea8f6 f   mfc42d:MFC42D.DLL
 0001:000e98fc       ?DDX_Check@@YGXPAVCDataExchange@@HAAH@Z 004ea8fc f   mfc42d:MFC42D.DLL
 0001:000e9902       ?DDV_MaxChars@@YGXPAVCDataExchange@@ABVCString@@H@Z 004ea902 f   mfc42d:MFC42D.DLL
 0001:000e9908       ?DDX_Text@@YGXPAVCDataExchange@@HAAVCString@@@Z 004ea908 f   mfc42d:MFC42D.DLL
 0001:000e990e       ?OnOK@CDialog@@MAEXXZ      004ea90e f   mfc42d:MFC42D.DLL
 0001:000e9914       ?EnableWindow@CWnd@@QAEHH@Z 004ea914 f   mfc42d:MFC42D.DLL
 0001:000e991a       ?GetDlgItem@CWnd@@QBEPAV1@H@Z 004ea91a f   mfc42d:MFC42D.DLL
 0001:000e9920       ?UpdateData@CWnd@@QAEHH@Z  004ea920 f   mfc42d:MFC42D.DLL
 0001:000e9926       ?OnCancel@CDialog@@MAEXXZ  004ea926 f   mfc42d:MFC42D.DLL
 0001:000e992c       ??2CObject@@SGPAXI@Z       004ea92c f   mfc42d:MFC42D.DLL
 0001:000e9932       ?SetTextAlign@CDC@@QAEII@Z 004ea932 f   mfc42d:MFC42D.DLL
 0001:000e9938       ?GetSafeHdc@CDC@@QBEPAUHDC__@@XZ 004ea938 f   mfc42d:MFC42D.DLL
 0001:000e993e       ?Write@CFile@@UAEXPBXI@Z   004ea93e f   mfc42d:MFC42D.DLL
 0001:000e9944       ??0CFile@@QAE@PBDI@Z       004ea944 f   mfc42d:MFC42D.DLL
 0001:000e994a       ?FillSolidRect@CDC@@QAEXPBUtagRECT@@K@Z 004ea94a f   mfc42d:MFC42D.DLL
 0001:000e9950       ?DrawEdge@CDC@@QAEHPAUtagRECT@@II@Z 004ea950 f   mfc42d:MFC42D.DLL
 0001:000e9956       ?ExitHelpMode@CFrameWnd@@UAEXXZ 004ea956 f   mfc42d:MFC42D.DLL
 0001:000e995c       ?DelayUpdateFrameMenu@CFrameWnd@@UAEXPAUHMENU__@@@Z 004ea95c f   mfc42d:MFC42D.DLL
 0001:000e9962       ?GetDefaultAccelerator@CFrameWnd@@UAEPAUHACCEL__@@XZ 004ea962 f   mfc42d:MFC42D.DLL
 0001:000e9968       ?OnUpdateFrameMenu@CFrameWnd@@UAEXPAUHMENU__@@@Z 004ea968 f   mfc42d:MFC42D.DLL
 0001:000e996e       ?OnUpdateFrameTitle@CFrameWnd@@UAEXH@Z 004ea96e f   mfc42d:MFC42D.DLL
 0001:000e9974       ?OnCreateClient@CFrameWnd@@MAEHPAUtagCREATESTRUCTA@@PAUCCreateContext@@@Z 004ea974 f   mfc42d:MFC42D.DLL
 0001:000e997a       ?NegotiateBorderSpace@CFrameWnd@@UAEHIPAUtagRECT@@@Z 004ea97a f   mfc42d:MFC42D.DLL
 0001:000e9980       ?GetMessageBar@CFrameWnd@@UAEPAVCWnd@@XZ 004ea980 f   mfc42d:MFC42D.DLL
 0001:000e9986       ?OnSetPreviewMode@CFrameWnd@@UAEXHPAUCPrintPreviewState@@@Z 004ea986 f   mfc42d:MFC42D.DLL
 0001:000e998c       ?ActivateFrame@CFrameWnd@@UAEXH@Z 004ea98c f   mfc42d:MFC42D.DLL
 0001:000e9992       ?RecalcLayout@CFrameWnd@@UAEXH@Z 004ea992 f   mfc42d:MFC42D.DLL
 0001:000e9998       ?GetMessageString@CFrameWnd@@UBEXIAAVCString@@@Z 004ea998 f   mfc42d:MFC42D.DLL
 0001:000e999e       ?GetActiveFrame@CFrameWnd@@UAEPAV1@XZ 004ea99e f   mfc42d:MFC42D.DLL
 0001:000e99a4       ?GetActiveDocument@CFrameWnd@@UAEPAVCDocument@@XZ 004ea9a4 f   mfc42d:MFC42D.DLL
 0001:000e99aa       ?LoadFrame@CFrameWnd@@UAEHIKPAVCWnd@@PAUCCreateContext@@@Z 004ea9aa f   mfc42d:MFC42D.DLL
 0001:000e99b0       ?IsFrameWnd@CFrameWnd@@UBEHXZ 004ea9b0 f   mfc42d:MFC42D.DLL
 0001:000e99b6       ?PostNcDestroy@CFrameWnd@@MAEXXZ 004ea9b6 f   mfc42d:MFC42D.DLL
 0001:000e99bc       ?PreTranslateMessage@CFrameWnd@@UAEHPAUtagMSG@@@Z 004ea9bc f   mfc42d:MFC42D.DLL
 0001:000e99c2       ?EndModalState@CFrameWnd@@UAEXXZ 004ea9c2 f   mfc42d:MFC42D.DLL
 0001:000e99c8       ?BeginModalState@CFrameWnd@@UAEXXZ 004ea9c8 f   mfc42d:MFC42D.DLL
 0001:000e99ce       ?OnCommand@CFrameWnd@@MAEHIJ@Z 004ea9ce f   mfc42d:MFC42D.DLL
 0001:000e99d4       ??1CFrameWnd@@UAE@XZ       004ea9d4 f   mfc42d:MFC42D.DLL
 0001:000e99da       ??0CFrameWnd@@QAE@XZ       004ea9da f   mfc42d:MFC42D.DLL
 0001:000e99e0       ?PreCreateWindow@CFrameWnd@@MAEHAAUtagCREATESTRUCTA@@@Z 004ea9e0 f   mfc42d:MFC42D.DLL
 0001:000e99e6       ?AssertValid@CFrameWnd@@UBEXXZ 004ea9e6 f   mfc42d:MFC42D.DLL
 0001:000e99ec       ?Dump@CFrameWnd@@UBEXAAVCDumpContext@@@Z 004ea9ec f   mfc42d:MFC42D.DLL
 0001:000e99f2       ?OnSetFocus@CFrameWnd@@IAEXPAVCWnd@@@Z 004ea9f2 f   mfc42d:MFC42D.DLL
 0001:000e99f8       ?OnCmdMsg@CFrameWnd@@UAEHIHPAXPAUAFX_CMDHANDLERINFO@@@Z 004ea9f8 f   mfc42d:MFC42D.DLL
 0001:000e99fe       ?OnCreate@CFrameWnd@@IAEHPAUtagCREATESTRUCTA@@@Z 004ea9fe f   mfc42d:MFC42D.DLL
 0001:000e9a04       ?OnActivateApp@CWnd@@IAEXHPAUHTASK__@@@Z 004eaa04 f   mfc42d:MFC42D.DLL
 0001:000e9a0a       ?SetRectEmpty@CRect@@QAEXXZ 004eaa0a f   mfc42d:MFC42D.DLL
 0001:000e9a10       ??6CArchive@@QAEAAV0@J@Z   004eaa10 f   mfc42d:MFC42D.DLL
 0001:000e9a16       ??5CArchive@@QAEAAV0@AAJ@Z 004eaa16 f   mfc42d:MFC42D.DLL
 0001:000e9a1c       ??6CArchive@@QAEAAV0@H@Z   004eaa1c f   mfc42d:MFC42D.DLL
 0001:000e9a22       ??5CArchive@@QAEAAV0@AAH@Z 004eaa22 f   mfc42d:MFC42D.DLL
 0001:000e9a28       ?InflateRect@CRect@@QAEXHH@Z 004eaa28 f   mfc42d:MFC42D.DLL
 0001:000e9a2e       ?WinHelpA@CWinApp@@UAEXKI@Z 004eaa2e f   mfc42d:MFC42D.DLL
 0001:000e9a34       ?OnDDECommand@CWinApp@@UAEHPAD@Z 004eaa34 f   mfc42d:MFC42D.DLL
 0001:000e9a3a       ?DoWaitCursor@CWinApp@@UAEXH@Z 004eaa3a f   mfc42d:MFC42D.DLL
 0001:000e9a40       ?DoMessageBox@CWinApp@@UAEHPBDII@Z 004eaa40 f   mfc42d:MFC42D.DLL
 0001:000e9a46       ?SaveAllModified@CWinApp@@UAEHXZ 004eaa46 f   mfc42d:MFC42D.DLL
 0001:000e9a4c       ?InitApplication@CWinApp@@UAEHXZ 004eaa4c f   mfc42d:MFC42D.DLL
 0001:000e9a52       ?AddToRecentFileList@CWinApp@@UAEXPBD@Z 004eaa52 f   mfc42d:MFC42D.DLL
 0001:000e9a58       ?OpenDocumentFile@CWinApp@@UAEPAVCDocument@@PBD@Z 004eaa58 f   mfc42d:MFC42D.DLL
 0001:000e9a5e       ?Delete@CWinThread@@UAEXXZ 004eaa5e f   mfc42d:MFC42D.DLL
 0001:000e9a64       ?GetMainWnd@CWinThread@@UAEPAVCWnd@@XZ 004eaa64 f   mfc42d:MFC42D.DLL
 0001:000e9a6a       ?ProcessMessageFilter@CWinThread@@UAEHHPAUtagMSG@@@Z 004eaa6a f   mfc42d:MFC42D.DLL
 0001:000e9a70       ?ProcessWndProcException@CWinApp@@UAEJPAVCException@@PBUtagMSG@@@Z 004eaa70 f   mfc42d:MFC42D.DLL
 0001:000e9a76       ?IsIdleMessage@CWinThread@@UAEHPAUtagMSG@@@Z 004eaa76 f   mfc42d:MFC42D.DLL
 0001:000e9a7c       ?OnIdle@CWinApp@@UAEHJ@Z   004eaa7c f   mfc42d:MFC42D.DLL
 0001:000e9a82       ?PumpMessage@CWinThread@@UAEHXZ 004eaa82 f   mfc42d:MFC42D.DLL
 0001:000e9a88       ?PreTranslateMessage@CWinThread@@UAEHPAUtagMSG@@@Z 004eaa88 f   mfc42d:MFC42D.DLL
 0001:000e9a8e       ?OnFinalRelease@CCmdTarget@@UAEXXZ 004eaa8e f   mfc42d:MFC42D.DLL
 0001:000e9a94       ?Dump@CWinApp@@UBEXAAVCDumpContext@@@Z 004eaa94 f   mfc42d:MFC42D.DLL
 0001:000e9a9a       ?AssertValid@CWinApp@@UBEXXZ 004eaa9a f   mfc42d:MFC42D.DLL
 0001:000e9aa0       ?GetRuntimeClass@CWinApp@@UBEPAUCRuntimeClass@@XZ 004eaaa0 f   mfc42d:MFC42D.DLL
 0001:000e9aa6       ??0CWinApp@@QAE@PBD@Z      004eaaa6 f   mfc42d:MFC42D.DLL
 0001:000e9aac       ??1CWinApp@@UAE@XZ         004eaaac f   mfc42d:MFC42D.DLL
 0001:000e9ab2       ?UpdateWindow@CWnd@@QAEXXZ 004eaab2 f   mfc42d:MFC42D.DLL
 0001:000e9ab8       ?ShowWindow@CWnd@@QAEHH@Z  004eaab8 f   mfc42d:MFC42D.DLL
 0001:000e9abe       ?SetRegistryKey@CWinApp@@IAEXPBD@Z 004eaabe f   mfc42d:MFC42D.DLL
 0001:000e9ac4       ?AfxMessageBox@@YGHIII@Z   004eaac4 f   mfc42d:MFC42D.DLL
 0001:000e9aca       ?AfxOleGetUserCtrl@@YGHXZ  004eaaca f   mfc42d:MFC42D.DLL
 0001:000e9ad0       ?ExitInstance@CWinApp@@UAEHXZ 004eaad0 f   mfc42d:MFC42D.DLL
 0001:000e9ad6       ??1CDC@@UAE@XZ             004eaad6 f   mfc42d:MFC42D.DLL
 0001:000e9adc       ?GetDeviceCaps@CDC@@QBEHH@Z 004eaadc f   mfc42d:MFC42D.DLL
 0001:000e9ae2       ?CreateICA@CDC@@QAEHPBD00PBX@Z 004eaae2 f   mfc42d:MFC42D.DLL
 0001:000e9ae8       ??0CDC@@QAE@XZ             004eaae8 f   mfc42d:MFC42D.DLL
 0001:000e9aee       ?CreatePointFont@CFont@@QAEHHPBDPAVCDC@@@Z 004eaaee f   mfc42d:MFC42D.DLL
 0001:000e9af4       ??1CArchive@@QAE@XZ        004eaaf4 f   mfc42d:MFC42D.DLL
 0001:000e9afa       ?Close@CArchive@@QAEXXZ    004eaafa f   mfc42d:MFC42D.DLL
 0001:000e9b00       ?GetFile@CArchive@@QBEPAVCFile@@XZ 004eab00 f   mfc42d:MFC42D.DLL
 0001:000e9b06       ??0CArchive@@QAE@PAVCFile@@IHPAX@Z 004eab06 f   mfc42d:MFC42D.DLL
 0001:000e9b0c       ?Delete@CException@@QAEXXZ 004eab0c f   mfc42d:MFC42D.DLL
 0001:000e9b12       ??YCPoint@@QAEXUtagSIZE@@@Z 004eab12 f   mfc42d:MFC42D.DLL
 0001:000e9b18       ?GetPixel@CDC@@QBEKUtagPOINT@@@Z 004eab18 f   mfc42d:MFC42D.DLL
 0001:000e9b1e       ??HCRect@@QBE?AV0@UtagPOINT@@@Z 004eab1e f   mfc42d:MFC42D.DLL
 0001:000e9b24       ?DestructElements@@YGXPAVCString@@H@Z 004eab24 f   mfc42d:MFC42D.DLL
 0001:000e9b2a       ?SerializeElements@@YGXAAVCArchive@@PAVCString@@H@Z 004eab2a f   mfc42d:MFC42D.DLL
 0001:000e9b30       ?ConstructElements@@YGXPAVCString@@H@Z 004eab30 f   mfc42d:MFC42D.DLL
 0001:000e9b36       ?IntersectRect@CRect@@QAEHPBUtagRECT@@0@Z 004eab36 f   mfc42d:MFC42D.DLL
 0001:000e9b3c       __chkesp                   004eab3c f   msvcrtd:MSVCRTD.dll
 0001:000e9b42       _memset                    004eab42 f   msvcrtd:MSVCRTD.dll
 0001:000e9b48       _memcpy                    004eab48 f   msvcrtd:MSVCRTD.dll
 0001:000e9b50       ??_L@YGXPAXIHP6EX0@Z1@Z    004eab50 f   msvcrtd:ehvecctr.obj
 0001:000e9bf0       ___CxxFrameHandler         004eabf0 f   msvcrtd:MSVCRTD.dll
 0001:000e9c00       ??_M@YGXPAXIHP6EX0@Z@Z     004eac00 f   msvcrtd:ehvecdtr.obj
 0001:000e9cb0       ?__ArrayUnwind@@YGXPAXIHP6EX0@Z@Z 004eacb0 f   msvcrtd:ehvecdtr.obj
 0001:000e9d5c       _sscanf                    004ead5c f   msvcrtd:MSVCRTD.dll
 0001:000e9d62       _sin                       004ead62 f   msvcrtd:MSVCRTD.dll
 0001:000e9d68       _cos                       004ead68 f   msvcrtd:MSVCRTD.dll
 0001:000e9d6e       _sqrt                      004ead6e f   msvcrtd:MSVCRTD.dll
 0001:000e9d74       __ftol                     004ead74 f   msvcrtd:MSVCRTD.dll
 0001:000e9d7a       _memmove                   004ead7a f   msvcrtd:MSVCRTD.dll
 0001:000e9d80       _abs                       004ead80 f   msvcrtd:MSVCRTD.dll
 0001:000e9d86       _rand                      004ead86 f   msvcrtd:MSVCRTD.dll
 0001:000e9d8c       _atoi                      004ead8c f   msvcrtd:MSVCRTD.dll
 0001:000e9da0       __onexit                   004eada0 f   msvcrtd:atonexit.obj
 0001:000e9de0       _atexit                    004eade0 f   msvcrtd:atonexit.obj
 0001:000e9e00       __alloca_probe             004eae00 f   msvcrtd:chkstk.obj
 0001:000e9e00       __chkstk                   004eae00 f   msvcrtd:chkstk.obj
 0001:000e9e30       _strlen                    004eae30 f   msvcrtd:MSVCRTD.dll
 0001:000e9e36       _strcpy                    004eae36 f   msvcrtd:MSVCRTD.dll
 0001:000e9e3c       _ceil                      004eae3c f   msvcrtd:MSVCRTD.dll
 0001:000e9e42       _strcat                    004eae42 f   msvcrtd:MSVCRTD.dll
 0001:000e9e48       _strtok                    004eae48 f   msvcrtd:MSVCRTD.dll
 0001:000e9e4e       _isdigit                   004eae4e f   msvcrtd:MSVCRTD.dll
 0001:000e9e54       _isalpha                   004eae54 f   msvcrtd:MSVCRTD.dll
 0001:000e9e5a       _fabs                      004eae5a f   msvcrtd:MSVCRTD.dll
 0001:000e9e60       _strcmp                    004eae60 f   msvcrtd:MSVCRTD.dll
 0001:000e9e66       _calloc                    004eae66 f   msvcrtd:MSVCRTD.dll
 0001:000e9e6c       _free                      004eae6c f   msvcrtd:MSVCRTD.dll
 0001:000e9e72       _fclose                    004eae72 f   msvcrtd:MSVCRTD.dll
 0001:000e9e78       _fseek                     004eae78 f   msvcrtd:MSVCRTD.dll
 0001:000e9e7e       _fread                     004eae7e f   msvcrtd:MSVCRTD.dll
 0001:000e9e84       _fopen                     004eae84 f   msvcrtd:MSVCRTD.dll
 0001:000e9e8a       _srand                     004eae8a f   msvcrtd:MSVCRTD.dll
 0001:000e9e90       _time                      004eae90 f   msvcrtd:MSVCRTD.dll
 0001:000e9e96       ___p___argv                004eae96 f   msvcrtd:MSVCRTD.dll
 0001:000e9e9c       ___p___argc                004eae9c f   msvcrtd:MSVCRTD.dll
 0001:000e9ea2       _malloc                    004eaea2 f   msvcrtd:MSVCRTD.dll
 0001:000e9eb0       ??0type_info@@AAE@ABV0@@Z  004eaeb0 f   msvcrtd:ti_inst.obj
 0001:000e9ed0       ??_Etype_info@@UAEPAXI@Z   004eaed0 f i msvcrtd:ti_inst.obj
 0001:000e9ed0       ??_Gtype_info@@UAEPAXI@Z   004eaed0 f i msvcrtd:ti_inst.obj
 0001:000e9f00       ??4type_info@@AAEAAV0@ABV0@@Z 004eaf00 f   msvcrtd:ti_inst.obj
 0001:000e9f10       _atol                      004eaf10 f   msvcrtd:MSVCRTD.dll
 0001:000e9f16       _qsort                     004eaf16 f   msvcrtd:MSVCRTD.dll
 0001:000e9f20       _WinMainCRTStartup         004eaf20 f   msvcrtd:crtexew.obj
 0001:000ea11a       _exit                      004eb11a f   msvcrtd:MSVCRTD.dll
 0001:000ea120       __except_handler3          004eb120 f   msvcrtd:MSVCRTD.dll
 0001:000ea126       ?terminate@@YAXXZ          004eb126 f   msvcrtd:MSVCRTD.dll
 0001:000ea12c       ___dllonexit               004eb12c f   msvcrtd:MSVCRTD.dll
 0001:000ea132       ??1type_info@@UAE@XZ       004eb132 f   msvcrtd:MSVCRTD.dll
 0001:000ea138       __exit                     004eb138 f   msvcrtd:MSVCRTD.dll
 0001:000ea13e       __XcptFilter               004eb13e f   msvcrtd:MSVCRTD.dll
 0001:000ea144       ___getmainargs             004eb144 f   msvcrtd:MSVCRTD.dll
 0001:000ea14a       __initterm                 004eb14a f   msvcrtd:MSVCRTD.dll
 0001:000ea150       __setdefaultprecision      004eb150 f   msvcrtd:fp8.obj
 0001:000ea168       ___setusermatherr          004eb168 f   msvcrtd:MSVCRTD.dll
 0001:000ea170       __matherr                  004eb170 f   msvcrtd:merr.obj
 0001:000ea180       __setargv                  004eb180 f   msvcrtd:dllargv.obj
 0001:000ea186       ___p__commode              004eb186 f   msvcrtd:MSVCRTD.dll
 0001:000ea18c       ___p__fmode                004eb18c f   msvcrtd:MSVCRTD.dll
 0001:000ea192       ___set_app_type            004eb192 f   msvcrtd:MSVCRTD.dll
 0001:000ea198       __controlfp                004eb198 f   msvcrtd:MSVCRTD.dll
 0001:000ea19e       _SetCurrentDirectoryA@4    004eb19e f   kernel32:KERNEL32.dll
 0001:000ea1a4       _GetTickCount@0            004eb1a4 f   kernel32:KERNEL32.dll
 0001:000ea1aa       _lstrlenA@4                004eb1aa f   kernel32:KERNEL32.dll
 0001:000ea1b0       _lstrcpyA@8                004eb1b0 f   kernel32:KERNEL32.dll
 0001:000ea1b6       _Sleep@4                   004eb1b6 f   kernel32:KERNEL32.dll
 0001:000ea1bc       _lstrcatA@8                004eb1bc f   kernel32:KERNEL32.dll
 0001:000ea1c2       _GlobalMemoryStatus@4      004eb1c2 f   kernel32:KERNEL32.dll
 0001:000ea1c8       _FreeLibrary@4             004eb1c8 f   kernel32:KERNEL32.dll
 0001:000ea1ce       _GetProcAddress@8          004eb1ce f   kernel32:KERNEL32.dll
 0001:000ea1d4       _OutputDebugStringA@4      004eb1d4 f   kernel32:KERNEL32.dll
 0001:000ea1da       _LoadLibraryA@4            004eb1da f   kernel32:KERNEL32.dll
 0001:000ea1e0       _GetVersionExA@4           004eb1e0 f   kernel32:KERNEL32.dll
 0001:000ea1e6       _MulDiv@12                 004eb1e6 f   kernel32:KERNEL32.dll
 0001:000ea1ec       _lstrcmpA@8                004eb1ec f   kernel32:KERNEL32.dll
 0001:000ea1f2       _CloseHandle@4             004eb1f2 f   kernel32:KERNEL32.dll
 0001:000ea1f8       _ReadFile@20               004eb1f8 f   kernel32:KERNEL32.dll
 0001:000ea1fe       _CreateFileA@28            004eb1fe f   kernel32:KERNEL32.dll
 0001:000ea204       _GetLastError@0            004eb204 f   kernel32:KERNEL32.dll
 0001:000ea20a       _GlobalFree@4              004eb20a f   kernel32:KERNEL32.dll
 0001:000ea210       _GlobalUnlock@4            004eb210 f   kernel32:KERNEL32.dll
 0001:000ea216       _GlobalLock@4              004eb216 f   kernel32:KERNEL32.dll
 0001:000ea21c       _GlobalAlloc@8             004eb21c f   kernel32:KERNEL32.dll
 0001:000ea222       _SetFilePointer@16         004eb222 f   kernel32:KERNEL32.dll
 0001:000ea228       _GetModuleHandleA@4        004eb228 f   kernel32:KERNEL32.dll
 0001:000ea22e       _WriteFile@20              004eb22e f   kernel32:KERNEL32.dll
 0001:000ea234       _GetStartupInfoA@4         004eb234 f   kernel32:KERNEL32.dll
 0001:000ea23a       _PostMessageA@16           004eb23a f   user32:USER32.dll
 0001:000ea240       _GetKeyState@4             004eb240 f   user32:USER32.dll
 0001:000ea246       _GetCaretBlinkTime@0       004eb246 f   user32:USER32.dll
 0001:000ea24c       _LoadCursorA@8             004eb24c f   user32:USER32.dll
 0001:000ea252       _GetAsyncKeyState@4        004eb252 f   user32:USER32.dll
 0001:000ea258       _DispatchMessageA@4        004eb258 f   user32:USER32.dll
 0001:000ea25e       _TranslateMessage@4        004eb25e f   user32:USER32.dll
 0001:000ea264       _PeekMessageA@20           004eb264 f   user32:USER32.dll
 0001:000ea26a       _wsprintfA                 004eb26a f   user32:USER32.dll
 0001:000ea270       _MapWindowPoints@16        004eb270 f   user32:USER32.dll
 0001:000ea276       _GetParent@4               004eb276 f   user32:USER32.dll
 0001:000ea27c       _AdjustWindowRectEx@16     004eb27c f   user32:USER32.dll
 0001:000ea282       _GetSystemMetrics@4        004eb282 f   user32:USER32.dll
 0001:000ea288       _ShowCursor@4              004eb288 f   user32:USER32.dll
 0001:000ea28e       _MessageBoxA@16            004eb28e f   user32:USER32.dll
 0001:000ea294       _SetRect@20                004eb294 f   user32:USER32.dll
 0001:000ea29a       _LoadImageA@24             004eb29a f   user32:USER32.dll
 0001:000ea2a0       _ClientToScreen@8          004eb2a0 f   user32:USER32.dll
 0001:000ea2a6       _GetClientRect@8           004eb2a6 f   user32:USER32.dll
 0001:000ea2ac       _IntersectRect@12          004eb2ac f   user32:USER32.dll
 0001:000ea2b2       _GetTextExtentExPointA@28  004eb2b2 f   gdi32:GDI32.dll
 0001:000ea2b8       _DeleteObject@4            004eb2b8 f   gdi32:GDI32.dll
 0001:000ea2be       _DeleteDC@4                004eb2be f   gdi32:GDI32.dll
 0001:000ea2c4       _StretchBlt@44             004eb2c4 f   gdi32:GDI32.dll
 0001:000ea2ca       _SelectObject@8            004eb2ca f   gdi32:GDI32.dll
 0001:000ea2d0       _CreateCompatibleDC@4      004eb2d0 f   gdi32:GDI32.dll
 0001:000ea2d6       _GetObjectA@12             004eb2d6 f   gdi32:GDI32.dll
 0001:000ea2dc       _LineTo@12                 004eb2dc f   gdi32:GDI32.dll
 0001:000ea2e2       _MoveToEx@16               004eb2e2 f   gdi32:GDI32.dll
 0001:000ea2e8       _CreatePen@12              004eb2e8 f   gdi32:GDI32.dll
 0001:000ea2ee       _Rectangle@20              004eb2ee f   gdi32:GDI32.dll
 0001:000ea2f4       _GetStockObject@4          004eb2f4 f   gdi32:GDI32.dll
 0001:000ea2fa       _Polygon@12                004eb2fa f   gdi32:GDI32.dll
 0001:000ea300       _TextOutA@20               004eb300 f   gdi32:GDI32.dll
 0001:000ea306       _SetTextAlign@8            004eb306 f   gdi32:GDI32.dll
 0001:000ea30c       _SetTextColor@8            004eb30c f   gdi32:GDI32.dll
 0001:000ea312       _SetBkMode@8               004eb312 f   gdi32:GDI32.dll
 0001:000ea318       _ShellExecuteA@24          004eb318 f   shell32:SHELL32.dll
 0001:000ea31e       ?PumpMessages@CSocket@@MAEHI@Z 004eb31e f   mfcn42d:MFCN42D.DLL
 0001:000ea324       ?OnMessagePending@CSocket@@MAEHXZ 004eb324 f   mfcn42d:MFCN42D.DLL
 0001:000ea32a       ?SendToHelper@CSocket@@MAEHPBXHPBUsockaddr@@HH@Z 004eb32a f   mfcn42d:MFCN42D.DLL
 0001:000ea330       ?ReceiveFromHelper@CSocket@@MAEHPAXHPAUsockaddr@@PAHH@Z 004eb330 f   mfcn42d:MFCN42D.DLL
 0001:000ea336       ?ConnectHelper@CSocket@@MAEHPBUsockaddr@@H@Z 004eb336 f   mfcn42d:MFCN42D.DLL
 0001:000ea33c       ?OnConnect@CAsyncSocket@@MAEXH@Z 004eb33c f   mfcn42d:MFCN42D.DLL
 0001:000ea342       ?OnAccept@CAsyncSocket@@MAEXH@Z 004eb342 f   mfcn42d:MFCN42D.DLL
 0001:000ea348       ?OnOutOfBandData@CAsyncSocket@@MAEXH@Z 004eb348 f   mfcn42d:MFCN42D.DLL
 0001:000ea34e       ?Send@CSocket@@UAEHPBXHH@Z 004eb34e f   mfcn42d:MFCN42D.DLL
 0001:000ea354       ?Receive@CSocket@@UAEHPAXHH@Z 004eb354 f   mfcn42d:MFCN42D.DLL
 0001:000ea35a       ?Close@CSocket@@UAEXXZ     004eb35a f   mfcn42d:MFCN42D.DLL
 0001:000ea360       ?Accept@CSocket@@UAEHAAVCAsyncSocket@@PAUsockaddr@@PAH@Z 004eb360 f   mfcn42d:MFCN42D.DLL
 0001:000ea366       ?Dump@CSocket@@MBEXAAVCDumpContext@@@Z 004eb366 f   mfcn42d:MFCN42D.DLL
 0001:000ea36c       ?AssertValid@CSocket@@MBEXXZ 004eb36c f   mfcn42d:MFCN42D.DLL
 0001:000ea372       ?GetRuntimeClass@CSocket@@UBEPAUCRuntimeClass@@XZ 004eb372 f   mfcn42d:MFCN42D.DLL
 0001:000ea378       ??1CSocket@@UAE@XZ         004eb378 f   mfcn42d:MFCN42D.DLL
 0001:000ea37e       ??0CSocket@@QAE@XZ         004eb37e f   mfcn42d:MFCN42D.DLL
 0001:000ea384       ?Receive@CAsyncSocket@@UAEHPAXHH@Z 004eb384 f   mfcn42d:MFCN42D.DLL
 0001:000ea38a       ?IOCtl@CAsyncSocket@@QAEHJPAK@Z 004eb38a f   mfcn42d:MFCN42D.DLL
 0001:000ea390       ?AsyncSelect@CAsyncSocket@@QAEHJ@Z 004eb390 f   mfcn42d:MFCN42D.DLL
 0001:000ea396       ?Send@CAsyncSocket@@UAEHPBXHH@Z 004eb396 f   mfcn42d:MFCN42D.DLL
 0001:000ea39c       ?Connect@CAsyncSocket@@QAEHPBDI@Z 004eb39c f   mfcn42d:MFCN42D.DLL
 0001:000ea3a2       ?Create@CSocket@@QAEHIHPBD@Z 004eb3a2 f   mfcn42d:MFCN42D.DLL
 0001:000ea3a8       ?AfxSocketInit@@YGHPAUWSAData@@@Z 004eb3a8 f   mfcn42d:MFCN42D.DLL
 0001:000ea3ae       ?AfxSocketTerm@@YGXXZ      004eb3ae f   mfcn42d:MFCN42D.DLL
 0001:000ea3c0       _CoUninitialize@0          004eb3c0 f   ole32:ole32.dll
 0001:000ea3c6       _CoCreateInstance@20       004eb3c6 f   ole32:ole32.dll
 0001:000ea3cc       _CoInitialize@4            004eb3cc f   ole32:ole32.dll
 0001:000ea3d2       _DirectDrawCreateClipper@12 004eb3d2 f   ddraw:DDRAW.dll
 0001:000ea3d8       _DirectDrawCreateEx@16     004eb3d8 f   ddraw:DDRAW.dll
 0001:000ea3e0       _WinMain@16                004eb3e0 f   mfcs42d:appmodul.obj
 0001:000ea400       ?AfxInitialize@@YGHHK@Z    004eb400 f   mfcs42d:appmodul.obj
 0001:000ea496       __itoa                     004eb496 f   msvcrtd:MSVCRTD.dll
 0001:000ea49c       __setmbcp                  004eb49c f   msvcrtd:MSVCRTD.dll
 0001:000ea4a2       ?AfxWinMain@@YGHPAUHINSTANCE__@@0PADH@Z 004eb4a2 f   mfc42d:MFC42D.DLL
 0001:000ea4a8       ?AfxGetModuleState@@YGPAVAFX_MODULE_STATE@@XZ 004eb4a8 f   mfc42d:MFC42D.DLL
 0001:000ea4b0       ?data@CPlex@@QAEPAXXZ      004eb4b0 f i ArmatureManager.obj
 0002:0000001c       ??_7_TILE_SUB_SET_DATA_TOOL@@6B@ 004f301c     _tile_sub_set_data_tool.obj
 0002:00000020       ??_7CArmature@@6B@         004f3020     Armature.obj
 0002:00000024       ??_7CArmatureManager@@6B@  004f3024     ArmatureManager.obj
 0002:00000028       ??_C@_0BA@EOKN@Failed?5?3?5?$CFd?5?$CFd?6?$AA@ 004f3028     ArmatureManager.obj
 0002:00000038       ??_C@_0BA@PJLI@Loaded?5?3?5?$CFd?5?$CFd?6?$AA@ 004f3038     ArmatureManager.obj
 0002:00000048       ??_C@_09BJLM@a?$CF01d?$CF03d?$AA@ 004f3048     ArmatureManager.obj
 0002:00000054       ??_C@_08JCMG@Armature?$AA@ 004f3054     ArmatureManager.obj
 0002:00000060       ??_C@_07JFCI@arm?4dat?$AA@ 004f3060     ArmatureManager.obj
 0002:00000068       ??_C@_09NFBJ@?$CFsa?$CFd?$CF03d?$AA@ 004f3068     ArmatureManager.obj
 0002:00000074       ??_C@_09NPML@ARMATURE?2?$AA@ 004f3074     ArmatureManager.obj
 0002:00000080       ??_7?$CMap@HHPAVARMATURE_RES@@PAV1@@@6B@ 004f3080     ArmatureManager.obj
 0002:00000094       ??_C@_01BJG@?6?$AA@        004f3094     ArmatureManager.obj
 0002:00000098       ??_C@_04MNLE@?$FN?5?$DN?5?$AA@ 004f3098     ArmatureManager.obj
 0002:000000a0       ??_C@_03DANH@?6?7?$FL?$AA@ 004f30a0     ArmatureManager.obj
 0002:000000a4       ??_C@_05KIFI@with?5?$AA@   004f30a4     ArmatureManager.obj
 0002:000000ac       ??_C@_09LOPF@?5elements?$AA@ 004f30ac     ArmatureManager.obj
 0002:000000b8       ??_7CArmatureRes@@6B@      004f30b8     ArmatureRes.obj
 0002:000000bc       ??_C@_0BE@KMNH@?$CFsman?2man?$CF03d?$CF02d?$CFs?$AA@ 004f30bc     ArmatureRes.obj
 0002:000000d0       ??_C@_04HOAE@?4ani?$AA@    004f30d0     ArmatureRes.obj
 0002:000000d8       ??_C@_0L@LMNJ@?$CFs?$CF02d?4spl?$AA@ 004f30d8     ArmatureRes.obj
 0002:000000e4       ??_7CArrow@@6B@            004f30e4     Arrow.obj
 0002:000000e8       __real@8@40008000000000000000 004f30e8     Arrow.obj
 0002:000000f0       __real@8@4006b400000000000000 004f30f0     Arrow.obj
 0002:000000f8       ??_C@_0O@EJDG@DIRECTION?5?$CFd?6?$AA@ 004f30f8     Arrow.obj
 0002:00000108       __real@8@00000000000000000000 004f3108     Arrow.obj
 0002:00000110       ??_C@_0BC@CKP@S?3?$CFd?5?$LA?f?$LH?N?$LI?$KG?5?$LB?$LI?G?T?6?$AA@ 004f3110     Arrow.obj
 0002:00000128       __real@8@4003a000000000000000 004f3128     Arrow.obj
 0002:00000130       __real@8@40048c00000000000000 004f3130     Arrow.obj
 0002:00000138       ??_C@_0O@FOKG@direction?5?$CFd?6?$AA@ 004f3138     Arrow.obj
 0002:00000148       ??_7CArrowManager@@6B@     004f3148     Arrow.obj
 0002:0000014c       ??_C@_09DFJO@LOADFAIL?6?$AA@ 004f314c     Arrow.obj
 0002:00000158       ??_C@_0BJ@KIK@?4?2magicres?2arrow?$CF03d?4spl?$AA@ 004f3158     Arrow.obj
 0002:00000174       ??_C@_0BJ@CHAE@?4?2magicres?2arrow?$CF03d?4ani?$AA@ 004f3174     Arrow.obj
 0002:00000190       ??_7?$CArray@VCPoint@@V1@@@6B@ 004f3190     Arrow.obj
 0002:000001a4       ??_7?$CArray@PAVCArrow@@PAV1@@@6B@ 004f31a4     Arrow.obj
 0002:000001b8       ??_7?$CMap@HHPAVCAniObjLSP@@PAV1@@@6B@ 004f31b8     Arrow.obj
 0002:000001fc       ??_7CBaseDraw@@6B@         004f31fc     BaseDraw.obj
 0002:00000200       ??_SCDDSurface@@6B@        004f3200     BaseDraw.obj
 0002:00000214       ??_C@_0P@NMLG@?$LI?J?$LH?N?$LF?y?$LN?C?$LA?$KD?5?$CFd?6?$AA@ 004f3214     BaseDraw.obj
 0002:00000224       ??_C@_0BL@BHJC@DrawBaseTile?3?$CFs?5?$MA?P?$MA?$LN?$CI?$CFld?$CJ?6?$AA@ 004f3224     BaseDraw.obj
 0002:00000240       ??_C@_08BLKF@?$CFs?5?$MA?P?$MA?$LN?6?$AA@ 004f3240     BaseDraw.obj
 0002:0000024c       ??_C@_03LLKB@bmp?$AA@      004f324c     BaseDraw.obj
 0002:00000250       ??_C@_03BIFK@obm?$AA@      004f3250     BaseDraw.obj
 0002:00000254       ??_C@_03HOMG@BMP?$AA@      004f3254     BaseDraw.obj
 0002:00000258       ??_C@_05HCO@house?$AA@     004f3258     BaseDraw.obj
 0002:00000260       ??_C@_0M@MFKC@map?2object?2?$AA@ 004f3260     BaseDraw.obj
 0002:0000026c       ??_C@_0BN@FJPK@DrawChangeTile?3?$CFs?5?$MA?P?$MA?$LN?$CI?$CFld?$CJ?6?$AA@ 004f326c     BaseDraw.obj
 0002:0000028c       ??_7BB_CircularBuffer@@6B@ 004f328c     BB_CircularBuffer.obj
 0002:00000290       ??_7BB_Socket@@6B@         004f3290     BB_Socket.obj
 0002:000002e0       ??_C@_0BF@JMPJ@?$LF?$KF?$MA?L?E?M?5?C?$LD?$LI?$KO?5Missing?6?$AA@ 004f32e0     BB_Socket.obj
 0002:000002f8       ??_C@_0BL@PCBL@?$LM?v?$LN?E?$LK?N?5OnReceive?5?$LP?$KB?$LH?$KP?$LJ?$NP?$LL?$PN?6?$AA@ 004f32f8     BB_Socket.obj
 0002:00000314       ??_C@_0CH@IFCO@d?3?2soma?2somaclient?2bb_circularbu@ 004f3314     BB_Socket.obj
 0002:0000033c       ??_C@_0CH@EFAH@BB_CircularBuffer?3?3PutData?5len?5i@ 004f333c     BB_Socket.obj
 0002:00000364       ??_C@_0CA@OMDM@?$LM?$KN?$LJ?v?$LP?M?$MA?G?5?$LP?$KM?$LA?a?$MA?L?5?A?$LO?$LH?a?$LF?G?$LO?z?$LN?$MA?$LE?O?$LE?Y?4?$AA@ 004f3364     BB_Socket.obj
 0002:00000384       ??_C@_0BJ@PMFE@?$LM?$NL?$LN?E?$LK?N?5ErrorCode?$LJ?$NP?$LL?$PN?5?$CFd?6?$AA@ 004f3384     BB_Socket.obj
 0002:000003a0       ??_C@_0BP@IOGE@?$LM?$KN?$LJ?v?$LP?M?$MA?G?5?$LP?$KM?$LA?a?$MA?L?5?A?A?A?v?5?$LO?J?$LN?$MA?$LE?O?$LE?Y?4?$AA@ 004f33a0     BB_Socket.obj
 0002:000003c0       ??_C@_0BP@BKKC@d?3?2soma?2somaclient?2socketmng?4h?$AA@ 004f33c0     BB_Socket.obj
 0002:000003e0       ??_7DataPack@@6B@          004f33e0     BB_Socket.obj
 0002:000003e8       ?messageMap@BBDX_ChatEditor@@1UAFX_MSGMAP@@B 004f33e8     BBDX_ChatEditor.obj
 0002:000003f0       ?_messageEntries@BBDX_ChatEditor@@0QBUAFX_MSGMAP_ENTRY@@B 004f33f0     BBDX_ChatEditor.obj
 0002:00000408       ??_7BBDX_ChatEditor@@6B@   004f3408     BBDX_ChatEditor.obj
 0002:000004d0       ??_C@_00A@?$AA@            004f34d0     BBDX_ChatEditor.obj
 0002:000004d4       ??_7BBDX_ChatOuter@@6B@    004f34d4     BBDX_ChatOuter.obj
 0002:000004d8       ??_C@_07CBOB@2?5?9?5?$CFd?6?$AA@ 004f34d8     BBDX_ChatOuter.obj
 0002:000004e0       ??_C@_07FCFP@1?5?9?5?$CFd?6?$AA@ 004f34e0     BBDX_ChatOuter.obj
 0002:000004e8       ??_C@_07MGJM@4?5?9?5?$CFd?6?$AA@ 004f34e8     BBDX_ChatOuter.obj
 0002:000004f0       ??_C@_07PHE@3?5?9?5?$CFd?6?$AA@ 004f34f0     BBDX_ChatOuter.obj
 0002:000004f8       ??_C@_07LFCC@7?5?9?5?$CFd?6?$AA@ 004f34f8     BBDX_ChatOuter.obj
 0002:00000500       ??_C@_07JLLH@6?5?9?5?$CFd?6?$AA@ 004f3500     BBDX_ChatOuter.obj
 0002:00000508       ??_C@_07OIAJ@5?5?9?5?$CFd?6?$AA@ 004f3508     BBDX_ChatOuter.obj
 0002:00000510       ??_C@_07IGH@8?5?9?5?$CFd?6?$AA@ 004f3510     BBDX_ChatOuter.obj
 0002:00000518       ??_C@_07CGPC@9?5?9?5?$CFd?6?$AA@ 004f3518     BBDX_ChatOuter.obj
 0002:00000520       ??_C@_08LDNP@10?5?9?5?$CFd?6?$AA@ 004f3520     BBDX_ChatOuter.obj
 0002:0000052c       ??_C@_08JNEK@11?5?9?5?$CFd?6?$AA@ 004f352c     BBDX_ChatOuter.obj
 0002:00000538       ??_C@_08OOPE@12?5?9?5?$CFd?6?$AA@ 004f3538     BBDX_ChatOuter.obj
 0002:00000544       ??_C@_02COF@?$DM?5?$AA@    004f3544     BBDX_ChatOuter.obj
 0002:00000548       ??_C@_02CPLA@?$DO?5?$AA@   004f3548     BBDX_ChatOuter.obj
 0002:0000054c       ??_7?$CArray@HH@@6B@       004f354c     BBDX_ChatOuter.obj
 0002:00000560       ??_7?$CList@HH@@6B@        004f3560     BBDX_ChatOuter.obj
 0002:00000578       ?messageMap@BBDX_Editor@@1UAFX_MSGMAP@@B 004f3578     BBDX_Editor.obj
 0002:00000580       ?_messageEntries@BBDX_Editor@@0QBUAFX_MSGMAP_ENTRY@@B 004f3580     BBDX_Editor.obj
 0002:00000640       ??_7BBDX_Editor@@6B@       004f3640     BBDX_Editor.obj
 0002:00000708       ??_C@_04HJOF@?$LB?$LM?$LI?$LC?$AA@ 004f3708     BBDX_Editor.obj
 0002:00000710       ??_C@_01FCOA@?5?$AA@       004f3710     BBDX_Editor.obj
 0002:00000714       ??_C@_01FNLH@a?$AA@        004f3714     BBDX_Editor.obj
 0002:00000718       ??_7BBDX_TextOuter@@6B@    004f3718     BBDX_TextOuter.obj
 0002:0000071c       ??_C@_0EA@PCNG@BBDX_TextOuter?8s?5split?5width?5is?5@ 004f371c     BBDX_TextOuter.obj
 0002:0000075c       ??_7BBDX_TextOuterWithScroll@@6B@ 004f375c     BBDX_TextOuterWithScroll.obj
 0002:00000764       ??_7CBlood@@6B@            004f3764     Blood.obj
 0002:00000768       ??_C@_0CE@FNGK@BLOOD?5RES?5LOAD?5FAIL?0?5BLOODKIND?3?$CF@ 004f3768     Blood.obj
 0002:0000078c       ??_7?$CArray@PAU_TAG_BLOOD_INFO@@PAU1@@@6B@ 004f378c     Blood.obj
 0002:000007a0       ??_7?$CMap@HHPAVCBloodRes@@PAV1@@@6B@ 004f37a0     Blood.obj
 0002:000007b4       ??_7CBloodRes@@6B@         004f37b4     BloodRes.obj
 0002:000007b8       ??_7?$CTypedPtrArray@VCPtrArray@@PAG@@6B@ 004f37b8     BloodRes.obj
 0002:000007cc       ??_7?$CTypedPtrArray@VCPtrArray@@PAU_SPR_LSP@@@@6B@ 004f37cc     BloodRes.obj
 0002:000007e0       ??_C@_0N@NDPN@?$CFs?5Load?$LN?G?F?P?6?$AA@ 004f37e0     BloodRes.obj
 0002:000007f0       ??_C@_0BJ@PKNH@?4?2magicres?2blood?$CF03d?4spl?$AA@ 004f37f0     BloodRes.obj
 0002:0000080c       ??_7CBuildHouseManager@@6B@ 004f380c     BuildHouseManager.obj
 0002:00000810       ??_7CCharManager@@6B@      004f3810     CharManager.obj
 0002:00000814       ??_C@_0BA@BL@Failed?5Man?3?5?$CFd?6?$AA@ 004f3814     CharManager.obj
 0002:00000824       ??_C@_0BA@LHAO@Loaded?5Man?3?5?$CFd?6?$AA@ 004f3824     CharManager.obj
 0002:00000834       ??_C@_03DKOE@Man?$AA@      004f3834     CharManager.obj
 0002:00000838       ??_C@_07FPFO@man?4dat?$AA@ 004f3838     CharManager.obj
 0002:00000840       ??_7?$CMap@HHPAVCHAR_RES@@PAV1@@@6B@ 004f3840     CharManager.obj
 0002:00000854       ??_7CCharRes@@6B@          004f3854     CharRes.obj
 0002:00000858       ??_C@_04FDIK@?4spl?$AA@    004f3858     CharRes.obj
 0002:00000860       ??_C@_0BG@KBBI@?5?$CFd?5?$LJ?x?5?$MA?P?$MA?$LK?5?$LN?C?$LA?$KD?5?$CFd?4?6?$AA@ 004f3860     CharRes.obj
 0002:00000878       ?messageMap@CChildView@@1UAFX_MSGMAP@@B 004f3878     ChildView.obj
 0002:00000880       ?_messageEntries@CChildView@@0QBUAFX_MSGMAP_ENTRY@@B 004f3880     ChildView.obj
 0002:00000ad8       ??_7CChildView@@6B@        004f3ad8     ChildView.obj
 0002:00000b98       ??_C@_0N@JCAD@sDefault?4lib?$AA@ 004f3b98     ChildView.obj
 0002:00000ba8       ??_C@_0M@DNGG@Default?4lib?$AA@ 004f3ba8     ChildView.obj
 0002:00000bb4       ??_C@_08KGLJ@MainMode?$AA@ 004f3bb4     ChildView.obj
 0002:00000bc0       ??_C@_0O@CGCG@Gamma?5Control?$AA@ 004f3bc0     ChildView.obj
 0002:00000bd0       ??_C@_0N@FBBG@Music?5Volume?$AA@ 004f3bd0     ChildView.obj
 0002:00000be0       ??_C@_07ILHE@Setting?$AA@  004f3be0     ChildView.obj
 0002:00000be8       ??_C@_0N@DCLE@Sound?5Volume?$AA@ 004f3be8     ChildView.obj
 0002:00000bf8       ??_C@_09EPGC@music?4dat?$AA@ 004f3bf8     ChildView.obj
 0002:00000c04       ??_C@_05LFIN@?$CFd?7?$CFs?$AA@ 004f3c04     ChildView.obj
 0002:00000c0c       ??_C@_09MIDG@sound?4dat?$AA@ 004f3c0c     ChildView.obj
 0002:00000c18       ??_C@_0L@NMED@MapPos?4dat?$AA@ 004f3c18     ChildView.obj
 0002:00000c24       ??_C@_0CE@EANH@?$LE?Y?$MA?L?$LH?$LK?F?$KO?5?$LP?$KC?$LN?$LK?5?$LI?$LI?$LF?e?$LE?B?5?$LF?$KF?5?$LN?G?F?P?G?$NP?$LE?Y@ 004f3c24     ChildView.obj
 0002:00000c48       ??_C@_0DG@IGPK@DirectX?57?40?5?$MA?L?$LL?s?$MA?$LL?5?$LM?$LD?D?$KB?G?O?$LN?C?$LA?m?5?$LE?Y@ 004f3c48     ChildView.obj
 0002:00000c80       ??_C@_0FM@OMOF@?G?v?$MA?g?5DirectX?56?41?$MA?L?5?$LM?$LD?D?$KB?$LF?G?$LO?n?5?$MA?V?$LN?$MA@ 004f3c80     ChildView.obj
 0002:00000cdc       ??_C@_0FM@ONJK@?G?v?$MA?g?5DirectX?56?40?$MA?L?5?$LM?$LD?D?$KB?$LF?G?$LO?n?5?$MA?V?$LN?$MA@ 004f3cdc     ChildView.obj
 0002:00000d38       ??_C@_0FM@GMHJ@?G?v?$MA?g?5DirectX?55?40?$MA?L?5?$LM?$LD?D?$KB?$LF?G?$LO?n?5?$MA?V?$LN?$MA@ 004f3d38     ChildView.obj
 0002:00000d94       ??_C@_0FM@GPLP@?G?v?$MA?g?5DirectX?53?40?$MA?L?5?$LM?$LD?D?$KB?$LF?G?$LO?n?5?$MA?V?$LN?$MA@ 004f3d94     ChildView.obj
 0002:00000df0       ??_C@_0FM@OPBO@?G?v?$MA?g?5DirectX?52?40?$MA?L?5?$LM?$LD?D?$KB?$LF?G?$LO?n?5?$MA?V?$LN?$MA@ 004f3df0     ChildView.obj
 0002:00000e4c       ??_C@_0FM@GOPN@?G?v?$MA?g?5DirectX?51?40?$MA?L?5?$LM?$LD?D?$KB?$LF?G?$LO?n?5?$MA?V?$LN?$MA@ 004f3e4c     ChildView.obj
 0002:00000ea8       ??_C@_0FN@IDKD@?G?v?$MA?g?5DirectX?$LA?$KB?5?$LM?$LD?D?$KB?$LF?G?$LO?n?5?$MA?V?A?v?5?$LO?J?$LN@ 004f3ea8     ChildView.obj
 0002:00000f08       ??_C@_0BP@MKMD@FPS?3?5?$CFd?0?5X?3?5?$CFd?0?5Y?3?5?$CFd?5Area?3?5?$CFd?$AA@ 004f3f08     ChildView.obj
 0002:00000f28       ??_C@_05LHJH@?C?$LF?$LF?U?6?$AA@ 004f3f28     ChildView.obj
 0002:00000f30       ??_C@_02DILL@?$CFs?$AA@    004f3f30     ChildView.obj
 0002:00000f34       ??_C@_0CB@GCOP@?$LA?$KB?$LM?S?$LB?b?$LE?I?$MA?$LL?5?$LI?x?$LO?$LF?$LG?$KH?$MA?G?5?$LJ?c?$LD?$LH?5?C?$LD?$LI?$KO?$LP?d?6@ 004f3f34     ChildView.obj
 0002:00000f58       ??_C@_0BK@MLHG@BackLoading?3?$CFs?5?$MA?P?$MA?$LN?$CI?$CFld?$CJ?6?$AA@ 004f3f58     ChildView.obj
 0002:00000f74       ??_C@_0BO@GEH@?$LI?$LG?$LJ?$PN?5?E?W?$MA?L?$LK?m?5?$LJ?x?H?$KD?3?$CFd?5?F?P?E?$LG?3?$CFd?5?6?$AA@ 004f3f74     ChildView.obj
 0002:00000f94       ??_C@_0BE@OKH@?$LM?$LD?A?$KE?$LF?H?5?$LI?$LG?$LJ?$PN?$MA?L?5?$LO?x?$LE?Y?6?$AA@ 004f3f94     ChildView.obj
 0002:00000fa8       ??_C@_0BB@JDC@?$MA?g?$LH?a?$LI?$KG?5?E?$KM?$LI?$KP?G?$NP?$LE?Y?4?$AA@ 004f3fa8     ChildView.obj
 0002:00000fbc       ??_C@_0BI@HGED@?$LL?g?$LP?k?5?$LO?F?$MA?L?E?$NL?$MA?$LL?5?E?$KM?$LI?$KP?G?$NP?$LE?Y?4?$AA@ 004f3fbc     ChildView.obj
 0002:00000fd4       ??_C@_06NAON@S_Load?$AA@   004f3fd4     ChildView.obj
 0002:00000fdc       ??_C@_01GJD@?9?$AA@        004f3fdc     ChildView.obj
 0002:00000fe0       ??_C@_0P@CGIG@?$LM?$PN?$MA?Z?$LA?$KB?$LO?F?$LE?O?$LE?Y?4?6?$AA@ 004f3fe0     ChildView.obj
 0002:00000ff0       ??_C@_0CN@EACL@?$LM?$PN?$MA?Z?$LI?$LI?5?$LL?g?$LP?k?G?R?$LM?v?5?$MA?V?$LN?$MA?$LE?O?$LE?Y?4?6?$LP?$KD?E?M?E?$LA@ 004f3ff0     ChildView.obj
 0002:00001020       ??_C@_0L@KNKB@?G?Q?$LB?$NL?$MA?L?$LE?Y?4?6?$AA@ 004f4020     ChildView.obj
 0002:0000102c       ??_C@_0CN@GDOI@?G?Q?$LB?$NL?$MA?$LK?5?$LL?g?$LP?k?G?R?$LM?v?5?$LO?x?$LN?$MA?$LE?O?$LE?Y?4?6?$LP?$KD?E?M?E?$LA@ 004f402c     ChildView.obj
 0002:0000105c       ??_C@_0L@PABE@NewAcc?4lib?$AA@ 004f405c     ChildView.obj
 0002:00001068       ??_C@_0CP@BGOG@?$MA?L?$LJ?L?$LL?g?$LP?k?A?$NP?$MA?N?5?$LO?F?$MA?L?$LF?p?$MA?T?$LE?O?$LE?Y?4?6?5?$LP?$KD?E?M@ 004f4068     ChildView.obj
 0002:00001098       ??_C@_0CL@GPFD@?$LK?q?$LJ?P?$LJ?x?H?$KD?$LA?$KB?5?F?$LC?$LH?H?$LN?$MA?$LE?O?$LE?Y?4?6?5?$LP?$KD?E?M?E?$LA?$LI?$KG@ 004f4098     ChildView.obj
 0002:000010c4       ??_C@_0CI@PDJC@?$LJ?L?$LF?n?$LH?O?5?$LO?F?$MA?L?$LF?p?$MA?T?$LE?O?$LE?Y?6?5?$LP?$KD?E?M?E?$LA?$LI?$KG?5?$LE?$KJ@ 004f40c4     ChildView.obj
 0002:000010ec       ??_C@_0CP@MEEI@?$LM?$LK?$LA?x?$MA?$PL?$MA?$LI?$LH?N?5?$LF?n?$LH?O?$LF?G?$LO?z?$LN?$MA?$LE?O?$LE?Y?4?6?5?$LP?$KD?E?M@ 004f40ec     ChildView.obj
 0002:0000111c       ??_C@_0CF@DFBF@?$MA?L?$LI?$KH?$LA?z?5?A?V?$LJ?N?$LF?n?$LH?O?$LJ?x?H?$KD?6?$LI?p?$LF?N?5?$LD?V?$LO?n?A?V?$LM@ 004f411c     ChildView.obj
 0002:00001144       ??_C@_0CE@BOKF@?5?5?5?5?5?5?$LI?p?$LF?g?5?A?$KE?$LK?$LI?$LI?$KG?6?5?5?5?5?5?5?C?$KE?$LP?v?A?V?$LM?$LM@ 004f4144     ChildView.obj
 0002:00001168       ??_C@_0EA@PNLF@?$LK?q?$LJ?P?$LJ?x?H?$KD?$LP?M?5?$LK?q?$LJ?P?$LJ?x?H?$KD?6?H?$KO?$MA?N?$MA?L?5?$LM?$KN?$LH?N?5@ 004f4168     ChildView.obj
 0002:000011a8       ??_C@_0DG@ONLH@http?3?1?1www?4netsoma?4com?1membershi@ 004f41a8     ChildView.obj
 0002:000011e0       ??_C@_04KHOB@open?$AA@     004f41e0     ChildView.obj
 0002:000011e8       ??_C@_0N@EPAJ@Iexplore?4exe?$AA@ 004f41e8     ChildView.obj
 0002:000011f8       ??_C@_0DD@FIEA@http?3?1?1www?4netsoma?4com?1membershi@ 004f41f8     ChildView.obj
 0002:0000122c       ??_C@_0CG@EDFM@?$LO?F?$MA?L?$LF?p?$LP?M?5?F?P?$LN?$LK?$LP?v?$LF?e?$LI?$KG?6?$LI?p?$LF?N?5?$LD?V?$LO?n?5?A?V@ 004f422c     ChildView.obj
 0002:00001254       ??_C@_0BN@LFHE@?$LL?g?$LP?k?G?R?5?$LM?v?5?$LO?x?$LE?B?5?$LO?F?$MA?L?$LF?p?$MA?T?$LE?O?$LE?Y?4?$AA@ 004f4254     ChildView.obj
 0002:00001274       ??_C@_0M@EMOA@Account?4lib?$AA@ 004f4274     ChildView.obj
 0002:00001280       ??_C@_0BK@JPNM@?$MA?L?$LJ?L?5?$LF?n?$LH?O?$LF?H?5?$LO?F?$MA?L?$LF?p?$MA?T?$LE?O?$LE?Y?4?$AA@ 004f4280     ChildView.obj
 0002:0000129c       ??_C@_0BF@JIKB@?$LO?F?$MA?L?$LF?p?$LI?$KG?5?$MA?T?$LH?B?G?O?$LM?$LM?$LP?d?4?$AA@ 004f429c     ChildView.obj
 0002:000012b4       ??_C@_0CB@LCHN@Points?5?$LK?P?$LJ?h?$LA?$KB?5?$LD?$KB?$LD?$KK?A?v?5?$LO?J?$LO?R?$LN?$MA?$LE?O?$LE?Y?4@ 004f42b4     ChildView.obj
 0002:000012d8       ??_C@_0BH@KBMI@?A?$KE?$LI?$LL?5?$LL?h?A?$KG?G?O?$LN?C?$LA?Z?$LN?$MA?$LE?O?$LB?n?$DP?$AA@ 004f42d8     ChildView.obj
 0002:000012f0       ??_C@_0N@JLCM@s_NewCha?4lib?$AA@ 004f42f0     ChildView.obj
 0002:00001300       ??_C@_0M@GHBA@s_login?4lib?$AA@ 004f4300     ChildView.obj
 0002:00001310       __real@8@4003c000000000000000 004f4310     ChildView.obj
 0002:00001318       __real@8@bffe8000000000000000 004f4318     ChildView.obj
 0002:00001320       __real@8@3ffe8000000000000000 004f4320     ChildView.obj
 0002:00001328       ??_C@_0CG@GLEO@?A?v?A?$KE?G?Q?5?F?D?$MA?O?5?$CFs?$LI?$KG?5?$MA?P?$MA?$LL?5?$LM?v?5?$LO?x?$LO?z?$LN?$MA?$LE@ 004f4328     ChildView.obj
 0002:00001350       ??_C@_08GFOD@item?4idx?$AA@ 004f4350     ChildView.obj
 0002:0000135c       ??_C@_0BH@DEGE@DrawTile?3?$CFs?5?$MA?P?$MA?$LN?$CI?$CFld?$CJ?6?$AA@ 004f435c     ChildView.obj
 0002:00001374       ??_C@_0BL@GKGJ@?$LM?R?$LI?$LG?$LH?B?5?$CFd?$LD?b?5?$CFd?$LP?y?5?$CFd?$MA?O?5?$CFd?$LN?C?$AA@ 004f4374     ChildView.obj
 0002:00001390       ??_C@_0BE@PAPM@Free?5video?5memory?5?3?$AA@ 004f4390     ChildView.obj
 0002:000013a4       ??_C@_0BF@HAAM@Total?5video?5memory?5?3?$AA@ 004f43a4     ChildView.obj
 0002:000013bc       ??_C@_0BG@JECP@Total?5system?5memory?5?3?$AA@ 004f43bc     ChildView.obj
 0002:000013d4       ??_C@_0BH@LCBA@Free?5Physical?5Memory?5?3?$AA@ 004f43d4     ChildView.obj
 0002:000013ec       ??_C@_03JGDF@?5KB?$AA@     004f43ec     ChildView.obj
 0002:000013f0       ??_C@_03KOCH@bld?$AA@      004f43f0     ChildView.obj
 0002:000013f4       ??_C@_0BM@PBDE@BackLoadingEx?3?$CFs?5?$MA?P?$MA?$LN?$CI?$CFld?$CJ?6?$AA@ 004f43f4     ChildView.obj
 0002:00001410       ??_C@_0BC@IKHH@?$CFs?5?$LK?$LI?$LD?$LP?$CI?$CFld?0?$CFld?$CJ?6?$AA@ 004f4410     ChildView.obj
 0002:00001428       __real@8@40048000000000000000 004f4428     ChildView.obj
 0002:00001430       ??_C@_0BD@NDCK@DirectDrawCreateEx?$AA@ 004f4430     ChildView.obj
 0002:00001444       ??_C@_0CE@FJIP@Couldn?8t?5create?5CLSID_DirectMusi@ 004f4444     ChildView.obj
 0002:00001468       ??_C@_0BJ@JFAA@Couldn?8t?5CreateSurface?$AN?6?$AA@ 004f4468     ChildView.obj
 0002:00001484       ??_C@_0BK@EJJB@Couldn?8t?5Set?5coop?5level?$AN?6?$AA@ 004f4484     ChildView.obj
 0002:000014a0       ??_C@_0BF@PMJP@Couldn?8t?5QI?5DDraw2?$AN?6?$AA@ 004f44a0     ChildView.obj
 0002:000014b8       ??_C@_0BI@DKND@Couldn?8t?5create?5DDraw?$AN?6?$AA@ 004f44b8     ChildView.obj
 0002:000014d0       ??_C@_0BN@IKPG@Couldn?8t?5LoadLibrary?5DDraw?$AN?6?$AA@ 004f44d0     ChildView.obj
 0002:000014f0       ??_C@_0BB@DLNE@DirectDrawCreate?$AA@ 004f44f0     ChildView.obj
 0002:00001504       ??_C@_09LLMO@DDRAW?4DLL?$AA@ 004f4504     ChildView.obj
 0002:00001510       ??_C@_0CH@KDJF@Couldn?8t?5GetProcAddress?5DInputCr@ 004f4510     ChildView.obj
 0002:00001538       ??_C@_0BD@NJCB@DirectInputCreateA?$AA@ 004f4538     ChildView.obj
 0002:0000154c       ??_C@_0BO@FIMG@Couldn?8t?5LoadLibrary?5DInput?$AN?6?$AA@ 004f454c     ChildView.obj
 0002:0000156c       ??_C@_0L@MNJD@DINPUT?4DLL?$AA@ 004f456c     ChildView.obj
 0002:00001578       ??_7?$CArray@UTAG_LIGHT_INFO@@U1@@@6B@ 004f4578     ChildView.obj
 0002:0000158c       ??_7?$CMap@HHPADAAPAD@@6B@ 004f458c     ChildView.obj
 0002:000015a0       ??_7CDialog_AccountLogin@@6B@ 004f45a0     Dialog_AccountLogin.obj
 0002:000015f4       ??_C@_0L@HKJG@LButtonUp?6?$AA@ 004f45f4     Dialog_AccountLogin.obj
 0002:00001600       ??_C@_0N@EPMN@LButtonDown?6?$AA@ 004f4600     Dialog_AccountLogin.obj
 0002:00001610       ??_C@_06FNHI@soma14?$AA@   004f4610     Dialog_AccountLogin.obj
 0002:00001618       ??_7CDialog_AuctionBuy@@6B@ 004f4618     Dialog_Auctionbuy.obj
 0002:0000166c       ??_7?$CTypedPtrArray@VCPtrArray@@PAVITEM_AUCTION@@@@6B@ 004f466c     Dialog_Auctionbuy.obj
 0002:00001680       ??_C@_0L@BEPC@Auct?9B?4lib?$AA@ 004f4680     Dialog_Auctionbuy.obj
 0002:0000168c       ??_C@_03JGAL@?$CFlu?$AA@   004f468c     Dialog_Auctionbuy.obj
 0002:00001690       ??_C@_02MECO@?$CFd?$AA@    004f4690     Dialog_Auctionbuy.obj
 0002:00001694       ??_C@_0BD@LHLO@?$MA?L?$LI?$KH?3?$CFs?6?G?v?$MA?g?$LA?$KB?3?$CFlu?$AA@ 004f4694     Dialog_Auctionbuy.obj
 0002:000016a8       ??_C@_0BH@GJFH@?$MA?L?$LI?$KH?3?$CFs?$CI?$LD?$LC?$CJ?6?G?v?$MA?g?$LA?$KB?3?$CFlu?$AA@ 004f46a8     Dialog_Auctionbuy.obj
 0002:000016c0       ??_C@_0BH@IEJO@?$MA?L?$LI?$KH?3?$CFs?$CI?$LP?$KJ?$CJ?6?G?v?$MA?g?$LA?$KB?3?$CFlu?$AA@ 004f46c0     Dialog_Auctionbuy.obj
 0002:00001748       ??_7CDialog_AuctionDetail@@6B@ 004f4748     Dialog_AuctionDetail.obj
 0002:0000179c       ??_C@_08PLAC@?6?$LA?$LD?$LM?v?3?$CFd?$AA@ 004f479c     Dialog_AuctionDetail.obj
 0002:000017a8       ??_C@_0L@PLJJ@?6?$LD?$LL?$LB?$LI?$LH?B?3?$CFd?$AA@ 004f47a8     Dialog_AuctionDetail.obj
 0002:000017b4       ??_C@_04MOFI@?$CFs?$CFd?$AA@ 004f47b4     Dialog_AuctionDetail.obj
 0002:000017bc       ??_C@_05HP@?$CFs?$CL?$CFd?$AA@ 004f47bc     Dialog_AuctionDetail.obj
 0002:000017c4       ??_C@_01KMAE@?0?$AA@       004f47c4     Dialog_AuctionDetail.obj
 0002:000017c8       ??_C@_0DK@MEJA@?6?$MA?$KH?$LH?B?3?$CFd?$HO?$CFd?5?$LD?$LL?$LB?$LI?$LH?B?3?$CFd?6?G?J?$LP?dStr?3?$CFd@ 004f47c8     Dialog_AuctionDetail.obj
 0002:00001804       ??_C@_0CO@PDDD@?6?$LJ?f?$LO?n?$LH?B?3?$CFd?$HO?$CFd?5?$LD?$LL?$LB?$LI?$LH?B?3?$CFd?6?G?J?$LP?dStr?3@ 004f4804     Dialog_AuctionDetail.obj
 0002:00001834       ??_C@_0L@MNOD@?$CFs?5?A?$LO?$LH?y?3?$CFs?$AA@ 004f4834     Dialog_AuctionDetail.obj
 0002:00001840       ??_C@_0P@LEBC@?$CFs?$CI?$LD?$LC?$CJ?5?A?$LO?$LH?y?3?$CFs?$AA@ 004f4840     Dialog_AuctionDetail.obj
 0002:00001850       ??_C@_0P@FICD@?$CFs?$CI?$LP?$KJ?$CJ?5?A?$LO?$LH?y?3?$CFs?$AA@ 004f4850     Dialog_AuctionDetail.obj
 0002:00001860       ??_C@_0L@NECN@Auct?9D?4lib?$AA@ 004f4860     Dialog_AuctionDetail.obj
 0002:00001888       ??_7CDialog_AuctionSell@@6B@ 004f4888     Dialog_AuctionSell.obj
 0002:000018dc       ??_7?$CTypedPtrArray@VCPtrArray@@PAVITEM_DETAIL@@@@6B@ 004f48dc     Dialog_AuctionSell.obj
 0002:000018f0       ??_C@_06ONMJ@?$CFs?$CI?$LD?$LC?$CJ?$AA@ 004f48f0     Dialog_AuctionSell.obj
 0002:000018f8       ??_C@_06NBCE@?$CFs?$CI?$LP?$KJ?$CJ?$AA@ 004f48f8     Dialog_AuctionSell.obj
 0002:00001900       ??_C@_0N@PJOM@?$CFs?6?$LD?$LL?$LB?$LI?$LH?B?3?$CFd?$AA@ 004f4900     Dialog_AuctionSell.obj
 0002:00001910       ??_C@_0BB@CABK@?$CFs?$CI?$LD?$LC?$CJ?6?$LD?$LL?$LB?$LI?$LH?B?3?$CFd?$AA@ 004f4910     Dialog_AuctionSell.obj
 0002:00001924       ??_C@_0BB@OJAB@?$CFs?$CI?$LP?$KJ?$CJ?6?$LD?$LL?$LB?$LI?$LH?B?3?$CFd?$AA@ 004f4924     Dialog_AuctionSell.obj
 0002:00001938       ??_C@_0DM@IKCO@?$CFs?6?$MA?$KH?$LH?B?3?$CFd?$HO?$CFd?5?$LD?$LL?$LB?$LI?$LH?B?3?$CFd?6?G?J?$LP?dStr?3@ 004f4938     Dialog_AuctionSell.obj
 0002:00001974       ??_C@_0EA@LEOB@?$CFs?$CI?$LD?$LC?$CJ?6?$MA?$KH?$LH?B?3?$CFd?$HO?$CFd?5?$LD?$LL?$LB?$LI?$LH?B?3?$CFd?6?G?J?$LP?d@ 004f4974     Dialog_AuctionSell.obj
 0002:000019b4       ??_C@_0EA@JHJM@?$CFs?$CI?$LP?$KJ?$CJ?6?$MA?$KH?$LH?B?3?$CFd?$HO?$CFd?5?$LD?$LL?$LB?$LI?$LH?B?3?$CFd?6?G?J?$LP?d@ 004f49b4     Dialog_AuctionSell.obj
 0002:000019f4       ??_C@_0DA@JJDH@?$CFs?6?$LJ?f?$LO?n?$LH?B?3?$CFd?$HO?$CFd?5?$LD?$LL?$LB?$LI?$LH?B?3?$CFd?6?G?J?$LP?dSt@ 004f49f4     Dialog_AuctionSell.obj
 0002:00001a24       ??_C@_0DE@IOLF@?$CFs?$CI?$LD?$LC?$CJ?6?$LJ?f?$LO?n?$LH?B?3?$CFd?$HO?$CFd?5?$LD?$LL?$LB?$LI?$LH?B?3?$CFd?6?G?J@ 004f4a24     Dialog_AuctionSell.obj
 0002:00001a58       ??_C@_0DE@HCDH@?$CFs?$CI?$LP?$KJ?$CJ?6?$LJ?f?$LO?n?$LH?B?3?$CFd?$HO?$CFd?5?$LD?$LL?$LB?$LI?$LH?B?3?$CFd?6?G?J@ 004f4a58     Dialog_AuctionSell.obj
 0002:00001a8c       ??_C@_0L@LGIC@Auct?9S?4lib?$AA@ 004f4a8c     Dialog_AuctionSell.obj
 0002:00001a98       ??_7CDialog_BlackMagic@@6B@ 004f4a98     Dialog_BlackMagic.obj
 0002:00001aec       ??_C@_0CH@KDAN@?$CFs?6?$LA?E?$LI?$KO?5?$CFd?5?A?v?$LM?S?$LN?C?$LA?$KD?5?$CFd?6?$MA?$KH?$LH?B?5?$CFd?5?$LN@ 004f4aec     Dialog_BlackMagic.obj
 0002:00001b14       ??_C@_0BL@HGLO@?$CFs?6?$LA?E?$LI?$KO?5?$CFd?5?$MA?$KH?$LH?B?5?$CFd?5?$LN?I?$LH?B?5?$CFd?$AA@ 004f4b14     Dialog_BlackMagic.obj
 0002:00001b30       ??_C@_0M@MKND@Magic?9D?4lib?$AA@ 004f4b30     Dialog_BlackMagic.obj
 0002:00001b3c       ??_7CDialog_BlueMagic@@6B@ 004f4b3c     Dialog_BlueMagic.obj
 0002:00001b90       ??_C@_0M@KAM@Magic?9B?4lib?$AA@ 004f4b90     Dialog_BlueMagic.obj
 0002:00001b9c       ??_7CDialog_BoardCtrl@@6B@ 004f4b9c     Dialog_BoardCtrl.obj
 0002:00001ba0       ??_7?$CTypedPtrArray@VCPtrArray@@PAVLIST_DATA@@@@6B@ 004f4ba0     Dialog_BoardCtrl.obj
 0002:00001bb4       ??_C@_0CN@DPCM@?$CD?$CD?$CD?$CD?$CD?$CD?$CD?5BoardCtrl?5Init?5?$LM?$LK?$LA?x?4?4?5?$CD?$CD@ 004f4bb4     Dialog_BoardCtrl.obj
 0002:00001be4       ??_C@_0CI@FEND@D?3?2soma?2SomaClient?2Dialog_BoardC@ 004f4be4     Dialog_BoardCtrl.obj
 0002:00001c0c       ??_7CDialog_BoardList@@6B@ 004f4c0c     Dialog_BoardList.obj
 0002:00001c60       ??_C@_0L@LBMN@B?9List?4lib?$AA@ 004f4c60     Dialog_BoardList.obj
 0002:00001c6c       ??_7CDialog_BoardRead@@6B@ 004f4c6c     Dialog_BoardRead.obj
 0002:00001cc0       ??_C@_0L@HPFL@B?9Read?4lib?$AA@ 004f4cc0     Dialog_BoardRead.obj
 0002:00001ccc       ??_7CDialog_BoardWrite@@6B@ 004f4ccc     Dialog_BoardWrite.obj
 0002:00001d20       ??_C@_0M@ELEB@B?9Write?4lib?$AA@ 004f4d20     Dialog_BoardWrite.obj
 0002:00001d2c       ??_7CDialog_Chat@@6B@      004f4d2c     Dialog_Chat.obj
 0002:00001d80       ??_C@_08CIJN@Chat?4lib?$AA@ 004f4d80     Dialog_Chat.obj
 0002:00001d8c       ??_7CDialog_Crest@@6B@     004f4d8c     Dialog_Crest.obj
 0002:00001de0       ??_C@_0DA@BANB@?$CD?$CD?$CD?$CD?$CD?$CD?$CD?5Dialog?5Crest?5Init?5?$LN?G?F?P?4?4@ 004f4de0     Dialog_Crest.obj
 0002:00001e10       ??_C@_06OJHM@Soma14?$AA@   004f4e10     Dialog_Crest.obj
 0002:00001e18       ??_C@_0L@EPKH@Symbol?4bmp?$AA@ 004f4e18     Dialog_Crest.obj
 0002:00001e24       ??_C@_06OMON@SYMBOL?$AA@   004f4e24     Dialog_Crest.obj
 0002:00001e2c       ??_C@_09KCHH@Crest?4lib?$AA@ 004f4e2c     Dialog_Crest.obj
 0002:00001e38       ??_7CDialog_DeadMain@@6B@  004f4e38     Dialog_DeadMain.obj
 0002:00001e8c       ??_C@_0L@DDPH@DeadUI?4lib?$AA@ 004f4e8c     Dialog_DeadMain.obj
 0002:00001e98       ??_C@_0P@GDPP@?D?$KL?$LP?n?F?$KO?5?$LP?$KD?$LF?e?$HO?$CB?6?$AA@ 004f4e98     Dialog_DeadMain.obj
 0002:00001ea8       ??_7CDialog_EventMessage@@6B@ 004f4ea8     Dialog_EventMessage.obj
 0002:00001efc       ??_C@_0L@IMPO@quest1?4lib?$AA@ 004f4efc     Dialog_EventMessage.obj
 0002:00001f08       ??_7CDialog_EventMessage1@@6B@ 004f4f08     Dialog_EventMessage1.obj
 0002:00001f5c       ??_C@_0L@GMJB@quest2?4lib?$AA@ 004f4f5c     Dialog_EventMessage1.obj
 0002:00001f68       ??_7CDialog_EventMessage2@@6B@ 004f4f68     Dialog_EventMessage2.obj
 0002:00001fd8       ??_7CDialog_Exchange@@6B@  004f4fd8     Dialog_Exchange.obj
 0002:0000202c       ??_C@_0N@HKGE@Exchange?4lib?$AA@ 004f502c     Dialog_Exchange.obj
 0002:0000203c       ??_7CDialog_Guild@@6B@     004f503c     Dialog_Guild.obj
 0002:00002090       ??_C@_09IAFD@Guild?4lib?$AA@ 004f5090     Dialog_Guild.obj
 0002:0000209c       ??_C@_02MHMJ@?$CFu?$AA@    004f509c     Dialog_Guild.obj
 0002:000020a0       ??_7CDialog_GuildApply@@6B@ 004f50a0     Dialog_GuildApply.obj
 0002:000020f4       ??_C@_0M@JGKC@Guild?9A?4lib?$AA@ 004f50f4     Dialog_GuildApply.obj
 0002:00002100       ??_7CDialog_GuildJoin@@6B@ 004f5100     Dialog_GuildJoin.obj
 0002:00002154       ??_C@_0M@HHOH@Guild?9J?4lib?$AA@ 004f5154     Dialog_GuildJoin.obj
 0002:00002160       ??_7CDialog_GuildMenu1@@6B@ 004f5160     Dialog_GuildMenu1.obj
 0002:000021b4       ??_C@_0M@NJED@Guild?93?4lib?$AA@ 004f51b4     Dialog_GuildMenu1.obj
 0002:000021c0       ??_7CDialog_GuildMenu2@@6B@ 004f51c0     Dialog_GuildMenu2.obj
 0002:00002214       ??_C@_0M@HJGG@Guild?92?4lib?$AA@ 004f5214     Dialog_GuildMenu2.obj
 0002:00002220       ??_7CDialog_GuildMenu3@@6B@ 004f5220     Dialog_GuildMenu3.obj
 0002:00002274       ??_C@_0M@BJJM@Guild?95?4lib?$AA@ 004f5274     Dialog_GuildMenu3.obj
 0002:00002280       ??_7CDialog_GuildMenu4@@6B@ 004f5280     Dialog_GuildMenu4.obj
 0002:000022d4       ??_C@_0M@LJLJ@Guild?94?4lib?$AA@ 004f52d4     Dialog_GuildMenu4.obj
 0002:000022e0       ??_7CDialog_GuildMenu5@@6B@ 004f52e0     Dialog_GuildMenu5.obj
 0002:00002334       ??_C@_0M@JJAJ@Guild?91?4lib?$AA@ 004f5334     Dialog_GuildMenu5.obj
 0002:00002340       ??_7CDialog_GuildName@@6B@ 004f5340     Dialog_GuildName.obj
 0002:00002394       ??_C@_0M@PHHC@Guild?9N?4lib?$AA@ 004f5394     Dialog_GuildName.obj
 0002:000023a0       ??_7CDialog_GuildPositionName@@6B@ 004f53a0     Dialog_GuildPositionName.obj
 0002:000023f4       ??_C@_0N@BCGC@Position?4lib?$AA@ 004f53f4     Dialog_GuildPositionName.obj
 0002:00002404       ??_7CDialog_HowMany@@6B@   004f5404     Dialog_HowMany.obj
 0002:00002458       ??_C@_0M@EIEF@Trash?9I?4lib?$AA@ 004f5458     Dialog_HowMany.obj
 0002:00002464       ??_7CDialog_HowMuch@@6B@   004f5464     Dialog_HowMuch.obj
 0002:000024b8       ??_C@_0M@MINA@Trash?9M?4lib?$AA@ 004f54b8     Dialog_HowMuch.obj
 0002:000024e0       ??_7CDialog_Inv@@6B@       004f54e0     Dialog_Inv.obj
 0002:00002534       ??_C@_0L@CHIA@Invent?4lib?$AA@ 004f5534     Dialog_Inv.obj
 0002:00002540       ??_7?$CMap@HHPAVITEM_INV@@AAPAV1@@@6B@ 004f5540     Dialog_Inv.obj
 0002:00002554       ??_7CDialog_Login@@6B@     004f5554     Dialog_Login.obj
 0002:000025a8       ??_C@_02FCMB@10?$AA@       004f55a8     Dialog_Login.obj
 0002:000025b0       __real@8@3fff8000000000000000 004f55b0     Dialog_Login.obj
 0002:000025b8       __real@8@4002a000000000000000 004f55b8     Dialog_Login.obj
 0002:000025c0       ??_C@_05OBOH@Angel?$AA@    004f55c0     Dialog_Login.obj
 0002:000025c8       ??_C@_08DMNO@Virtuous?$AA@ 004f55c8     Dialog_Login.obj
 0002:000025d4       ??_C@_05CEIG@Moral?$AA@    004f55d4     Dialog_Login.obj
 0002:000025dc       ??_C@_04LBBK@Good?$AA@     004f55dc     Dialog_Login.obj
 0002:000025e4       ??_C@_07BKIB@Neutral?$AA@  004f55e4     Dialog_Login.obj
 0002:000025ec       ??_C@_03BFKG@Bad?$AA@      004f55ec     Dialog_Login.obj
 0002:000025f0       ??_C@_04DLDA@Evil?$AA@     004f55f0     Dialog_Login.obj
 0002:000025f8       ??_C@_06CINB@Wicked?$AA@   004f55f8     Dialog_Login.obj
 0002:00002600       ??_C@_05BILD@Devil?$AA@    004f5600     Dialog_Login.obj
 0002:00002608       ??_C@_08PBI@?$LN?C?$LO?$OA?A?$KG?A?$LG?$AA@ 004f5608     Dialog_Login.obj
 0002:00002614       ??_C@_04OPHI@?$LP?d?$LI?$KO?$AA@ 004f5614     Dialog_Login.obj
 0002:0000261c       ??_C@_0L@MMML@?$LJ?f?$LO?n?$LB?$LI?A?$KG?A?$LG?$AA@ 004f561c     Dialog_Login.obj
 0002:00002628       ??_C@_0L@ICOI@?$MA?e?$LN?E?$LB?$LI?A?$KG?A?$LG?$AA@ 004f5628     Dialog_Login.obj
 0002:00002634       ??_C@_08CJPI@?$LJ?$KL?$LB?b?A?$KG?A?$LG?$AA@ 004f5634     Dialog_Login.obj
 0002:00002640       ??_C@_04MFGM@?$LO?x?$MA?$LN?$AA@ 004f5640     Dialog_Login.obj
 0002:00002648       ??_C@_06MPHD@?A?v?F?N?$MA?L?$AA@ 004f5648     Dialog_Login.obj
 0002:00002650       ??_C@_04CJLG@?A?V?$LI?T?$AA@ 004f5650     Dialog_Login.obj
 0002:00002658       ??_C@_04FMHD@?$LF?P?$LB?b?$AA@ 004f5658     Dialog_Login.obj
 0002:00002660       ??_C@_02PKKK@?H?$LA?$AA@   004f5660     Dialog_Login.obj
 0002:00002664       ??_C@_02IIFP@?C?$KC?$AA@   004f5664     Dialog_Login.obj
 0002:00002668       ??_C@_02KPPB@?$LA?K?$AA@   004f5668     Dialog_Login.obj
 0002:0000266c       ??_C@_07DEMH@?$CFd?5?1?5?$CFd?$AA@ 004f566c     Dialog_Login.obj
 0002:00002674       ??_C@_0BL@NIHI@?4?4?4?4?4?4?4?4?4?4?4?4?4?4?4?4?4?4?4?4?4?4?4?4?4?6?$AA@ 004f5674     Dialog_Login.obj
 0002:00002690       __real@8@4000a000000000000000 004f5690     Dialog_Login.obj
 0002:00002698       ??_7CDialog_MagicCtrl@@6B@ 004f5698     Dialog_MagicCtrl.obj
 0002:000026b8       ??_7CDialog_Main@@6B@      004f56b8     Dialog_Main.obj
 0002:0000270c       ??_C@_05EICF@?$CFs?1?$CFd?$AA@ 004f570c     Dialog_Main.obj
 0002:00002714       ??_C@_06KMIA@?$LA?f?G?h?D?$KB?$AA@ 004f5714     Dialog_Main.obj
 0002:0000271c       ??_C@_0N@NDAE@?$LJ?$KL?$LA?T?5?3?5?$CFd?1?$CFd?$AA@ 004f571c     Dialog_Main.obj
 0002:0000272c       ??_C@_0P@IAHN@?A?v?$LB?$LI?$LH?B?5?3?5?$CFd?1?$CFd?$AA@ 004f572c     Dialog_Main.obj
 0002:0000273c       ??_C@_0N@EFME@?$LN?I?$LH?B?5?3?5?$CFd?1?$CFd?$AA@ 004f573c     Dialog_Main.obj
 0002:0000274c       ??_C@_0N@EFPB@?C?$LM?$LH?B?5?3?5?$CFd?1?$CFd?$AA@ 004f574c     Dialog_Main.obj
 0002:0000275c       ??_7CDialog_MakeItem@@6B@  004f575c     Dialog_MakeItem.obj
 0002:000027b0       ??_C@_0BO@FGFG@?$LO?F?$MA?L?E?$NL?5?A?$KG?$MA?$NL?$LP?$KB?5?$LN?G?F?P?G?O?$LP?$LE?$LN?$MA?$LE?O?$LE?Y?4?$AA@ 004f57b0     Dialog_MakeItem.obj
 0002:000027d0       ??_C@_0L@MCNN@?6?$MA?L?$LI?$KH?5?3?5?$CFs?$AA@ 004f57d0     Dialog_MakeItem.obj
 0002:000027dc       ??_C@_0N@MKII@?6?$MA?L?$LI?$KH?5?3?5?$LO?x?$MA?$LN?$AA@ 004f57dc     Dialog_MakeItem.obj
 0002:000027ec       ??_C@_0BJ@FKKF@?$LO?F?$MA?L?E?$NL?$MA?L?5?$LP?O?$LM?$LK?$LF?G?$LO?z?$LN?$MA?$LE?O?$LE?Y?4?$AA@ 004f57ec     Dialog_MakeItem.obj
 0002:00002808       ??_C@_0BE@KLGN@Send?5PKT_MAKEITEM?5?6?$AA@ 004f5808     Dialog_MakeItem.obj
 0002:0000281c       ??_C@_0N@KBG@MakeItem?4lib?$AA@ 004f581c     Dialog_MakeItem.obj
 0002:0000282c       ??_7CDialog_Memo@@6B@      004f582c     Dialog_Memo.obj
 0002:00002880       ??_7CDialog_MemoCtrl@@6B@  004f5880     Dialog_MemoCtrl.obj
 0002:00002884       ??_7?$CTypedPtrArray@VCPtrArray@@PAVCDialog_Memo@@@@6B@ 004f5884     Dialog_MemoCtrl.obj
 0002:00002898       ??_C@_08CBPB@Memo?4lib?$AA@ 004f5898     Dialog_MemoCtrl.obj
 0002:000028a4       ??_7?$CTypedPtrList@VCPtrList@@PAVCDialog_Memo@@@@6B@ 004f58a4     Dialog_MemoCtrl.obj
 0002:000028b8       ??_7?$_CTypedPtrList@VCPtrList@@PAVCDialog_Memo@@@@6B@ 004f58b8     Dialog_MemoCtrl.obj
 0002:000028cc       ??_7CDialog_Message@@6B@   004f58cc     Dialog_Message.obj
 0002:00002920       ??_C@_0M@MNKM@message?4lib?$AA@ 004f5920     Dialog_Message.obj
 0002:0000292c       ??_7CDialog_Message2@@6B@  004f592c     Dialog_Message2.obj
 0002:00002980       ??_C@_0N@ICOP@message2?4lib?$AA@ 004f5980     Dialog_Message2.obj
 0002:00002990       ??_7CDialog_Message3@@6B@  004f5990     Dialog_Message3.obj
 0002:000029e4       ??_C@_0N@CCMK@message3?4lib?$AA@ 004f59e4     Dialog_Message3.obj
 0002:000029f4       ??_7CDialog_Name@@6B@      004f59f4     Dialog_Name.obj
 0002:00002a48       ??_C@_08HGG@name?4lib?$AA@ 004f5a48     Dialog_Name.obj
 0002:00002a54       ??_7CDialog_Option@@6B@    004f5a54     Dialog_Option.obj
 0002:00002aa8       ??_C@_0L@DEEN@Option?4lib?$AA@ 004f5aa8     Dialog_Option.obj
 0002:00002ab4       ??_7CDialog_Quit@@6B@      004f5ab4     Dialog_Quit.obj
 0002:00002b08       ??_C@_08JLMO@quit?4lib?$AA@ 004f5b08     Dialog_Quit.obj
 0002:00002b30       ??_7CDialog_Repair@@6B@    004f5b30     Dialog_Repair.obj
 0002:00002b84       ??_C@_0BP@PBCM@?6?6?$LM?v?$LI?$KO?H?D?5?$LD?$LL?$LB?$LI?$LH?B?3?$CFd?5?$LM?v?$LI?$KO?$LK?q?$LP?k?3?$CFd?$AA@ 004f5b84     Dialog_Repair.obj
 0002:00002ba4       ??_C@_0L@EDGH@Repair?4lib?$AA@ 004f5ba4     Dialog_Repair.obj
 0002:00002bb0       __real@8@3ffeb333333333333000 004f5bb0     Dialog_Repair.obj
 0002:00002bb8       __real@8@3ffbccccccccccccd000 004f5bb8     Dialog_Repair.obj
 0002:00002bc0       ??_7?$CMap@HHPAVITEM_ME@@AAPAV1@@@6B@ 004f5bc0     Dialog_Repair.obj
 0002:00002bf0       ??_7CDialog_Shop@@6B@      004f5bf0     Dialog_Shop.obj
 0002:00002c44       ??_7?$CTypedPtrArray@VCPtrArray@@PAVITEM_ME@@@@6B@ 004f5c44     Dialog_Shop.obj
 0002:00002c58       ??_7?$CTypedPtrArray@VCPtrArray@@PAVITEM_SHOP@@@@6B@ 004f5c58     Dialog_Shop.obj
 0002:00002c6c       ??_C@_0BF@JBAL@Send?5PKT_SELL_SHOP?5?6?$AA@ 004f5c6c     Dialog_Shop.obj
 0002:00002c84       ??_C@_0BE@BBPE@Send?5PKT_BUY_SHOP?5?6?$AA@ 004f5c84     Dialog_Shop.obj
 0002:00002c98       ??_C@_08PKCA@Shop?4lib?$AA@ 004f5c98     Dialog_Shop.obj
 0002:00002ca8       __real@8@3ffeffbe76c8b4395800 004f5ca8     Dialog_Shop.obj
 0002:00002cb0       __real@8@4005c800000000000000 004f5cb0     Dialog_Shop.obj
 0002:00002cb8       ??_7CDialog_SmallMain@@6B@ 004f5cb8     Dialog_SmallMain.obj
 0002:00002d0c       ??_7CDialog_SpecialMagic@@6B@ 004f5d0c     Dialog_SpecialMagic.obj
 0002:00002d60       ??_C@_0M@KIHM@Magic?9S?4lib?$AA@ 004f5d60     Dialog_SpecialMagic.obj
 0002:00002d6c       ??_7CDialog_Status@@6B@    004f5d6c     Dialog_Status.obj
 0002:00002dc0       ??_C@_04IFEM@?$CF?41f?$AA@ 004f5dc0     Dialog_Status.obj
 0002:00002dc8       ??_C@_01PBLD@M?$AA@        004f5dc8     Dialog_Status.obj
 0002:00002dcc       ??_C@_01FKLC@F?$AA@        004f5dcc     Dialog_Status.obj
 0002:00002dd0       ??_C@_03JFOM@?$CFld?$AA@   004f5dd0     Dialog_Status.obj
 0002:00002dd4       ??_C@_0L@HMNE@Detail?4lib?$AA@ 004f5dd4     Dialog_Status.obj
 0002:00002dfc       ??_7CDialog_Storage@@6B@   004f5dfc     Dialog_Storage.obj
 0002:00002e50       ??_7?$CTypedPtrArray@VCPtrArray@@PAVITEM_STORAGE@@@@6B@ 004f5e50     Dialog_Storage.obj
 0002:00002e64       ??_C@_0BD@BKFC@Send?5PKT_SAVEITEM?6?$AA@ 004f5e64     Dialog_Storage.obj
 0002:00002e78       ??_C@_0BH@IPLI@Send?5PKT_TAKEBACKITEM?6?$AA@ 004f5e78     Dialog_Storage.obj
 0002:00002e90       ??_C@_0BE@HEDM@Send?5PKT_SAVEMONEY?6?$AA@ 004f5e90     Dialog_Storage.obj
 0002:00002ea4       ??_C@_0BI@JPKJ@Send?5PKT_TAKEBACKMONEY?6?$AA@ 004f5ea4     Dialog_Storage.obj
 0002:00002ebc       ??_C@_09PKO@Stash?4lib?$AA@ 004f5ebc     Dialog_Storage.obj
 0002:00002ec8       ??_7CDialog_TaxRate@@6B@   004f5ec8     Dialog_TaxRate.obj
 0002:00002f1c       ??_C@_0M@BMPN@taxrate?4lib?$AA@ 004f5f1c     Dialog_TaxRate.obj
 0002:00002f28       ??_7CDialog_WhiteMagic@@6B@ 004f5f28     Dialog_WhiteMagic.obj
 0002:00002f7c       ??_C@_0M@CIOJ@Magic?9W?4lib?$AA@ 004f5f7c     Dialog_WhiteMagic.obj
 0002:00002f88       ??_7CDialogManager@@6B@    004f5f88     DialogManager.obj
 0002:00002f8c       ??_7?$CTypedPtrArray@VCPtrArray@@PAVCUIRes@@@@6B@ 004f5f8c     DialogManager.obj
 0002:00002fa0       ??_7DirectXMng@@6B@        004f5fa0     DirectXMng.obj
 0002:00002fa4       ??_C@_09KCDH@GAMMA?5?$CFd?6?$AA@ 004f5fa4     DirectXMng.obj
 0002:00002fb0       ??_C@_0M@KAL@Voodoo3?5AGP?$AA@ 004f5fb0     DirectXMng.obj
 0002:00002fbc       ??_C@_0CB@NCKH@Magnum?1Xpert?5128?1Xpert?599?5?$CI?G?Q?$LB?$NL?$CJ@ 004f5fbc     DirectXMng.obj
 0002:00002fe0       ??_C@_0BA@BKJD@NVidia?5RIVA?5128?$AA@ 004f5fe0     DirectXMng.obj
 0002:00002ff0       ??_C@_0BG@BNNB@PixelFormat?5?3?5PF_565?6?$AA@ 004f5ff0     DirectXMng.obj
 0002:00003008       ??_C@_0BG@OLOK@PixelFormat?5?3?5PF_555?6?$AA@ 004f6008     DirectXMng.obj
 0002:00003020       ??_SCDirectSound@@6B@      004f6020     DirectXMng.obj
 0002:00003024       ??_SCNight@@6B@            004f6024     DirectXMng.obj
 0002:00003028       ??_C@_0BN@MHMM@HAL?$LH?N?53D?$LI?$KG?5?C?J?$LB?b?H?$KN?G?$NP?$LN?$MA?$LE?O?$LE?Y?4?4?6?$AA@ 004f6028     DirectXMng.obj
 0002:00003048       ??_C@_0BN@NMEI@MMX?$LH?N?53D?$LI?$KG?5?C?J?$LB?b?H?$KN?G?$NP?$LN?$MA?$LE?O?$LE?Y?4?4?6?$AA@ 004f6048     DirectXMng.obj
 0002:00003068       ??_C@_0BN@MNDJ@HEL?$LH?N?53D?$LI?$KG?5?C?J?$LB?b?H?$KN?G?$NP?$LN?$MA?$LE?O?$LE?Y?4?4?6?$AA@ 004f6068     DirectXMng.obj
 0002:00003088       ??_C@_0CB@EGGA@HEL?$LH?N?53D?$LI?$KG?5?$LL?g?$LP?k?G?R?$LM?v?$LA?$KB?5?$LO?x?$LN?$MA?$LE?O?$LE?Y?4?6@ 004f6088     DirectXMng.obj
 0002:000030ac       ??_C@_0CB@DMLD@MMX?$LH?N?53D?$LI?$KG?5?$LL?g?$LP?k?G?R?$LM?v?$LA?$KB?5?$LO?x?$LN?$MA?$LE?O?$LE?Y?4?6@ 004f60ac     DirectXMng.obj
 0002:000030d0       ??_C@_0CB@GJIL@HAL?$LH?N?53D?$LI?$KG?5?$LL?g?$LP?k?G?R?$LM?v?$LA?$KB?5?$LO?x?$LN?$MA?$LE?O?$LE?Y?4?6@ 004f60d0     DirectXMng.obj
 0002:000030f4       ??_SCDirect3D@@6B@         004f60f4     DirectXMng.obj
 0002:000030f8       ??_SBBDX_MouseInformation@@6B@ 004f60f8     DirectXMng.obj
 0002:000030fc       ??_SCDirectInput@@6B@      004f60fc     DirectXMng.obj
 0002:00003110       ??_SCDirectDraw@@6B@       004f6110     DirectXMng.obj
 0002:00003128       ?messageMap@CDlgLogin@@1UAFX_MSGMAP@@B 004f6128     DlgLogin.obj
 0002:00003130       ?_messageEntries@CDlgLogin@@0QBUAFX_MSGMAP_ENTRY@@B 004f6130     DlgLogin.obj
 0002:00003148       ??_C@_04PGKP@soma?$AA@     004f6148     DlgLogin.obj
 0002:00003150       ??_C@_0P@JEBH@192?4203?4141?420?$AA@ 004f6150     DlgLogin.obj
 0002:00003160       ??_7CDlgLogin@@6B@         004f6160     DlgLogin.obj
 0002:00003238       ??_7CDxCursor@@6B@         004f6238     DxCursor.obj
 0002:0000323c       __real@4@4008fa00000000000000 004f623c     DxCursor.obj
 0002:00003240       ??_C@_0O@CNDI@?$CFsNRes?2?$CFs?4ani?$AA@ 004f6240     DxCursor.obj
 0002:00003250       ??_C@_0O@LG@?$CFsNRes?2?$CFs?4spl?$AA@ 004f6250     DxCursor.obj
 0002:00003260       ??_7CFogEffect@@6B@        004f6260     FogEffect.obj
 0002:00003264       ??_7CGdiFont@@6B@          004f6264     GdiFont.obj
 0002:00003268       ??_C@_06EIH@?$LB?$LM?$LI?$LC?C?$LM?$AA@ 004f6268     GdiFont.obj
 0002:00003270       ??_7CHouse@@6B@            004f6270     House.obj
 0002:00003274       ??_C@_09FKEG@frame?5?$CFd?6?$AA@ 004f6274     House.obj
 0002:00003280       ??_C@_0P@EGDD@TRANS_STEP?5?$CFd?6?$AA@ 004f6280     House.obj
 0002:00003290       ??_7HOUSECELL@@6B@         004f6290     HouseInfo.obj
 0002:00003294       ??_7CHouseInfo@@6B@        004f6294     HouseInfo.obj
 0002:00003298       ??_C@_03EGPG@HIF?$AA@      004f6298     HouseInfoManager.obj
 0002:0000329c       ??_7CHouseInfoManager@@6B@ 004f629c     HouseInfoManager.obj
 0002:000032a0       ??_C@_0BK@BJMN@HIF?5?F?w?$LI?K?$LA?z?5?$LI?B?A?v?5?$LO?J?$LN?$MA?$LE?O?$LE?Y?4?$AA@ 004f62a0     HouseInfoManager.obj
 0002:000032bc       ??_7?$CMap@HHPAVCHouseInfo@@AAPAV1@@@6B@ 004f62bc     HouseInfoManager.obj
 0002:000032d0       ??_7CHousePlaceManager@@6B@ 004f62d0     HousePlaceManager.obj
 0002:000032d4       ??_7CItem@@6B@             004f62d4     Item.obj
 0002:000032e8       ??_C@_09CGHM@?$CFsitem?2?$CFs?$AA@ 004f62e8     Item.obj
 0002:000032f4       ??_C@_08BCOM@?$CFsspr?2?$CFs?$AA@ 004f62f4     Item.obj
 0002:00003300       ??_7?$CTypedPtrArray@VCPtrArray@@PAVITEM_PIECE@@@@6B@ 004f6300     Item_Field.obj
 0002:00003314       ??_7CItem_Field@@6B@       004f6314     Item_Field.obj
 0002:00003318       ??_C@_08EBIE@item?4spr?$AA@ 004f6318     Item_Field.obj
 0002:00003324       ??_C@_08FHNA@item?4obm?$AA@ 004f6324     Item_Field.obj
 0002:00003330       ??_C@_09PEMI@?$CFsItem?2?$CFs?$AA@ 004f6330     Item_Field.obj
 0002:0000333c       ??_7?$CMap@HHPAVITEM_FIELD@@AAPAV1@@@6B@ 004f633c     Item_Field.obj
 0002:00003350       ??_7CItem_Inv@@6B@         004f6350     Item_Inv.obj
 0002:00003354       ??_C@_0L@LAPI@maninv?4ani?$AA@ 004f6354     Item_Inv.obj
 0002:00003360       ??_C@_03FLHH@Inv?$AA@      004f6360     Item_Inv.obj
 0002:00003364       ??_C@_0M@BKFB@girlinv?4ani?$AA@ 004f6364     Item_Inv.obj
 0002:00003370       ??_C@_0BH@NKG@?$LB?W?$LI?$LC?$MA?$LL?5?C?$KD?$MA?$LL?$LM?v?$LO?x?$MA?$LN?4?5?$CFs?6?$AA@ 004f6370     Item_Inv.obj
 0002:00003388       ??_C@_0BF@MBBN@?$CFsinv?2?$CFs?$CF02d?$CF03d?4spl?$AA@ 004f6388     Item_Inv.obj
 0002:000033a0       ??_C@_0BL@OEML@?$LO?V?$LE?O?H?$KN?$MA?O?$MA?$LL?5?$LP?$KN?$LM?v?5?$LO?x?$MA?$LN?4?4?5?$CFs?6?$AA@ 004f63a0     Item_Inv.obj
 0002:000033bc       ??_C@_08JIEH@?$CFsinv?2?$CFs?$AA@ 004f63bc     Item_Inv.obj
 0002:000033c8       ??_C@_0BO@KIE@?$LN?$LK?G?A?$LG?s?$MA?L?F?$KO?5?$LJ?$PM?$MA?$KH?$LI?$KG?5?$LJ?$PO?$LO?n?$LD?$LF?$LE?Y?4?4?6?$AA@ 004f63c8     Item_Inv.obj
 0002:000033e8       ??_C@_0BO@BADM@?$LO?V?$LE?O?$LI?$NO?$MA?L?$LM?G?5?$LJ?$PM?$MA?$KH?$LI?$KG?5?$LJ?$PO?$LO?n?$LD?$LF?$LE?Y?4?4?6?$AA@ 004f63e8     Item_Inv.obj
 0002:00003408       ??_C@_0BI@GMFD@spl?5?$LF?$KF?$MA?L?E?$LI?$LA?$KB?5?$LD?N?$MA?L?$LE?Y?4?4?4?6?$AA@ 004f6408     Item_Inv.obj
 0002:00003420       ??_7CItem_Small@@6B@       004f6420     Item_Small.obj
 0002:00003440       ??_C@_05LGII@?$MA?L?$LE?Y?4?$AA@ 004f6440     Item_Small.obj
 0002:00003448       ??_C@_0M@HMCA@?$MA?L?5?$LO?F?$MA?L?E?$NL?$MA?$LK?$AA@ 004f6448     Item_Small.obj
 0002:00003454       ??_C@_03IBOB@?$CF3d?$AA@   004f6454     Item_Small.obj
 0002:00003458       ??_7CItem_Total@@6B@       004f6458     Item_Total.obj
 0002:0000345c       ??_7CLightSource@@6B@      004f645c     LightSource.obj
 0002:00003460       ??_C@_0BO@DLIN@?$LB?$KE?$LP?x?5?$LF?$KF?$MA?L?E?M?5?F?D?$MA?O?5?$LP?$KN?$LB?b?5?$LN?G?F?P?5?3?5?$AA@ 004f6460     LightSource.obj
 0002:00003488       ??_7CMagic@@6B@            004f6488     Magic.obj
 0002:0000348c       ??_C@_0BN@KMMG@?$LI?$LG?$LJ?$PN?5Resource?5?3?5?$CFs?5Load?$LN?G?F?P?6?$AA@ 004f648c     Magic.obj
 0002:000034ac       ??_C@_0BI@JFNL@?4?2MagicRes?2mgr_?$CF03d?4mrf?$AA@ 004f64ac     Magic.obj
 0002:000034c4       ??_7?$CArray@PAUMAGIC_INFO@@PAU1@@@6B@ 004f64c4     Magic.obj
 0002:000034d8       ??_7?$CArray@PAUMAGIC3D_INFO@@PAU1@@@6B@ 004f64d8     Magic.obj
 0002:000034ec       ??_7?$CList@UMR_CELL@@U1@@@6B@ 004f64ec     Magic.obj
 0002:00003500       ??_7CMagicComet@@6B@       004f6500     MagicComet.obj
 0002:00003504       ??_7?$CArray@PAU_TAG_ST_POSITION@@PAU1@@@6B@ 004f6504     MagicComet.obj
 0002:00003518       ??_7CMagicItem@@6B@        004f6518     magicitem.obj
 0002:00003534       ??_C@_0M@MHOF@Magic?9S?4spr?$AA@ 004f6534     magicitem.obj
 0002:00003540       ??_C@_0M@NBLB@Magic?9S?4obm?$AA@ 004f6540     magicitem.obj
 0002:0000354c       ??_C@_0M@GFJF@Magic?9B?4spr?$AA@ 004f654c     magicitem.obj
 0002:00003558       ??_C@_0M@HDMB@Magic?9B?4obm?$AA@ 004f6558     magicitem.obj
 0002:00003564       ??_C@_0BJ@CFPP@?$LO?F?$MA?L?E?$NL?5?$LJ?Z?$LN?$LK?$LA?$KB?5?$LE?Y?B?w?$MA?V?$LE?Y?4?6?$AA@ 004f6564     magicitem.obj
 0002:00003580       ??_7CMagicManager@@6B@     004f6580     MagicManager.obj
 0002:00003584       ??_C@_0P@EFI@?$CFsmgr_?$CF03d?4mrf?$AA@ 004f6584     MagicManager.obj
 0002:00003594       ??_C@_09PL@MAGICRES?2?$AA@ 004f6594     MagicManager.obj
 0002:000035a0       ??_7?$CMap@HHPAVMAGIC_RES@@PAV1@@@6B@ 004f65a0     MagicManager.obj
 0002:000035b4       ??_7CMagicRes@@6B@         004f65b4     MagicRes.obj
 0002:000035b8       ?classCMainFrame@CMainFrame@@2UCRuntimeClass@@B 004f65b8     MainFrm.obj
 0002:000035d0       ?messageMap@CMainFrame@@1UAFX_MSGMAP@@B 004f65d0     MainFrm.obj
 0002:000035d8       ?_messageEntries@CMainFrame@@0QBUAFX_MSGMAP_ENTRY@@B 004f65d8     MainFrm.obj
 0002:00003650       ??_C@_0L@IAGP@CMainFrame?$AA@ 004f6650     MainFrm.obj
 0002:0000365c       ??_7CMainFrame@@6B@        004f665c     MainFrm.obj
 0002:00003758       ??_C@_0BO@FDGD@Failed?5to?5create?5view?5window?6?$AA@ 004f6758     MainFrm.obj
 0002:00003778       ??_C@_0BL@OPJI@Active?5Status?5Change?5?3?5?$CFd?6?$AA@ 004f6778     MainFrm.obj
 0002:00003794       ??_7CMsg@@6B@              004f6794     Msg.obj
 0002:000037a8       ??_7CMyInvData@@6B@        004f67a8     MyInvData.obj
 0002:000037ac       ??_7CMyMagicData@@6B@      004f67ac     MyMagicData.obj
 0002:000037b0       ??_7CNotice@@6B@           004f67b0     Notice.obj
 0002:00003804       ??_C@_0L@CADJ@notice?4lib?$AA@ 004f6804     Notice.obj
 0002:00003810       ??_7MAreaCtrl@@6B@         004f6810     ObjectClass.obj
 0002:00003818       ??_7MBtnCtrl@@6B@          004f6818     ObjectClass.obj
 0002:00003820       ??_7MBtnCtrlEx@@6B@        004f6820     ObjectClass.obj
 0002:00003828       ??_7CPacketParser@@6B@     004f6828     PacketParser.obj
 0002:0000382c       ??_C@_0BF@GPBH@?$LL?u?5?$LA?h?A?$KE?5?$LM?$LD?A?$KE?$LP?$KB?5?$LN?G?F?P?6?$AA@ 004f682c     PacketParser.obj
 0002:00003844       ??_C@_0BB@LKGD@?$MA?L?$LJ?L?5?$LL?g?$LP?k?A?$NP?$MA?L?$LE?Y?4?$AA@ 004f6844     PacketParser.obj
 0002:00003858       ??_C@_0BD@ICOH@?$LK?q?$LJ?P?$LJ?x?H?$KD?$LA?$KB?5?F?$LC?$LH?H?$LE?Y?4?$AA@ 004f6858     PacketParser.obj
 0002:0000386c       ??_C@_0BB@OCCP@?$LJ?L?$LF?n?$LH?O?5?$LO?F?$MA?L?$LF?p?$LE?Y?4?$AA@ 004f686c     PacketParser.obj
 0002:00003880       ??_C@_0O@IALM@?$LH?N?$LB?d?5?$LM?$LK?$LA?x?4?4?4?6?$AA@ 004f6880     PacketParser.obj
 0002:00003890       ??_C@_04FMON@Soma?$AA@     004f6890     PacketParser.obj
 0002:00003898       ??_C@_0CE@NGE@?$MA?Z?$LB?b?5?$MA?Z?$LN?E?$MA?$LL?5?A?v?$LP?l?$LH?A?$LE?B?5?$LN?C?$LF?$LF?$LA?$KB?5?$MA?V?$LO?z@ 004f6898     PacketParser.obj
 0002:000038bc       ??_C@_0BG@GDMC@magic_table_index?5?$CFd?6?$AA@ 004f68bc     PacketParser.obj
 0002:000038d4       ??_C@_09GJIB@m_num?5?$CFd?6?$AA@ 004f68d4     PacketParser.obj
 0002:000038e0       ??_C@_0BH@OPHP@?F?D?$MA?O?$MA?$LL?5?$LP?$KN?5?$LM?v?5?$LO?x?$LN?$MA?$LE?O?$LE?Y?4?$AA@ 004f68e0     PacketParser.obj
 0002:000038f8       ??_C@_0BB@DJIC@map?2MSet?$CF02d?4imf?$AA@ 004f68f8     PacketParser.obj
 0002:0000390c       ??_C@_0CA@HPPE@?E?$LI?$MA?O?$LI?J?5?$LF?$KF?$MA?L?E?M?5?F?D?$MA?O?5?$LP?$KN?$LB?b?5?$LN?G?F?P?5?3?5?$AA@ 004f690c     PacketParser.obj
 0002:0000392c       ??_C@_0BB@JKD@map?2MSet?$CF02d?4mod?$AA@ 004f692c     PacketParser.obj
 0002:00003940       ??_C@_0BD@OFGA@?4?2Map?2MSet?$CF02d?4lsf?$AA@ 004f6940     PacketParser.obj
 0002:00003954       ??_C@_0BB@DBDO@map?2MSet?$CF02d?4hif?$AA@ 004f6954     PacketParser.obj
 0002:00003968       ??_C@_0BB@GPDN@map?2MSet?$CF02d?4tsd?$AA@ 004f6968     PacketParser.obj
 0002:0000397c       ??_C@_0BB@MHDP@map?2MSet?$CF02d?4tmd?$AA@ 004f697c     PacketParser.obj
 0002:00003990       ??_C@_0BP@GMHL@acount?$LH?N?5?$LM?$KN?$LJ?v?$LP?$KB?5?A?$KC?$LM?S?$LN?G?F?P?$CIFail?$CJ?$AA@ 004f6990     PacketParser.obj
 0002:000039b0       ??_C@_0BN@PILK@?$LM?$KN?$LJ?v?$LP?$KB?5?A?$KC?$LM?S?5?$LN?G?F?P?$CILogin?5Fail?$CJ?$AA@ 004f69b0     PacketParser.obj
 0002:000039d0       ??_C@_09OLFP@LOGIN?5OK?6?$AA@ 004f69d0     PacketParser.obj
 0002:000039dc       ??_C@_0BO@DKJA@?$MA?L?$LF?$LP?$LP?$KB?5?$LN?G?F?P?5?F?P?E?$LG?$MA?L?5?$LF?$LF?B?x?G?$NP?$LE?Y?4?6?$AA@ 004f69dc     PacketParser.obj
 0002:000039fc       ??_C@_0BI@KIE@m_pRoute?$LA?$KB?5NULL?$MA?L?$LE?Y?4?4?4?6?$AA@ 004f69fc     PacketParser.obj
 0002:00003a14       ??_C@_0CA@HGDJ@?A?W?$MA?$LK?5NPC?G?Q?E?W?5move?F?P?E?$LG?$MA?L?5?$LP?T?$LE?Y?4?4?6?$AA@ 004f6a14     PacketParser.obj
 0002:00003a34       ??_C@_0BB@PFKM@?D?$LD?$LI?$KP?E?M?5?$LO?x?$MA?$LN?$CI?$CFd?$CJ?6?$AA@ 004f6a34     PacketParser.obj
 0002:00003a48       ??_C@_0BG@EMGI@?$LA?$KF?5?$LM?v?5?$MA?V?$LE?B?$LB?f?$MA?L?5?$LO?x?$LE?Y?4?6?$AA@ 004f6a48     PacketParser.obj
 0002:00003a60       ??_C@_0BK@FEOI@m_ptDestFianal?3?5?$CFd?5?0?5?$CFd?5?6?$AA@ 004f6a60     PacketParser.obj
 0002:00003a7c       ??_C@_0BG@JAIL@m_Position?3?5?$CFd?5?0?5?$CFd?5?6?$AA@ 004f6a7c     PacketParser.obj
 0002:00003a94       ??_C@_0BP@LBLF@?$LM?$KN?$LJ?v?$LP?M?5?$MA?$KH?D?$KB?$LA?$KB?5?$LI?B?A?v?$LO?J?$LO?F?5?$LK?$LI?A?$KE?4?4?6?$AA@ 004f6a94     PacketParser.obj
 0002:00003ab4       ??_C@_0BC@IIED@pRoute?$LA?$KB?5?$LD?N?$MA?L?$LE?Y?4?6?$AA@ 004f6ab4     PacketParser.obj
 0002:00003ac8       ??_C@_0CA@GFMI@?$MA?L?$LF?$LP?A?$NP?$MA?T?$LE?O?$LE?Y?4?5m_vMoveStep?5?$DN?5?$CFd?6?$AA@ 004f6ac8     PacketParser.obj
 0002:00003ae8       ??_C@_0CC@PANA@?$LM?$KN?$LJ?v?$LP?M?5?$MA?$KH?D?$KB?$LA?$KB?5?$LI?B?A?v?$LO?J?$LO?F?5?$LK?$LI?A?$KE?4?4RUN@ 004f6ae8     PacketParser.obj
 0002:00003b0c       ??_C@_0P@HHLI@?$MA?L?$LF?$LP?A?$NP?$MA?T?$LE?O?$LE?Y?4?6?$AA@ 004f6b0c     PacketParser.obj
 0002:00003b20       __real@8@3ffe9999999999999800 004f6b20     PacketParser.obj
 0002:00003b28       __real@8@3ffd9999999999999800 004f6b28     PacketParser.obj
 0002:00003b30       ??_C@_07EDDM@ATTACK?6?$AA@ 004f6b30     PacketParser.obj
 0002:00003b38       __real@4@3ffe99999a0000000000 004f6b38     PacketParser.obj
 0002:00003b3c       __real@4@3ffd99999a0000000000 004f6b3c     PacketParser.obj
 0002:00003b40       ??_C@_0BM@LOAL@PKT_ATTACK_ARROW?$LI?$KG?5?$LJ?$NO?$LO?R?$LE?Y?4?6?$AA@ 004f6b40     PacketParser.obj
 0002:00003b5c       ??_C@_03DHMP@?5?3?5?$AA@   004f6b5c     PacketParser.obj
 0002:00003b60       ??_C@_0BM@FHIF@PKT_MAGIC_RAIL?$LI?$KG?5?$LJ?$NO?$LO?R?$LE?Y?4?$CFd?6?$AA@ 004f6b60     PacketParser.obj
 0002:00003b7c       ??_C@_0BF@HEEA@DIR?5?$CFd?5USERCOUNT?5?$CFd?6?$AA@ 004f6b7c     PacketParser.obj
 0002:00003b94       ??_C@_0BJ@LLHF@PKT_MAGIC_READY?5?$LJ?$NO?$LO?R?$LE?Y?4?6?$AA@ 004f6b94     PacketParser.obj
 0002:00003bb0       ??_C@_0BO@CGFD@PKT_MAGIC_CIRCLE?$LI?$KG?5?$LJ?$NO?$LO?R?$LE?Y?4?$CFd?6?$AA@ 004f6bb0     PacketParser.obj
 0002:00003bd0       ??_C@_0BG@GMLM@PKT_POSION?$LI?$KG?5?$LJ?$NO?$LO?R?$LE?Y?4?6?$AA@ 004f6bd0     PacketParser.obj
 0002:00003be8       ??_C@_0P@POPI@NightState?5?$CFd?6?$AA@ 004f6be8     PacketParser.obj
 0002:00003bf8       ??_7CPathFind@@6B@         004f6bf8     PathFind.obj
 0002:00003bfc       ??_C@_0CA@CPHI@?$LI?q?$MA?$PL?A?v?$LA?$KB?5?$LA?$KF?5?$LM?v?5?$LO?x?$LE?B?5?$LB?f?$MA?L?$LE?Y?4?4?4?4?6?$AA@ 004f6bfc     PathFind.obj
 0002:00003c1c       ??_C@_0BE@NNCE@?$LP?$LF?$LP?$KK?$MA?$LL?5?$LJ?$PO?$LO?n?5?$LD?$LF?$LE?Y?4?4?6?$AA@ 004f6c1c     PathFind.obj
 0002:00003c30       ??_C@_0P@GIBO@Lock?5?$FL?$CFd?0?5?$CFd?$FN?6?$AA@ 004f6c30     PathFind.obj
 0002:00003c40       ??_C@_0P@OEHN@Free?5?$FL?$CFd?0?5?$CFd?$FN?6?$AA@ 004f6c40     PathFind.obj
 0002:00003c50       ??_7CRain@@6B@             004f6c50     Rain.obj
 0002:00003c54       ??_C@_02JKAF@rb?$AA@       004f6c54     Rain.obj
 0002:00003c58       ??_7?$CArray@PAGPAG@@6B@   004f6c58     Rain.obj
 0002:00003c6c       ??_7?$CArray@PAU_SPR_LSP@@PAU1@@@6B@ 004f6c6c     Rain.obj
 0002:00003c80       ??_7SLoadingView@@6B@      004f6c80     SLoadingView.obj
 0002:00003cd4       ??_C@_08EEJI@?$CFs?$CFd?4lib?$AA@ 004f6cd4     SLoadingView.obj
 0002:00003ce0       ??_7SocketMng@@6B@         004f6ce0     SocketMng.obj
 0002:00003ce4       ??_C@_0BJ@PNFP@?$LI?$KO?$LN?C?$LK?j?$LP?$KB?$LM?$KN?5?$LP?$KB?$LH?$KP?$LA?$KB?5?$LD?$LF?$LE?Y?4?6?$AA@ 004f6ce4     SocketMng.obj
 0002:00003d00       ??_C@_0BN@GPAJ@?$MA?g?5?A?$KC?$LM?S?$MA?$LL?5?$LN?C?$LF?$LF?5?G?O?$LN?C?$LA?Z?$LN?$MA?$LE?O?$LB?n?$DP?$AA@ 004f6d00     SocketMng.obj
 0002:00003d20       ??_C@_0P@IHFE@?$LM?R?D?O?5?$LL?$PN?$LM?$LK?5?$LN?G?F?P?$AA@ 004f6d20     SocketMng.obj
 0002:00003d30       ??_C@_0BP@DEGI@?$LA?T?$MA?S?5?A?$KC?$LM?S?$MA?$LL?5?$LN?C?$LF?$LF?5?G?O?$LN?C?$LA?Z?$LN?$MA?$LE?O?$LB?n?$DP?$AA@ 004f6d30     SocketMng.obj
 0002:00003d50       ??_C@_0BE@ICML@?$LA?T?$MA?S?5?$LM?R?D?O?5?$LL?$PN?$LM?$LK?5?$LN?G?F?P?$AA@ 004f6d50     SocketMng.obj
 0002:00003d64       ??_C@_0N@KPJO@Login?4?4?4?4?$CB?$CB?6?$AA@ 004f6d64     SocketMng.obj
 0002:00003d74       ??_C@_06OCPL@?1clear?$AA@  004f6d74     SocketMng.obj
 0002:00003d7c       ??_7?$CTypedPtrList@VCPtrList@@PAVDataPack@@@@6B@ 004f6d7c     SocketMng.obj
 0002:00003d90       ??_7?$_CTypedPtrList@VCPtrList@@PAVDataPack@@@@6B@ 004f6d90     SocketMng.obj
 0002:00003da8       ?messageMap@CSomaApp@@1UAFX_MSGMAP@@B 004f6da8     Soma.obj
 0002:00003db0       ?_messageEntries@CSomaApp@@0QBUAFX_MSGMAP_ENTRY@@B 004f6db0     Soma.obj
 0002:00003dc8       ??_7CSomaApp@@6B@          004f6dc8     Soma.obj
 0002:00003e6c       ??_C@_06MAOA@Menics?$AA@   004f6e6c     Soma.obj
 0002:00003e74       ??_C@_0EF@JBMD@Warning?3?5m_pMainWnd?5is?5NULL?5in?5C@ 004f6e74     Soma.obj
 0002:00003ec0       __real@8@3ff98efa331f888b4000 004f6ec0     SWater.obj
 0002:00003ec8       ??_7CTileMapTool@@6B@      004f6ec8     tilemaptool.obj
 0002:00003ecc       ??_7CTileSetTool@@6B@      004f6ecc     tilesettool.obj
 0002:00003ed0       ??_C@_0BJ@LOBL@?E?$LI?$MA?O?$LM?B?5?F?D?$MA?O?5?$LP?$KN?$LB?b?5?$LN?G?F?P?5?3?5?$AA@ 004f6ed0     tilesettool.obj
 0002:00003eec       ??_7?$CMap@HHPAV_TILE_SET_TOOL@@PAV1@@@6B@ 004f6eec     tilesettool.obj
 0002:00003f00       ??_7CTransObjData@@6B@     004f6f00     TransObj.obj
 0002:00003f04       ??_7CTransObj@@6B@         004f6f04     TransObj.obj
 0002:00003f08       ??_7?$CMap@HHPAVCTransObjData@@PAV1@@@6B@ 004f6f08     TransObj.obj
 0002:00003f1c       ??_C@_07GJAC@Display?$AA@  004f6f1c     TWFont.obj
 0002:00003f24       ??_C@_04LKOA@?4mxf?$AA@    004f6f24     TWFont.obj
 0002:00003f2c       ??_C@_0BD@HBDD@SplitString?5Error?6?$AA@ 004f6f2c     TWFont.obj
 0002:00003f40       ??_7CUIHorzScrollBar@@6B@  004f6f40     UIHorzScrollBar.obj
 0002:00003f44       ??_7CUIRes@@6B@            004f6f44     UIRes.obj
 0002:00003f98       ??_7?$CTypedPtrArray@VCPtrArray@@PAVMAreaCtrl@@@@6B@ 004f6f98     UIRes.obj
 0002:00003fac       ??_7?$CTypedPtrArray@VCPtrArray@@PAVMBtnCtrl@@@@6B@ 004f6fac     UIRes.obj
 0002:00003fc0       ??_7?$CTypedPtrArray@VCPtrArray@@PAVMBtnCtrlEx@@@@6B@ 004f6fc0     UIRes.obj
 0002:00003fd4       ??_7?$CTypedPtrArray@VCPtrArray@@PAVMRectManager@@@@6B@ 004f6fd4     UIRes.obj
 0002:00003fe8       ??_C@_0BA@LOHM@DIALOG?5LIBRARY?4?$AA@ 004f6fe8     UIRes.obj
 0002:00003ff8       ??_C@_0CH@EMFO@File?$CI?$CCDlg?2?$CFs?$CC?$CJ?$LI?$KG?5Load?G?R?5?$LM?v?5?$LO?x?$LN?$MA?$LE@ 004f6ff8     UIRes.obj
 0002:00004020       ??_C@_04JIOJ@dlg?2?$AA@    004f7020     UIRes.obj
 0002:00004028       ??_C@_0M@OMGG@State?5?$DN?5?$CFd?6?$AA@ 004f7028     UIRes.obj
 0002:00004034       ??_C@_0CG@BGB@CScreen?3?3OnButtonAction?5nID?5?$DN?5?$CFd@ 004f7034     UIRes.obj
 0002:0000405c       ??_C@_0CK@EPDO@CScreen?3?3OnButtonActionContinue?5@ 004f705c     UIRes.obj
 0002:00004088       ??_7CUIScrollBar@@6B@      004f7088     UIScrollBar.obj
 0002:0000408c       ??_C@_0CD@FDDA@D?3?2soma?2SomaClient?2UIScrollBar?4c@ 004f708c     UIScrollBar.obj
 0002:000040b0       ??_7CUser@@6B@             004f70b0     User.obj
 0002:000040b4       ??_7?$CTypedPtrArray@VCPtrArray@@PAVCMyMagicData@@@@6B@ 004f70b4     User.obj
 0002:000040c8       ??_C@_0BP@BMNM@Character?5Resource?$CI?$CFd?$CJ?$LA?$KB?5?$LO?x?$MA?$LN?6?$AA@ 004f70c8     User.obj
 0002:000040e8       ??_C@_0BO@HABA@timegap?5?$DN?5?$CFd?5?0?5m_Cur_Fa?5?$DN?5?$CFd?6?$AA@ 004f70e8     User.obj
 0002:00004108       ??_C@_0BF@OBHG@?A?B?G?$KF?$LA?$KB?5?$MA?L?$LL?s?G?O?$LE?Y?4?4?43?6?$AA@ 004f7108     User.obj
 0002:00004120       ??_C@_0BM@LBDO@?$LM?$LP?B?w?$MA?L?$LD?$KK?5?$LD?Q?5?$LI?$LJ?$MA?L?$LD?$KK?$LM?$KN?A?$KB?G?A?4?4?6?$AA@ 004f7120     User.obj
 0002:0000413c       ??_C@_0BF@PHNM@?A?B?G?$KF?$LA?$KB?5?$MA?L?$LL?s?G?O?$LE?Y?4?4?42?6?$AA@ 004f713c     User.obj
 0002:00004154       ??_C@_0BF@MMCD@?A?B?G?$KF?$LA?$KB?5?$MA?L?$LL?s?G?O?$LE?Y?4?4?41?6?$AA@ 004f7154     User.obj
 0002:0000416c       ??_C@_0BN@LIIO@NPC?$LA?$KB?$MA?L?$LF?$LP?G?O?$LH?A?$LE?B?A?$KB?4?4?$FL?$CFd?0?5?$CFd?$FN?6?$AA@ 004f716c     User.obj
 0002:0000418c       ??_C@_0CD@IFJM@?$MA?L?$LF?$LP?$LM?S?$LF?$LF?$LI?$KG?5?$LK?$PM?$LI?$KD?$LA?T?4?4?4?4?4?4?4?4?4?4?4?4?4?4?4@ 004f718c     User.obj
 0002:000041b0       ??_C@_0CD@MEHB@m_Position?$DN?$FL?$CFd?$FN?$FL?$CFd?$FN?0?5pos?$DN?$FL?$CFd?$FN?$FL?$CFd@ 004f71b0     User.obj
 0002:000041d4       ??_C@_0BN@OLPG@?C?b?$LJ?$NP?A?$KB?$LA?z?5?$LI?q?$MA?$PL?A?v?$LA?$KB?5?$LF?$LP?$MA?O?G?O?$LE?Y?4?6?$AA@ 004f71d4     User.obj
 0002:000041f4       ??_C@_0BC@FNHL@?$LP?r?A?w?$MA?L?A?v?5?$LI?x?G?T?$DP?$DP?$DP?6?$AA@ 004f71f4     User.obj
 0002:00004208       ??_C@_0BH@EJLP@?$LA?$KB?$LE?Y?$LA?$KB?5?$LI?$LH?H?y?$LE?Y?$LD?$NP?4?4?9?9?$DL?$DL?6?$AA@ 004f7208     User.obj
 0002:00004220       ??_C@_0BM@LIKP@first?$FL?$CFd?0?$CFd?$FN?5?3?5next?$FL?$CFd?0?$CFd?$FN?6?$AA@ 004f7220     User.obj
 0002:0000423c       ??_C@_0BJ@JGLP@Send?5PKT_RUN_MOVEMIDDLE?3?$AA@ 004f723c     User.obj
 0002:00004258       ??_C@_0BG@IHGB@Send?5PKT_RUN_MOVEEND?3?$AA@ 004f7258     User.obj
 0002:00004270       ??_C@_0BH@CNAF@3?$LP?$KB?$LH?$KP?4?4?5?9?5?$CFd?5?9?5?$CI?$CFd?0?$CFd?$CJ?$AA@ 004f7270     User.obj
 0002:00004288       ??_C@_0BB@PNKI@2?5?9?5?$CFd?5?9?5?$CI?$CFd?0?$CFd?$CJ?$AA@ 004f7288     User.obj
 0002:0000429c       ??_C@_0CA@OJKK@?$LP?l?$LM?$KO?4?4send?5PKT_MOVEEND?5?$CI?$CFd?0?$CFd?$CJ?6?$AA@ 004f729c     User.obj
 0002:000042bc       ??_C@_0CB@CHJI@?$LP?l?$LM?$KO?4Send?5PKT_MOVEMIDDLE?$CI?$CFd?0?$CFd?$CJ?6@ 004f72bc     User.obj
 0002:000042e0       ??_C@_0BO@PAHM@?$LP?l?$LM?$KO?4Send?5PKT_MOVEEND?$CI?$CFd?0?$CFd?$CJ?6?$AA@ 004f72e0     User.obj
 0002:00004300       ??_C@_0BE@OFMO@?A?B?G?$KF?$LA?$KB?5?$MA?L?$LL?s?G?O?$LE?Y?4?4?4?6?$AA@ 004f7300     User.obj
 0002:00004314       ??_C@_0BH@GDOL@SetMotion?$CI?$CFd?$CJ?5Fail?$CB?$CB?$CB?6?$AA@ 004f7314     User.obj
 0002:0000432c       ??_7?$CArray@PAVCMagic@@PAV1@@@6B@ 004f732c     User.obj
 0002:00004340       ??_7?$CArray@VCString@@V1@@@6B@ 004f7340     User.obj
 0002:00004354       ??_7?$CArray@U_TAG_FLY_END_MAGIC@@U1@@@6B@ 004f7354     User.obj
 0002:00004368       ??_7?$CArray@U_TAG_APPLIED_CON_MAGIC@@U1@@@6B@ 004f7368     User.obj
 0002:0000437c       ??_7?$CMap@HHPAVCMyMagicData@@PAV1@@@6B@ 004f737c     User.obj
 0002:00004390       ??_7?$CList@VCPoint@@V1@@@6B@ 004f7390     User.obj
 0002:000043a4       ??_7CUserManager@@6B@      004f73a4     UserManager.obj
 0002:000043a8       ??_7?$CTypedPtrArray@VCPtrArray@@PAU_TAG_ACTION_INFO@@@@6B@ 004f73a8     UserManager.obj
 0002:000043bc       ??_C@_0BA@LOCK@?$CFd?$LJ?x?5?$MA?$KP?$MA?z?5?A?v?$LP?r?6?$AA@ 004f73bc     UserManager.obj
 0002:000043cc       ??_C@_0O@FEKG@MoveStep?5?$DN?50?6?$AA@ 004f73cc     UserManager.obj
 0002:000043dc       ??_C@_0BF@IPFH@Modify?5?$CFs?$CI?$CFd?$CJ?9?$CFd?0?$CFd?6?$AA@ 004f73dc     UserManager.obj
 0002:000043f4       ??_C@_0BM@IMMF@?$LL?u?$LH?N?$LP?n?5?$MA?$KP?$MA?z?$LI?$KG?5?$MA?P?$LO?n?5?$LF?i?$MA?N?$LE?Y?4?6?$AA@ 004f73f4     UserManager.obj
 0002:00004410       ??_C@_0BN@GNAL@modify?$LI?$KG?5?$LJ?$NO?$LO?R?$LE?Y?4?4?4?5?$FL?$CFd?0?5?$CFd?$FN?6?$AA@ 004f7410     UserManager.obj
 0002:00004430       ??_C@_0BE@LDO@?5?$LD?$KK?5?$LP?J?5?$LE?Y?$MA?T?$MA?$LN?4?4?4?$CB?4?6?$AA@ 004f7430     UserManager.obj
 0002:00004444       ??_C@_0BH@IGP@?$LA?x?$LA?$NN?$MA?$KH?D?$KB?$LA?$KB?5?$LI?B?A?v?$LO?J?$LE?Y?4?4?6?$AA@ 004f7444     UserManager.obj
 0002:0000445c       ??_C@_0BO@OOKL@?$MA?P?$MA?$LK?5?$LI?$LG?$LJ?$PN?5?E?W?$MA?L?$LK?m?5?C?Q?5?G?W?$LI?q?3?5?$CFd?6?$AA@ 004f745c     UserManager.obj
 0002:0000447c       ??_C@_0CC@FGJG@?$LI?$LG?$LJ?$PN?E?W?$MA?L?$LK?m?$MA?$LL?5?$MA?P?A?v?5?$LI?x?G?$NP?$LN?$MA?$LE?O?$LE?Y?4?4?4?4@ 004f747c     UserManager.obj
 0002:000044a0       ??_C@_0BF@IEGO@?$CFsMagicRes?2magic?4tbl?$AA@ 004f74a0     UserManager.obj
 0002:000044b8       ??_C@_03HMFC@?$CFd?6?$AA@  004f74b8     UserManager.obj
 0002:000044bc       ??_C@_0P@HNBD@?5PDestUid?3?5?$CFd?6?$AA@ 004f74bc     UserManager.obj
 0002:000044cc       ??_C@_0BH@JKFH@AType?3?$CFd?5TableNum?3?$CFd?5?6?$AA@ 004f74cc     UserManager.obj
 0002:000044e4       ??_C@_0CC@KKCN@1?5SUID?3?$CFd?5DUID?3?$CFd?5MagicIndex?3?$CFd?5@ 004f74e4     UserManager.obj
 0002:00004508       ??_C@_0O@LGDC@POISONAFFECT?6?$AA@ 004f7508     UserManager.obj
 0002:00004518       ??_C@_0BE@MKCI@?$LE?k?$LL?s?5?D?$LD?$LI?$KP?E?M?$LA?$KB?5?$LO?x?$LE?Y?6?$AA@ 004f7518     UserManager.obj
 0002:0000452c       ??_C@_0N@EMLK@DestUid?5?3?$CFd?6?$AA@ 004f752c     UserManager.obj
 0002:0000453c       ??_C@_0BM@FIGJ@TABLENUM?3?5?$CFd?5ID?3?5?$CFd?5?$LM?$LD?A?$KE?$LF?J?6?$AA@ 004f753c     UserManager.obj
 0002:00004558       ??_C@_0CC@KEAN@2?5SUID?3?$CFd?5DUID?3?$CFd?5MagicIndex?3?$CFd?5@ 004f7558     UserManager.obj
 0002:0000457c       ??_C@_04HHEG@?4?4?4?6?$AA@ 004f757c     UserManager.obj
 0002:00004584       ??_C@_09LNCF@add?5?9?5?$CFd?6?$AA@ 004f7584     UserManager.obj
 0002:00004590       ??_C@_05MEKF@?$LN?G?F?P?6?$AA@ 004f7590     UserManager.obj
 0002:00004598       ??_C@_0CE@LALN@Send?5SUID?3?$CFd?5DUID?3?$CFd?5MagicIndex?3@ 004f7598     UserManager.obj
 0002:000045bc       ??_C@_06CMFP@?$CFd?5?$CFd?6?$AA@ 004f75bc     UserManager.obj
 0002:000045c4       ??_C@_0BI@IGA@?$LE?k?$LL?s?$MA?Z?$LA?$KB?5?$LO?x?$LO?n?5?$LM?R?$LI?j?$LN?C?E?$LE?6?$AA@ 004f75c4     UserManager.obj
 0002:000045e0       __real@8@bffeec84b5dcc63f1800 004f75e0     UserManager.obj
 0002:000045e8       __real@8@bffdc3f141205bc01800 004f75e8     UserManager.obj
 0002:000045f0       __real@8@3ffdc3f141205bc01800 004f75f0     UserManager.obj
 0002:000045f8       __real@8@3ffeec84b5dcc63f1800 004f75f8     UserManager.obj
 0002:00004600       ??_C@_0BJ@JPND@PKT_MAGIC_READY?5?$LK?$LI?$LD?B?$LE?Y?4?6?$AA@ 004f7600     UserManager.obj
 0002:0000461c       ??_C@_0CF@GBL@PKT_ATTACK_ARROW?5?$LE?k?$LL?s?$MA?Z?$LA?$KB?5?$LO?x?$LO?n?5?$LN@ 004f761c     UserManager.obj
 0002:00004644       ??_C@_0M@DFOI@?$LI?E?A?w?$LL?g?$LP?k?A?$NP?6?$AA@ 004f7644     UserManager.obj
 0002:00004650       ??_C@_0N@NHLH@?$LK?q?$LJ?$KL?$MA?e?$MA?L?$LE?Y?4?6?$AA@ 004f7650     UserManager.obj
 0002:00004660       ??_C@_0N@EGN@?$LA?x?$LA?$NN?A?$NP?$MA?L?$LE?Y?4?6?$AA@ 004f7660     UserManager.obj
 0002:00004670       ??_C@_0BK@JAIG@PKT_MAGIC_CIRCLE?5?$LK?$LI?$LD?B?$LE?Y?4?6?$AA@ 004f7670     UserManager.obj
 0002:0000468c       ??_C@_0BP@ILFF@PKT_ATTACK_MAGIC_RAIL?5?$LK?$LI?$LD?B?$LE?Y?4?6?$AA@ 004f768c     UserManager.obj
 0002:000046ac       ??_C@_0BK@KPOO@PKT_ATTACK_ARROW?5?$LK?$LI?$LD?B?$LE?Y?4?6?$AA@ 004f76ac     UserManager.obj
 0002:000046c8       ??_C@_0CG@NGNI@?$MA?$PL?$LA?z?5?A?$LG?$LB?$NN?5?$LG?$LD?$LO?n?A?$KO?5?$MA?V?$LO?n?$LM?$KN?5?$MA?L?$LF?$LP?$MA?$LL?5?G@ 004f76c8     UserManager.obj
 0002:000046f0       ??_C@_0CI@KFD@?$MA?$PM?$LP?$KB?5?$LK?$LI?$LD?$LN?5?$LA?x?$LA?$NN?5?F?P?E?$LG?$MA?G?5?$LE?k?$LE?d?$MA?$LL?5?$LI?x?$LJ@ 004f76f0     UserManager.obj
 0002:00004718       ??_C@_0CK@NNCM@?$LI?$LG?$LJ?$PN?$MA?$LL?5?$LM?$LD?A?$KE?G?R?5?$LE?k?$LL?s?5?D?$LD?$LI?$KP?E?M?$LO?x?$MA?$LN?5?3?5@ 004f7718     UserManager.obj
 0002:00004744       ??_C@_0BI@BAEE@?$CK?$CK?$CKInvalid?5User?5ID?$CI?$CFd?$CJ?6?$AA@ 004f7744     UserManager.obj
 0002:0000475c       ??_C@_0BG@GDG@?$CK?$CK?$CKValid?5User?5ID?$CI?$CFd?$CJ?6?$AA@ 004f775c     UserManager.obj
 0002:00004774       ??_7?$CTypedPtrList@VCPtrList@@PAVCMagic@@@@6B@ 004f7774     UserManager.obj
 0002:00004788       ??_7?$_CTypedPtrList@VCPtrList@@PAVCMagic@@@@6B@ 004f7788     UserManager.obj
 0002:0000479c       ??_7?$CMap@HHPAVCUser@@PAV1@@@6B@ 004f779c     UserManager.obj
 0002:000047b0       ??_7?$CArray@PAU_TAG_SET_MAGIC_INFO@@PAU1@@@6B@ 004f77b0     UserManager.obj
 0002:000047c4       ??_7?$CArray@PAU_TAG_MAGIC_TABLE@@PAU1@@@6B@ 004f77c4     UserManager.obj
 0002:000047d8       ??_7?$CArray@U_TAG_DEAD_INFO@@U1@@@6B@ 004f77d8     UserManager.obj
 0002:000047ec       ??_7CWeather@@6B@          004f77ec     Weather.obj
 0002:000047f0       _KSDATAFORMAT_SUBTYPE_DIRECTMUSIC 004f77f0     dxguid:dxguid.obj
 0002:00004800       _KSDATAFORMAT_SUBTYPE_MIDI 004f7800     dxguid:dxguid.obj
 0002:00004810       _IID_IKsControl            004f7810     dxguid:dxguid.obj
 0002:00004820       _IID_IDirectMusicAudioPath 004f7820     dxguid:dxguid.obj
 0002:00004830       _IID_IDirectMusicSong      004f7830     dxguid:dxguid.obj
 0002:00004840       _IID_IDirectMusicContainer 004f7840     dxguid:dxguid.obj
 0002:00004850       _IID_IDirectMusicScript    004f7850     dxguid:dxguid.obj
 0002:00004860       _IID_IDirectMusicPatternTrack 004f7860     dxguid:dxguid.obj
 0002:00004870       _IID_IDirectMusicStyle8    004f7870     dxguid:dxguid.obj
 0002:00004880       _IID_IDirectMusicSegmentState8 004f7880     dxguid:dxguid.obj
 0002:00004890       _IID_IDirectMusicSegment8  004f7890     dxguid:dxguid.obj
 0002:000048a0       _IID_IDirectMusicPerformance8 004f78a0     dxguid:dxguid.obj
 0002:000048b0       _IID_IDirectMusicLoader8   004f78b0     dxguid:dxguid.obj
 0002:000048c0       _IID_IDirectMusicSegment2  004f78c0     dxguid:dxguid.obj
 0002:000048d0       _IID_IDirectMusicPerformance2 004f78d0     dxguid:dxguid.obj
 0002:000048e0       _IID_IDirectMusicBand      004f78e0     dxguid:dxguid.obj
 0002:000048f0       _IID_IDirectMusicComposer  004f78f0     dxguid:dxguid.obj
 0002:00004900       _IID_IDirectMusicChordMap  004f7900     dxguid:dxguid.obj
 0002:00004910       _IID_IDirectMusicStyle     004f7910     dxguid:dxguid.obj
 0002:00004920       _IID_IDirectMusicGraph     004f7920     dxguid:dxguid.obj
 0002:00004930       _IID_IDirectMusicPerformance 004f7930     dxguid:dxguid.obj
 0002:00004940       _IID_IDirectMusicSegmentState 004f7940     dxguid:dxguid.obj
 0002:00004950       _IID_IDirectMusicSegment   004f7950     dxguid:dxguid.obj
 0002:00004960       _IID_IDirectMusicObject    004f7960     dxguid:dxguid.obj
 0002:00004970       _IID_IDirectMusicGetLoader 004f7970     dxguid:dxguid.obj
 0002:00004980       _IID_IDirectMusicLoader    004f7980     dxguid:dxguid.obj
 0002:00004990       _GUID_Buffer_Mono          004f7990     dxguid:dxguid.obj
 0002:000049a0       _GUID_Buffer_3D_Dry        004f79a0     dxguid:dxguid.obj
 0002:000049b0       _GUID_Buffer_Stereo        004f79b0     dxguid:dxguid.obj
 0002:000049c0       _GUID_Buffer_EnvReverb     004f79c0     dxguid:dxguid.obj
 0002:000049d0       _GUID_Buffer_Reverb        004f79d0     dxguid:dxguid.obj
 0002:000049e0       _GUID_Synth_Default        004f79e0     dxguid:dxguid.obj
 0002:000049f0       _GUID_DefaultGMCollection  004f79f0     dxguid:dxguid.obj
 0002:00004a00       _GUID_PerfAutoDownload     004f7a00     dxguid:dxguid.obj
 0002:00004a10       _GUID_PerfMasterGrooveLevel 004f7a10     dxguid:dxguid.obj
 0002:00004a20       _GUID_PerfMasterVolume     004f7a20     dxguid:dxguid.obj
 0002:00004a30       _GUID_PerfMasterTempo      004f7a30     dxguid:dxguid.obj
 0002:00004a40       _GUID_UnloadFromAudioPath  004f7a40     dxguid:dxguid.obj
 0002:00004a50       _GUID_DownloadToAudioPath  004f7a50     dxguid:dxguid.obj
 0002:00004a60       _GUID_Variations           004f7a60     dxguid:dxguid.obj
 0002:00004a70       _GUID_Clear_All_MelodyFragments 004f7a70     dxguid:dxguid.obj
 0002:00004a80       _GUID_MelodyFragment       004f7a80     dxguid:dxguid.obj
 0002:00004a90       _GUID_SeedVariations       004f7a90     dxguid:dxguid.obj
 0002:00004aa0       _GUID_EnableTempo          004f7aa0     dxguid:dxguid.obj
 0002:00004ab0       _GUID_DisableTempo         004f7ab0     dxguid:dxguid.obj
 0002:00004ac0       _GUID_EnableTimeSig        004f7ac0     dxguid:dxguid.obj
 0002:00004ad0       _GUID_DisableTimeSig       004f7ad0     dxguid:dxguid.obj
 0002:00004ae0       _GUID_StandardMIDIFile     004f7ae0     dxguid:dxguid.obj
 0002:00004af0       _GUID_Clear_All_Bands      004f7af0     dxguid:dxguid.obj
 0002:00004b00       _GUID_Disable_Auto_Download 004f7b00     dxguid:dxguid.obj
 0002:00004b10       _GUID_Enable_Auto_Download 004f7b10     dxguid:dxguid.obj
 0002:00004b20       _GUID_ConnectToDLSCollection 004f7b20     dxguid:dxguid.obj
 0002:00004b30       _GUID_Unload               004f7b30     dxguid:dxguid.obj
 0002:00004b40       _GUID_Download             004f7b40     dxguid:dxguid.obj
 0002:00004b50       _GUID_MuteParam            004f7b50     dxguid:dxguid.obj
 0002:00004b60       _GUID_IDirectMusicChordMap 004f7b60     dxguid:dxguid.obj
 0002:00004b70       _GUID_IDirectMusicBand     004f7b70     dxguid:dxguid.obj
 0002:00004b80       _GUID_BandParam            004f7b80     dxguid:dxguid.obj
 0002:00004b90       _GUID_Play_Marker          004f7b90     dxguid:dxguid.obj
 0002:00004ba0       _GUID_Valid_Start_Time     004f7ba0     dxguid:dxguid.obj
 0002:00004bb0       _GUID_TempoParam           004f7bb0     dxguid:dxguid.obj
 0002:00004bc0       _GUID_TimeSignature        004f7bc0     dxguid:dxguid.obj
 0002:00004bd0       _GUID_IDirectMusicStyle    004f7bd0     dxguid:dxguid.obj
 0002:00004be0       _GUID_RhythmParam          004f7be0     dxguid:dxguid.obj
 0002:00004bf0       _GUID_ChordParam           004f7bf0     dxguid:dxguid.obj
 0002:00004c00       _GUID_CommandParamNext     004f7c00     dxguid:dxguid.obj
 0002:00004c10       _GUID_CommandParam2        004f7c10     dxguid:dxguid.obj
 0002:00004c20       _GUID_CommandParam         004f7c20     dxguid:dxguid.obj
 0002:00004c30       _GUID_NOTIFICATION_RECOMPOSE 004f7c30     dxguid:dxguid.obj
 0002:00004c40       _GUID_NOTIFICATION_COMMAND 004f7c40     dxguid:dxguid.obj
 0002:00004c50       _GUID_NOTIFICATION_CHORD   004f7c50     dxguid:dxguid.obj
 0002:00004c60       _GUID_NOTIFICATION_MEASUREANDBEAT 004f7c60     dxguid:dxguid.obj
 0002:00004c70       _GUID_NOTIFICATION_PERFORMANCE 004f7c70     dxguid:dxguid.obj
 0002:00004c80       _GUID_NOTIFICATION_SEGMENT 004f7c80     dxguid:dxguid.obj
 0002:00004c90       _GUID_DirectMusicAllTypes  004f7c90     dxguid:dxguid.obj
 0002:00004ca0       _CLSID_DirectMusicAudioPathConfig 004f7ca0     dxguid:dxguid.obj
 0002:00004cb0       _CLSID_DirectMusicSong     004f7cb0     dxguid:dxguid.obj
 0002:00004cc0       _CLSID_DirectSoundWave     004f7cc0     dxguid:dxguid.obj
 0002:00004cd0       _CLSID_DirectMusicContainer 004f7cd0     dxguid:dxguid.obj
 0002:00004ce0       _CLSID_DirectMusicScript   004f7ce0     dxguid:dxguid.obj
 0002:00004cf0       _CLSID_DirectMusicPatternTrack 004f7cf0     dxguid:dxguid.obj
 0002:00004d00       _CLSID_DirectMusicBand     004f7d00     dxguid:dxguid.obj
 0002:00004d10       _CLSID_DirectMusicLoader   004f7d10     dxguid:dxguid.obj
 0002:00004d20       _CLSID_DirectMusicComposer 004f7d20     dxguid:dxguid.obj
 0002:00004d30       _CLSID_DirectMusicChordMap 004f7d30     dxguid:dxguid.obj
 0002:00004d40       _CLSID_DirectMusicStyle    004f7d40     dxguid:dxguid.obj
 0002:00004d50       _CLSID_DirectMusicGraph    004f7d50     dxguid:dxguid.obj
 0002:00004d60       _CLSID_DirectMusicSegmentState 004f7d60     dxguid:dxguid.obj
 0002:00004d70       _CLSID_DirectMusicSegment  004f7d70     dxguid:dxguid.obj
 0002:00004d80       _CLSID_DirectMusicPerformance 004f7d80     dxguid:dxguid.obj
 0002:00004d90       _IID_IDirectMusicTrack8    004f7d90     dxguid:dxguid.obj
 0002:00004da0       _IID_IDirectMusicTool8     004f7da0     dxguid:dxguid.obj
 0002:00004db0       _IID_IDirectMusicTool      004f7db0     dxguid:dxguid.obj
 0002:00004dc0       _IID_IDirectMusicTrack     004f7dc0     dxguid:dxguid.obj
 0002:00004dd0       _CLSID_DirectMusicWaveTrack 004f7dd0     dxguid:dxguid.obj
 0002:00004de0       _CLSID_DirectMusicMelodyFormulationTrack 004f7de0     dxguid:dxguid.obj
 0002:00004df0       _CLSID_DirectMusicParamControlTrack 004f7df0     dxguid:dxguid.obj
 0002:00004e00       _CLSID_DirectMusicLyricsTrack 004f7e00     dxguid:dxguid.obj
 0002:00004e10       _CLSID_DirectMusicSegmentTriggerTrack 004f7e10     dxguid:dxguid.obj
 0002:00004e20       _CLSID_DirectMusicMarkerTrack 004f7e20     dxguid:dxguid.obj
 0002:00004e30       _CLSID_DirectMusicScriptTrack 004f7e30     dxguid:dxguid.obj
 0002:00004e40       _CLSID_DirectMusicMuteTrack 004f7e40     dxguid:dxguid.obj
 0002:00004e50       _CLSID_DirectMusicChordMapTrack 004f7e50     dxguid:dxguid.obj
 0002:00004e60       _CLSID_DirectMusicBandTrack 004f7e60     dxguid:dxguid.obj
 0002:00004e70       _CLSID_DirectMusicSignPostTrack 004f7e70     dxguid:dxguid.obj
 0002:00004e80       _CLSID_DirectMusicMotifTrack 004f7e80     dxguid:dxguid.obj
 0002:00004e90       _CLSID_DirectMusicStyleTrack 004f7e90     dxguid:dxguid.obj
 0002:00004ea0       _CLSID_DirectMusicCommandTrack 004f7ea0     dxguid:dxguid.obj
 0002:00004eb0       _CLSID_DirectMusicChordTrack 004f7eb0     dxguid:dxguid.obj
 0002:00004ec0       _CLSID_DirectMusicTimeSigTrack 004f7ec0     dxguid:dxguid.obj
 0002:00004ed0       _CLSID_DirectMusicSysExTrack 004f7ed0     dxguid:dxguid.obj
 0002:00004ee0       _CLSID_DirectMusicSeqTrack 004f7ee0     dxguid:dxguid.obj
 0002:00004ef0       _CLSID_DirectMusicTempoTrack 004f7ef0     dxguid:dxguid.obj
 0002:00004f00       _GUID_DMUS_PROP_Volume     004f7f00     dxguid:dxguid.obj
 0002:00004f10       _GUID_DMUS_PROP_LegacyCaps 004f7f10     dxguid:dxguid.obj
 0002:00004f20       _GUID_DMUS_PROP_Effects    004f7f20     dxguid:dxguid.obj
 0002:00004f30       _GUID_DMUS_PROP_WavesReverb 004f7f30     dxguid:dxguid.obj
 0002:00004f40       _GUID_DMUS_PROP_MemorySize 004f7f40     dxguid:dxguid.obj
 0002:00004f50       _GUID_DMUS_PROP_WritePeriod 004f7f50     dxguid:dxguid.obj
 0002:00004f60       _GUID_DMUS_PROP_WriteLatency 004f7f60     dxguid:dxguid.obj
 0002:00004f70       _GUID_DMUS_PROP_SamplePlaybackRate 004f7f70     dxguid:dxguid.obj
 0002:00004f80       _GUID_DMUS_PROP_SampleMemorySize 004f7f80     dxguid:dxguid.obj
 0002:00004f90       _GUID_DMUS_PROP_SynthSink_WAVE 004f7f90     dxguid:dxguid.obj
 0002:00004fa0       _GUID_DMUS_PROP_SynthSink_DSOUND 004f7fa0     dxguid:dxguid.obj
 0002:00004fb0       _GUID_DMUS_PROP_INSTRUMENT2 004f7fb0     dxguid:dxguid.obj
 0002:00004fc0       _GUID_DMUS_PROP_DLS2       004f7fc0     dxguid:dxguid.obj
 0002:00004fd0       _GUID_DMUS_PROP_DLS1       004f7fd0     dxguid:dxguid.obj
 0002:00004fe0       _GUID_DMUS_PROP_GS_Capable 004f7fe0     dxguid:dxguid.obj
 0002:00004ff0       _GUID_DMUS_PROP_XG_Capable 004f7ff0     dxguid:dxguid.obj
 0002:00005000       _GUID_DMUS_PROP_XG_Hardware 004f8000     dxguid:dxguid.obj
 0002:00005010       _GUID_DMUS_PROP_GS_Hardware 004f8010     dxguid:dxguid.obj
 0002:00005020       _GUID_DMUS_PROP_GM_Hardware 004f8020     dxguid:dxguid.obj
 0002:00005030       _IID_IDirectMusic8         004f8030     dxguid:dxguid.obj
 0002:00005040       _IID_IDirectMusic2         004f8040     dxguid:dxguid.obj
 0002:00005050       _IID_IDirectMusicDownloadedInstrument 004f8050     dxguid:dxguid.obj
 0002:00005060       _IID_IDirectMusicInstrument 004f8060     dxguid:dxguid.obj
 0002:00005070       _IID_IDirectMusicCollection 004f8070     dxguid:dxguid.obj
 0002:00005080       _IID_IDirectMusicDownload  004f8080     dxguid:dxguid.obj
 0002:00005090       _IID_IDirectMusicPortDownload 004f8090     dxguid:dxguid.obj
 0002:000050a0       _IID_IDirectMusicThru      004f80a0     dxguid:dxguid.obj
 0002:000050b0       _IID_IDirectMusicPort      004f80b0     dxguid:dxguid.obj
 0002:000050c0       _IID_IDirectMusicBuffer    004f80c0     dxguid:dxguid.obj
 0002:000050d0       _IID_IDirectMusic          004f80d0     dxguid:dxguid.obj
 0002:000050e0       _CLSID_DirectMusicSynth    004f80e0     dxguid:dxguid.obj
 0002:000050f0       _CLSID_DirectMusicCollection 004f80f0     dxguid:dxguid.obj
 0002:00005100       _CLSID_DirectMusic         004f8100     dxguid:dxguid.obj
 0002:00005110       _IID_IDirectPlay8LobbyClient 004f8110     dxguid:dxguid.obj
 0002:00005120       _IID_IDirectPlay8LobbiedApplication 004f8120     dxguid:dxguid.obj
 0002:00005130       _CLSID_DirectPlay8LobbyClient 004f8130     dxguid:dxguid.obj
 0002:00005140       _CLSID_DirectPlay8LobbiedApplication 004f8140     dxguid:dxguid.obj
 0002:00005150       _DPVCTGUID_VR12            004f8150     dxguid:dxguid.obj
 0002:00005160       _DPVCTGUID_TRUESPEECH      004f8160     dxguid:dxguid.obj
 0002:00005170       _DPVCTGUID_SC06            004f8170     dxguid:dxguid.obj
 0002:00005180       _DPVCTGUID_SC03            004f8180     dxguid:dxguid.obj
 0002:00005190       _DPVCTGUID_NONE            004f8190     dxguid:dxguid.obj
 0002:000051a0       _DPVCTGUID_GSM             004f81a0     dxguid:dxguid.obj
 0002:000051b0       _DPVCTGUID_ADPCM           004f81b0     dxguid:dxguid.obj
 0002:000051c0       _IID_IDirectPlayVoiceTest  004f81c0     dxguid:dxguid.obj
 0002:000051d0       _IID_IDirectPlayVoiceServer 004f81d0     dxguid:dxguid.obj
 0002:000051e0       _IID_IDirectPlayVoiceClient 004f81e0     dxguid:dxguid.obj
 0002:000051f0       _CLSID_DirectPlayVoiceTest 004f81f0     dxguid:dxguid.obj
 0002:00005200       _CLSID_DirectPlayVoiceServer 004f8200     dxguid:dxguid.obj
 0002:00005210       _CLSID_DirectPlayVoiceClient 004f8210     dxguid:dxguid.obj
 0002:00005220       _GUID_DSCFX_SYSTEM_NS      004f8220     dxguid:dxguid.obj
 0002:00005230       _GUID_DSCFX_MS_NS          004f8230     dxguid:dxguid.obj
 0002:00005240       _GUID_DSCFX_CLASS_NS       004f8240     dxguid:dxguid.obj
 0002:00005250       _GUID_DSCFX_SYSTEM_AEC     004f8250     dxguid:dxguid.obj
 0002:00005260       _GUID_DSCFX_MS_AEC         004f8260     dxguid:dxguid.obj
 0002:00005270       _GUID_DSCFX_CLASS_AEC      004f8270     dxguid:dxguid.obj
 0002:00005280       _GUID_DSFX_WAVES_REVERB    004f8280     dxguid:dxguid.obj
 0002:00005290       _GUID_DSFX_STANDARD_I3DL2REVERB 004f8290     dxguid:dxguid.obj
 0002:000052a0       _GUID_DSFX_STANDARD_PARAMEQ 004f82a0     dxguid:dxguid.obj
 0002:000052b0       _GUID_DSFX_STANDARD_COMPRESSOR 004f82b0     dxguid:dxguid.obj
 0002:000052c0       _GUID_DSFX_STANDARD_DISTORTION 004f82c0     dxguid:dxguid.obj
 0002:000052d0       _GUID_DSFX_STANDARD_ECHO   004f82d0     dxguid:dxguid.obj
 0002:000052e0       _GUID_DSFX_STANDARD_FLANGER 004f82e0     dxguid:dxguid.obj
 0002:000052f0       _GUID_DSFX_STANDARD_CHORUS 004f82f0     dxguid:dxguid.obj
 0002:00005300       _GUID_DSFX_STANDARD_GARGLE 004f8300     dxguid:dxguid.obj
 0002:00005310       _DS3DALG_HRTF_LIGHT        004f8310     dxguid:dxguid.obj
 0002:00005320       _DS3DALG_HRTF_FULL         004f8320     dxguid:dxguid.obj
 0002:00005330       _DS3DALG_NO_VIRTUALIZATION 004f8330     dxguid:dxguid.obj
 0002:00005340       _IID_IDirectSoundFullDuplex 004f8340     dxguid:dxguid.obj
 0002:00005350       _IID_IDirectSoundCaptureFXNoiseSuppress 004f8350     dxguid:dxguid.obj
 0002:00005360       _IID_IDirectSoundCaptureFXAec 004f8360     dxguid:dxguid.obj
 0002:00005370       _IID_IDirectSoundFXWavesReverb 004f8370     dxguid:dxguid.obj
 0002:00005380       _IID_IDirectSoundFXI3DL2Reverb 004f8380     dxguid:dxguid.obj
 0002:00005390       _IID_IDirectSoundFXParamEq 004f8390     dxguid:dxguid.obj
 0002:000053a0       _IID_IDirectSoundFXCompressor 004f83a0     dxguid:dxguid.obj
 0002:000053b0       _IID_IDirectSoundFXDistortion 004f83b0     dxguid:dxguid.obj
 0002:000053c0       _IID_IDirectSoundFXEcho    004f83c0     dxguid:dxguid.obj
 0002:000053d0       _IID_IDirectSoundFXFlanger 004f83d0     dxguid:dxguid.obj
 0002:000053e0       _IID_IDirectSoundFXChorus  004f83e0     dxguid:dxguid.obj
 0002:000053f0       _IID_IDirectSoundFXGargle  004f83f0     dxguid:dxguid.obj
 0002:00005400       _IID_IKsPropertySet        004f8400     dxguid:dxguid.obj
 0002:00005410       _IID_IDirectSoundNotify    004f8410     dxguid:dxguid.obj
 0002:00005420       _IID_IDirectSoundCaptureBuffer8 004f8420     dxguid:dxguid.obj
 0002:00005430       _IID_IDirectSoundCaptureBuffer 004f8430     dxguid:dxguid.obj
 0002:00005440       _IID_IDirectSoundCapture   004f8440     dxguid:dxguid.obj
 0002:00005450       _IID_IDirectSound3DBuffer  004f8450     dxguid:dxguid.obj
 0002:00005460       _IID_IDirectSound3DListener 004f8460     dxguid:dxguid.obj
 0002:00005470       _GUID_All_Objects          004f8470     dxguid:dxguid.obj
 0002:00005480       _IID_IDirectSoundBuffer8   004f8480     dxguid:dxguid.obj
 0002:00005490       _IID_IDirectSoundBuffer    004f8490     dxguid:dxguid.obj
 0002:000054a0       _IID_IDirectSound8         004f84a0     dxguid:dxguid.obj
 0002:000054b0       _IID_IDirectSound          004f84b0     dxguid:dxguid.obj
 0002:000054c0       _IID_IReferenceClock       004f84c0     dxguid:dxguid.obj
 0002:000054d0       _DSDEVID_DefaultVoiceCapture 004f84d0     dxguid:dxguid.obj
 0002:000054e0       _DSDEVID_DefaultVoicePlayback 004f84e0     dxguid:dxguid.obj
 0002:000054f0       _DSDEVID_DefaultCapture    004f84f0     dxguid:dxguid.obj
 0002:00005500       _DSDEVID_DefaultPlayback   004f8500     dxguid:dxguid.obj
 0002:00005510       _CLSID_DirectSoundFullDuplex 004f8510     dxguid:dxguid.obj
 0002:00005520       _CLSID_DirectSoundCapture8 004f8520     dxguid:dxguid.obj
 0002:00005530       _CLSID_DirectSoundCapture  004f8530     dxguid:dxguid.obj
 0002:00005540       _CLSID_DirectSound8        004f8540     dxguid:dxguid.obj
 0002:00005550       _CLSID_DirectSound         004f8550     dxguid:dxguid.obj
 0002:00005560       _CLSID_DP8SP_TCPIP         004f8560     dxguid:dxguid.obj
 0002:00005570       _CLSID_DP8SP_SERIAL        004f8570     dxguid:dxguid.obj
 0002:00005580       _CLSID_DP8SP_MODEM         004f8580     dxguid:dxguid.obj
 0002:00005590       _CLSID_DP8SP_IPX           004f8590     dxguid:dxguid.obj
 0002:000055a0       _IID_IDirectPlay8Server    004f85a0     dxguid:dxguid.obj
 0002:000055b0       _IID_IDirectPlay8Peer      004f85b0     dxguid:dxguid.obj
 0002:000055c0       _IID_IDirectPlay8Client    004f85c0     dxguid:dxguid.obj
 0002:000055d0       _CLSID_DirectPlay8Server   004f85d0     dxguid:dxguid.obj
 0002:000055e0       _CLSID_DirectPlay8Peer     004f85e0     dxguid:dxguid.obj
 0002:000055f0       _CLSID_DirectPlay8Client   004f85f0     dxguid:dxguid.obj
 0002:00005600       _IID_IDirectPlay8AddressIP 004f8600     dxguid:dxguid.obj
 0002:00005610       _IID_IDirectPlay8Address   004f8610     dxguid:dxguid.obj
 0002:00005620       _CLSID_DirectPlay8Address  004f8620     dxguid:dxguid.obj
 0002:00005630       _DPAID_ComPort             004f8630     dxguid:dxguid.obj
 0002:00005640       _DPAID_INetPort            004f8640     dxguid:dxguid.obj
 0002:00005650       _DPAID_INetW               004f8650     dxguid:dxguid.obj
 0002:00005660       _DPAID_INet                004f8660     dxguid:dxguid.obj
 0002:00005670       _DPAID_ModemW              004f8670     dxguid:dxguid.obj
 0002:00005680       _DPAID_Modem               004f8680     dxguid:dxguid.obj
 0002:00005690       _DPAID_PhoneW              004f8690     dxguid:dxguid.obj
 0002:000056a0       _DPAID_Phone               004f86a0     dxguid:dxguid.obj
 0002:000056b0       _DPAID_LobbyProvider       004f86b0     dxguid:dxguid.obj
 0002:000056c0       _DPAID_ServiceProvider     004f86c0     dxguid:dxguid.obj
 0002:000056d0       _DPAID_TotalSize           004f86d0     dxguid:dxguid.obj
 0002:000056e0       _DPLPROPERTY_PlayerScore   004f86e0     dxguid:dxguid.obj
 0002:000056f0       _DPLPROPERTY_PlayerGuid    004f86f0     dxguid:dxguid.obj
 0002:00005700       _DPLPROPERTY_LobbyGuid     004f8700     dxguid:dxguid.obj
 0002:00005710       _DPLPROPERTY_MessagesSupported 004f8710     dxguid:dxguid.obj
 0002:00005720       _CLSID_DirectPlayLobby     004f8720     dxguid:dxguid.obj
 0002:00005730       _IID_IDirectPlayLobby3A    004f8730     dxguid:dxguid.obj
 0002:00005740       _IID_IDirectPlayLobby3     004f8740     dxguid:dxguid.obj
 0002:00005750       _IID_IDirectPlayLobby2A    004f8750     dxguid:dxguid.obj
 0002:00005760       _IID_IDirectPlayLobby2     004f8760     dxguid:dxguid.obj
 0002:00005770       _IID_IDirectPlayLobbyA     004f8770     dxguid:dxguid.obj
 0002:00005780       _IID_IDirectPlayLobby      004f8780     dxguid:dxguid.obj
 0002:00005790       _IID_IDirectPlay           004f8790     dxguid:dxguid.obj
 0002:000057a0       _DPSPGUID_MODEM            004f87a0     dxguid:dxguid.obj
 0002:000057b0       _DPSPGUID_SERIAL           004f87b0     dxguid:dxguid.obj
 0002:000057c0       _DPSPGUID_TCPIP            004f87c0     dxguid:dxguid.obj
 0002:000057d0       _DPSPGUID_IPX              004f87d0     dxguid:dxguid.obj
 0002:000057e0       _CLSID_DirectPlay          004f87e0     dxguid:dxguid.obj
 0002:000057f0       _IID_IDirectPlay4A         004f87f0     dxguid:dxguid.obj
 0002:00005800       _IID_IDirectPlay4          004f8800     dxguid:dxguid.obj
 0002:00005810       _IID_IDirectPlay3A         004f8810     dxguid:dxguid.obj
 0002:00005820       _IID_IDirectPlay3          004f8820     dxguid:dxguid.obj
 0002:00005830       _IID_IDirectPlay2A         004f8830     dxguid:dxguid.obj
 0002:00005840       _IID_IDirectPlay2          004f8840     dxguid:dxguid.obj
 0002:00005850       _GUID_HIDClass             004f8850     dxguid:dxguid.obj
 0002:00005860       _GUID_MouseClass           004f8860     dxguid:dxguid.obj
 0002:00005870       _GUID_MediaClass           004f8870     dxguid:dxguid.obj
 0002:00005880       _GUID_KeyboardClass        004f8880     dxguid:dxguid.obj
 0002:00005890       _IID_IDirectInputJoyConfig8 004f8890     dxguid:dxguid.obj
 0002:000058a0       _IID_IDirectInputPIDDriver 004f88a0     dxguid:dxguid.obj
 0002:000058b0       _IID_IDirectInputJoyConfig 004f88b0     dxguid:dxguid.obj
 0002:000058c0       _IID_IDirectInputEffectDriver 004f88c0     dxguid:dxguid.obj
 0002:000058d0       _GUID_CustomForce          004f88d0     dxguid:dxguid.obj
 0002:000058e0       _GUID_Friction             004f88e0     dxguid:dxguid.obj
 0002:000058f0       _GUID_Inertia              004f88f0     dxguid:dxguid.obj
 0002:00005900       _GUID_Damper               004f8900     dxguid:dxguid.obj
 0002:00005910       _GUID_Spring               004f8910     dxguid:dxguid.obj
 0002:00005920       _GUID_SawtoothDown         004f8920     dxguid:dxguid.obj
 0002:00005930       _GUID_SawtoothUp           004f8930     dxguid:dxguid.obj
 0002:00005940       _GUID_Triangle             004f8940     dxguid:dxguid.obj
 0002:00005950       _GUID_Sine                 004f8950     dxguid:dxguid.obj
 0002:00005960       _GUID_Square               004f8960     dxguid:dxguid.obj
 0002:00005970       _GUID_RampForce            004f8970     dxguid:dxguid.obj
 0002:00005980       _GUID_ConstantForce        004f8980     dxguid:dxguid.obj
 0002:00005990       _GUID_SysKeyboardEm2       004f8990     dxguid:dxguid.obj
 0002:000059a0       _GUID_SysKeyboardEm        004f89a0     dxguid:dxguid.obj
 0002:000059b0       _GUID_SysMouseEm2          004f89b0     dxguid:dxguid.obj
 0002:000059c0       _GUID_SysMouseEm           004f89c0     dxguid:dxguid.obj
 0002:000059d0       _GUID_Joystick             004f89d0     dxguid:dxguid.obj
 0002:000059e0       _GUID_SysKeyboard          004f89e0     dxguid:dxguid.obj
 0002:000059f0       _GUID_SysMouse             004f89f0     dxguid:dxguid.obj
 0002:00005a00       _GUID_Unknown              004f8a00     dxguid:dxguid.obj
 0002:00005a10       _GUID_POV                  004f8a10     dxguid:dxguid.obj
 0002:00005a20       _GUID_Key                  004f8a20     dxguid:dxguid.obj
 0002:00005a30       _GUID_Button               004f8a30     dxguid:dxguid.obj
 0002:00005a40       _GUID_Slider               004f8a40     dxguid:dxguid.obj
 0002:00005a50       _GUID_RzAxis               004f8a50     dxguid:dxguid.obj
 0002:00005a60       _GUID_RyAxis               004f8a60     dxguid:dxguid.obj
 0002:00005a70       _GUID_RxAxis               004f8a70     dxguid:dxguid.obj
 0002:00005a80       _GUID_ZAxis                004f8a80     dxguid:dxguid.obj
 0002:00005a90       _GUID_YAxis                004f8a90     dxguid:dxguid.obj
 0002:00005aa0       _GUID_XAxis                004f8aa0     dxguid:dxguid.obj
 0002:00005ab0       _IID_IDirectInputEffect    004f8ab0     dxguid:dxguid.obj
 0002:00005ac0       _IID_IDirectInputDevice8W  004f8ac0     dxguid:dxguid.obj
 0002:00005ad0       _IID_IDirectInputDevice8A  004f8ad0     dxguid:dxguid.obj
 0002:00005ae0       _IID_IDirectInputDevice7W  004f8ae0     dxguid:dxguid.obj
 0002:00005af0       _IID_IDirectInputDevice7A  004f8af0     dxguid:dxguid.obj
 0002:00005b00       _IID_IDirectInputDevice2W  004f8b00     dxguid:dxguid.obj
 0002:00005b10       _IID_IDirectInputDevice2A  004f8b10     dxguid:dxguid.obj
 0002:00005b20       _IID_IDirectInputDeviceW   004f8b20     dxguid:dxguid.obj
 0002:00005b30       _IID_IDirectInputDeviceA   004f8b30     dxguid:dxguid.obj
 0002:00005b40       _IID_IDirectInput8W        004f8b40     dxguid:dxguid.obj
 0002:00005b50       _IID_IDirectInput8A        004f8b50     dxguid:dxguid.obj
 0002:00005b60       _IID_IDirectInput7W        004f8b60     dxguid:dxguid.obj
 0002:00005b70       _IID_IDirectInput7A        004f8b70     dxguid:dxguid.obj
 0002:00005b80       _IID_IDirectInput2W        004f8b80     dxguid:dxguid.obj
 0002:00005b90       _IID_IDirectInput2A        004f8b90     dxguid:dxguid.obj
 0002:00005ba0       _IID_IDirectInputW         004f8ba0     dxguid:dxguid.obj
 0002:00005bb0       _IID_IDirectInputA         004f8bb0     dxguid:dxguid.obj
 0002:00005bc0       _CLSID_DirectInputDevice8  004f8bc0     dxguid:dxguid.obj
 0002:00005bd0       _CLSID_DirectInput8        004f8bd0     dxguid:dxguid.obj
 0002:00005be0       _CLSID_DirectInputDevice   004f8be0     dxguid:dxguid.obj
 0002:00005bf0       _CLSID_DirectInput         004f8bf0     dxguid:dxguid.obj
 0002:00005c00       _TID_DXFILEHeader          004f8c00     dxguid:dxguid.obj
 0002:00005c10       _IID_IDirectXFileBinary    004f8c10     dxguid:dxguid.obj
 0002:00005c20       _IID_IDirectXFileDataReference 004f8c20     dxguid:dxguid.obj
 0002:00005c30       _IID_IDirectXFileData      004f8c30     dxguid:dxguid.obj
 0002:00005c40       _IID_IDirectXFileObject    004f8c40     dxguid:dxguid.obj
 0002:00005c50       _IID_IDirectXFileSaveObject 004f8c50     dxguid:dxguid.obj
 0002:00005c60       _IID_IDirectXFileEnumObject 004f8c60     dxguid:dxguid.obj
 0002:00005c70       _IID_IDirectXFile          004f8c70     dxguid:dxguid.obj
 0002:00005c80       _CLSID_CDirectXFile        004f8c80     dxguid:dxguid.obj
 0002:00005c90       _TID_D3DRMRightHanded      004f8c90     dxguid:dxguid.obj
 0002:00005ca0       _TID_D3DRMPropertyBag      004f8ca0     dxguid:dxguid.obj
 0002:00005cb0       _TID_D3DRMStringProperty   004f8cb0     dxguid:dxguid.obj
 0002:00005cc0       _TID_D3DRMExternalVisual   004f8cc0     dxguid:dxguid.obj
 0002:00005cd0       _TID_D3DRMProgressiveMesh  004f8cd0     dxguid:dxguid.obj
 0002:00005ce0       _TID_D3DRMUrl              004f8ce0     dxguid:dxguid.obj
 0002:00005cf0       _TID_D3DRMInlineData       004f8cf0     dxguid:dxguid.obj
 0002:00005d00       _TID_D3DRMLightAttenuation 004f8d00     dxguid:dxguid.obj
 0002:00005d10       _TID_D3DRMLightPenumbra    004f8d10     dxguid:dxguid.obj
 0002:00005d20       _TID_D3DRMLightRange       004f8d20     dxguid:dxguid.obj
 0002:00005d30       _TID_D3DRMLightUmbra       004f8d30     dxguid:dxguid.obj
 0002:00005d40       _TID_D3DRMAppData          004f8d40     dxguid:dxguid.obj
 0002:00005d50       _TID_D3DRMCamera           004f8d50     dxguid:dxguid.obj
 0002:00005d60       _TID_D3DRMLight            004f8d60     dxguid:dxguid.obj
 0002:00005d70       _TID_D3DRMFrameRotation    004f8d70     dxguid:dxguid.obj
 0002:00005d80       _TID_D3DRMFrameVelocity    004f8d80     dxguid:dxguid.obj
 0002:00005d90       _TID_D3DRMFramePosition    004f8d90     dxguid:dxguid.obj
 0002:00005da0       _TID_D3DRMAnimationOptions 004f8da0     dxguid:dxguid.obj
 0002:00005db0       _TID_D3DRMTimedFloatKeys   004f8db0     dxguid:dxguid.obj
 0002:00005dc0       _TID_D3DRMBoolean2d        004f8dc0     dxguid:dxguid.obj
 0002:00005dd0       _TID_D3DRMMeshFaceWraps    004f8dd0     dxguid:dxguid.obj
 0002:00005de0       _TID_D3DRMBoolean          004f8de0     dxguid:dxguid.obj
 0002:00005df0       _TID_D3DRMMaterialWrap     004f8df0     dxguid:dxguid.obj
 0002:00005e00       _TID_D3DRMMeshVertexColors 004f8e00     dxguid:dxguid.obj
 0002:00005e10       _TID_D3DRMIndexedColor     004f8e10     dxguid:dxguid.obj
 0002:00005e20       _TID_D3DRMTextureReference 004f8e20     dxguid:dxguid.obj
 0002:00005e30       _TID_D3DRMTextureFilename  004f8e30     dxguid:dxguid.obj
 0002:00005e40       _TID_D3DRMGuid             004f8e40     dxguid:dxguid.obj
 0002:00005e50       _TID_D3DRMColorRGB         004f8e50     dxguid:dxguid.obj
 0002:00005e60       _TID_D3DRMColorRGBA        004f8e60     dxguid:dxguid.obj
 0002:00005e70       _TID_D3DRMMaterialPower    004f8e70     dxguid:dxguid.obj
 0002:00005e80       _TID_D3DRMMaterialEmissiveColor 004f8e80     dxguid:dxguid.obj
 0002:00005e90       _TID_D3DRMMaterialSpecularColor 004f8e90     dxguid:dxguid.obj
 0002:00005ea0       _TID_D3DRMMaterialDiffuseColor 004f8ea0     dxguid:dxguid.obj
 0002:00005eb0       _TID_D3DRMMaterialAmbientColor 004f8eb0     dxguid:dxguid.obj
 0002:00005ec0       _TID_D3DRMFloatKeys        004f8ec0     dxguid:dxguid.obj
 0002:00005ed0       _TID_D3DRMAnimationKey     004f8ed0     dxguid:dxguid.obj
 0002:00005ee0       _TID_D3DRMAnimationSet     004f8ee0     dxguid:dxguid.obj
 0002:00005ef0       _TID_D3DRMAnimation        004f8ef0     dxguid:dxguid.obj
 0002:00005f00       _TID_D3DRMMatrix4x4        004f8f00     dxguid:dxguid.obj
 0002:00005f10       _TID_D3DRMCoords2d         004f8f10     dxguid:dxguid.obj
 0002:00005f20       _TID_D3DRMMeshNormals      004f8f20     dxguid:dxguid.obj
 0002:00005f30       _TID_D3DRMMeshTextureCoords 004f8f30     dxguid:dxguid.obj
 0002:00005f40       _TID_D3DRMMeshMaterialList 004f8f40     dxguid:dxguid.obj
 0002:00005f50       _TID_D3DRMFrameTransformMatrix 004f8f50     dxguid:dxguid.obj
 0002:00005f60       _TID_D3DRMFrame            004f8f60     dxguid:dxguid.obj
 0002:00005f70       _TID_D3DRMMaterialArray    004f8f70     dxguid:dxguid.obj
 0002:00005f80       _TID_D3DRMMaterial         004f8f80     dxguid:dxguid.obj
 0002:00005f90       _TID_D3DRMMeshFace         004f8f90     dxguid:dxguid.obj
 0002:00005fa0       _TID_D3DRMVector           004f8fa0     dxguid:dxguid.obj
 0002:00005fb0       _TID_D3DRMMesh             004f8fb0     dxguid:dxguid.obj
 0002:00005fc0       _TID_D3DRMInfo             004f8fc0     dxguid:dxguid.obj
 0002:00005fd0       _IID_IDirect3DRMWinDevice  004f8fd0     dxguid:dxguid.obj
 0002:00005fe0       _CLSID_CDirect3DRM         004f8fe0     dxguid:dxguid.obj
 0002:00005ff0       _IID_IDirect3DRM3          004f8ff0     dxguid:dxguid.obj
 0002:00006000       _IID_IDirect3DRM2          004f9000     dxguid:dxguid.obj
 0002:00006010       _IID_IDirect3DRM           004f9010     dxguid:dxguid.obj
 0002:00006020       _IID_IDirect3DRMClippedVisual 004f9020     dxguid:dxguid.obj
 0002:00006030       _IID_IDirect3DRMPicked2Array 004f9030     dxguid:dxguid.obj
 0002:00006040       _IID_IDirect3DRMProgressiveMesh 004f9040     dxguid:dxguid.obj
 0002:00006050       _IID_IDirect3DRMInterpolator 004f9050     dxguid:dxguid.obj
 0002:00006060       _IID_IDirect3DRMShadow2    004f9060     dxguid:dxguid.obj
 0002:00006070       _IID_IDirect3DRMShadow     004f9070     dxguid:dxguid.obj
 0002:00006080       _IID_IDirect3DRMUserVisual 004f9080     dxguid:dxguid.obj
 0002:00006090       _IID_IDirect3DRMAnimationArray 004f9090     dxguid:dxguid.obj
 0002:000060a0       _IID_IDirect3DRMFaceArray  004f90a0     dxguid:dxguid.obj
 0002:000060b0       _IID_IDirect3DRMPickedArray 004f90b0     dxguid:dxguid.obj
 0002:000060c0       _IID_IDirect3DRMLightArray 004f90c0     dxguid:dxguid.obj
 0002:000060d0       _IID_IDirect3DRMVisualArray 004f90d0     dxguid:dxguid.obj
 0002:000060e0       _IID_IDirect3DRMFrameArray 004f90e0     dxguid:dxguid.obj
 0002:000060f0       _IID_IDirect3DRMViewportArray 004f90f0     dxguid:dxguid.obj
 0002:00006100       _IID_IDirect3DRMDeviceArray 004f9100     dxguid:dxguid.obj
 0002:00006110       _IID_IDirect3DRMObjectArray 004f9110     dxguid:dxguid.obj
 0002:00006120       _IID_IDirect3DRMAnimationSet2 004f9120     dxguid:dxguid.obj
 0002:00006130       _IID_IDirect3DRMAnimationSet 004f9130     dxguid:dxguid.obj
 0002:00006140       _IID_IDirect3DRMAnimation2 004f9140     dxguid:dxguid.obj
 0002:00006150       _IID_IDirect3DRMAnimation  004f9150     dxguid:dxguid.obj
 0002:00006160       _IID_IDirect3DRMMaterial2  004f9160     dxguid:dxguid.obj
 0002:00006170       _IID_IDirect3DRMMaterial   004f9170     dxguid:dxguid.obj
 0002:00006180       _IID_IDirect3DRMWrap       004f9180     dxguid:dxguid.obj
 0002:00006190       _IID_IDirect3DRMTexture3   004f9190     dxguid:dxguid.obj
 0002:000061a0       _IID_IDirect3DRMTexture2   004f91a0     dxguid:dxguid.obj
 0002:000061b0       _IID_IDirect3DRMTexture    004f91b0     dxguid:dxguid.obj
 0002:000061c0       _IID_IDirect3DRMLight      004f91c0     dxguid:dxguid.obj
 0002:000061d0       _IID_IDirect3DRMFace2      004f91d0     dxguid:dxguid.obj
 0002:000061e0       _IID_IDirect3DRMFace       004f91e0     dxguid:dxguid.obj
 0002:000061f0       _IID_IDirect3DRMMeshBuilder3 004f91f0     dxguid:dxguid.obj
 0002:00006200       _IID_IDirect3DRMMeshBuilder2 004f9200     dxguid:dxguid.obj
 0002:00006210       _IID_IDirect3DRMMeshBuilder 004f9210     dxguid:dxguid.obj
 0002:00006220       _IID_IDirect3DRMMesh       004f9220     dxguid:dxguid.obj
 0002:00006230       _IID_IDirect3DRMVisual     004f9230     dxguid:dxguid.obj
 0002:00006240       _IID_IDirect3DRMFrame3     004f9240     dxguid:dxguid.obj
 0002:00006250       _IID_IDirect3DRMFrame2     004f9250     dxguid:dxguid.obj
 0002:00006260       _IID_IDirect3DRMFrame      004f9260     dxguid:dxguid.obj
 0002:00006270       _IID_IDirect3DRMViewport2  004f9270     dxguid:dxguid.obj
 0002:00006280       _IID_IDirect3DRMViewport   004f9280     dxguid:dxguid.obj
 0002:00006290       _IID_IDirect3DRMDevice3    004f9290     dxguid:dxguid.obj
 0002:000062a0       _IID_IDirect3DRMDevice2    004f92a0     dxguid:dxguid.obj
 0002:000062b0       _IID_IDirect3DRMDevice     004f92b0     dxguid:dxguid.obj
 0002:000062c0       _IID_IDirect3DRMObject2    004f92c0     dxguid:dxguid.obj
 0002:000062d0       _IID_IDirect3DRMObject     004f92d0     dxguid:dxguid.obj
 0002:000062e0       _CLSID_CDirect3DRMClippedVisual 004f92e0     dxguid:dxguid.obj
 0002:000062f0       _CLSID_CDirect3DRMProgressiveMesh 004f92f0     dxguid:dxguid.obj
 0002:00006300       _CLSID_CDirect3DRMTextureInterpolator 004f9300     dxguid:dxguid.obj
 0002:00006310       _CLSID_CDirect3DRMMaterialInterpolator 004f9310     dxguid:dxguid.obj
 0002:00006320       _CLSID_CDirect3DRMLightInterpolator 004f9320     dxguid:dxguid.obj
 0002:00006330       _CLSID_CDirect3DRMMeshInterpolator 004f9330     dxguid:dxguid.obj
 0002:00006340       _CLSID_CDirect3DRMFrameInterpolator 004f9340     dxguid:dxguid.obj
 0002:00006350       _CLSID_CDirect3DRMViewportInterpolator 004f9350     dxguid:dxguid.obj
 0002:00006360       _CLSID_CDirect3DRMShadow   004f9360     dxguid:dxguid.obj
 0002:00006370       _CLSID_CDirect3DRMUserVisual 004f9370     dxguid:dxguid.obj
 0002:00006380       _CLSID_CDirect3DRMAnimationSet 004f9380     dxguid:dxguid.obj
 0002:00006390       _CLSID_CDirect3DRMAnimation 004f9390     dxguid:dxguid.obj
 0002:000063a0       _CLSID_CDirect3DRMMaterial 004f93a0     dxguid:dxguid.obj
 0002:000063b0       _CLSID_CDirect3DRMWrap     004f93b0     dxguid:dxguid.obj
 0002:000063c0       _CLSID_CDirect3DRMTexture  004f93c0     dxguid:dxguid.obj
 0002:000063d0       _CLSID_CDirect3DRMLight    004f93d0     dxguid:dxguid.obj
 0002:000063e0       _CLSID_CDirect3DRMFace     004f93e0     dxguid:dxguid.obj
 0002:000063f0       _CLSID_CDirect3DRMMeshBuilder 004f93f0     dxguid:dxguid.obj
 0002:00006400       _CLSID_CDirect3DRMMesh     004f9400     dxguid:dxguid.obj
 0002:00006410       _CLSID_CDirect3DRMFrame    004f9410     dxguid:dxguid.obj
 0002:00006420       _CLSID_CDirect3DRMViewport 004f9420     dxguid:dxguid.obj
 0002:00006430       _CLSID_CDirect3DRMDevice   004f9430     dxguid:dxguid.obj
 0002:00006440       _IID_ID3DXBuffer           004f9440     dxguid:dxguid.obj
 0002:00006450       _IID_ID3DXEffect           004f9450     dxguid:dxguid.obj
 0002:00006460       _IID_ID3DXTechnique        004f9460     dxguid:dxguid.obj
 0002:00006470       _IID_ID3DXMatrixStack      004f9470     dxguid:dxguid.obj
 0002:00006480       _IID_ID3DXSkinMesh         004f9480     dxguid:dxguid.obj
 0002:00006490       _IID_ID3DXSPMesh           004f9490     dxguid:dxguid.obj
 0002:000064a0       _IID_ID3DXPMesh            004f94a0     dxguid:dxguid.obj
 0002:000064b0       _IID_ID3DXMesh             004f94b0     dxguid:dxguid.obj
 0002:000064c0       _IID_ID3DXBaseMesh         004f94c0     dxguid:dxguid.obj
 0002:000064d0       _IID_IDirect3DSwapChain8   004f94d0     dxguid:dxguid.obj
 0002:000064e0       _IID_IDirect3DVolume8      004f94e0     dxguid:dxguid.obj
 0002:000064f0       _IID_IDirect3DSurface8     004f94f0     dxguid:dxguid.obj
 0002:00006500       _IID_IDirect3DIndexBuffer8 004f9500     dxguid:dxguid.obj
 0002:00006510       _IID_IDirect3DVertexBuffer8 004f9510     dxguid:dxguid.obj
 0002:00006520       _IID_IDirect3DVolumeTexture8 004f9520     dxguid:dxguid.obj
 0002:00006530       _IID_IDirect3DCubeTexture8 004f9530     dxguid:dxguid.obj
 0002:00006540       _IID_IDirect3DTexture8     004f9540     dxguid:dxguid.obj
 0002:00006550       _IID_IDirect3DBaseTexture8 004f9550     dxguid:dxguid.obj
 0002:00006560       _IID_IDirect3DResource8    004f9560     dxguid:dxguid.obj
 0002:00006570       _IID_IDirect3DDevice8      004f9570     dxguid:dxguid.obj
 0002:00006580       _IID_IDirect3D8            004f9580     dxguid:dxguid.obj
 0002:00006590       _IID_IDirect3DVertexBuffer7 004f9590     dxguid:dxguid.obj
 0002:000065a0       _IID_IDirect3DVertexBuffer 004f95a0     dxguid:dxguid.obj
 0002:000065b0       _IID_IDirect3DViewport3    004f95b0     dxguid:dxguid.obj
 0002:000065c0       _IID_IDirect3DViewport2    004f95c0     dxguid:dxguid.obj
 0002:000065d0       _IID_IDirect3DViewport     004f95d0     dxguid:dxguid.obj
 0002:000065e0       _IID_IDirect3DExecuteBuffer 004f95e0     dxguid:dxguid.obj
 0002:000065f0       _IID_IDirect3DMaterial3    004f95f0     dxguid:dxguid.obj
 0002:00006600       _IID_IDirect3DMaterial2    004f9600     dxguid:dxguid.obj
 0002:00006610       _IID_IDirect3DMaterial     004f9610     dxguid:dxguid.obj
 0002:00006620       _IID_IDirect3DLight        004f9620     dxguid:dxguid.obj
 0002:00006630       _IID_IDirect3DTexture2     004f9630     dxguid:dxguid.obj
 0002:00006640       _IID_IDirect3DTexture      004f9640     dxguid:dxguid.obj
 0002:00006650       _IID_IDirect3DDevice7      004f9650     dxguid:dxguid.obj
 0002:00006660       _IID_IDirect3DDevice3      004f9660     dxguid:dxguid.obj
 0002:00006670       _IID_IDirect3DDevice2      004f9670     dxguid:dxguid.obj
 0002:00006680       _IID_IDirect3DDevice       004f9680     dxguid:dxguid.obj
 0002:00006690       _IID_IDirect3DTnLHalDevice 004f9690     dxguid:dxguid.obj
 0002:000066a0       _IID_IDirect3DNullDevice   004f96a0     dxguid:dxguid.obj
 0002:000066b0       _IID_IDirect3DRefDevice    004f96b0     dxguid:dxguid.obj
 0002:000066c0       _IID_IDirect3DMMXDevice    004f96c0     dxguid:dxguid.obj
 0002:000066d0       _IID_IDirect3DHALDevice    004f96d0     dxguid:dxguid.obj
 0002:000066e0       _IID_IDirect3DRGBDevice    004f96e0     dxguid:dxguid.obj
 0002:000066f0       _IID_IDirect3DRampDevice   004f96f0     dxguid:dxguid.obj
 0002:00006700       _IID_IDirect3D7            004f9700     dxguid:dxguid.obj
 0002:00006710       _IID_IDirect3D3            004f9710     dxguid:dxguid.obj
 0002:00006720       _IID_IDirect3D2            004f9720     dxguid:dxguid.obj
 0002:00006730       _IID_IDirect3D             004f9730     dxguid:dxguid.obj
 0002:00006740       _DDVPTYPE_PHILIPS          004f9740     dxguid:dxguid.obj
 0002:00006750       _DDVPTYPE_BROOKTREE        004f9750     dxguid:dxguid.obj
 0002:00006760       _DDVPTYPE_CCIR656          004f9760     dxguid:dxguid.obj
 0002:00006770       _DDVPTYPE_E_HREFL_VREFL    004f9770     dxguid:dxguid.obj
 0002:00006780       _DDVPTYPE_E_HREFL_VREFH    004f9780     dxguid:dxguid.obj
 0002:00006790       _DDVPTYPE_E_HREFH_VREFL    004f9790     dxguid:dxguid.obj
 0002:000067a0       _DDVPTYPE_E_HREFH_VREFH    004f97a0     dxguid:dxguid.obj
 0002:000067b0       _IID_IDirectDrawVideoPort  004f97b0     dxguid:dxguid.obj
 0002:000067c0       _IID_IDDVideoPortContainer 004f97c0     dxguid:dxguid.obj
 0002:000067d0       _GUID_DDMoreCaps           004f97d0     dxguid:dxguid.obj
 0002:000067e0       _GUID_Miscellaneous2Callbacks 004f97e0     dxguid:dxguid.obj
 0002:000067f0       _GUID_NTCallbacks          004f97f0     dxguid:dxguid.obj
 0002:00006800       _GUID_MotionCompCallbacks  004f9800     dxguid:dxguid.obj
 0002:00006810       _GUID_D3DParseUnknownCommandCallback 004f9810     dxguid:dxguid.obj
 0002:00006820       _GUID_UserModeDriverPassword 004f9820     dxguid:dxguid.obj
 0002:00006830       _GUID_UserModeDriverInfo   004f9830     dxguid:dxguid.obj
 0002:00006840       _GUID_OptSurfaceUmodeInfo  004f9840     dxguid:dxguid.obj
 0002:00006850       _GUID_OptSurfaceKmodeInfo  004f9850     dxguid:dxguid.obj
 0002:00006860       _GUID_DDStereoMode         004f9860     dxguid:dxguid.obj
 0002:00006870       _GUID_DDMoreSurfaceCaps    004f9870     dxguid:dxguid.obj
 0002:00006880       _GUID_ZPixelFormats        004f9880     dxguid:dxguid.obj
 0002:00006890       _GUID_D3DExtendedCaps      004f9890     dxguid:dxguid.obj
 0002:000068a0       _GUID_KernelCaps           004f98a0     dxguid:dxguid.obj
 0002:000068b0       _GUID_KernelCallbacks      004f98b0     dxguid:dxguid.obj
 0002:000068c0       _GUID_NonLocalVidMemCaps   004f98c0     dxguid:dxguid.obj
 0002:000068d0       _GUID_D3DCallbacks3        004f98d0     dxguid:dxguid.obj
 0002:000068e0       _GUID_D3DCallbacks2        004f98e0     dxguid:dxguid.obj
 0002:000068f0       _GUID_VideoPortCaps        004f98f0     dxguid:dxguid.obj
 0002:00006900       _GUID_ColorControlCallbacks 004f9900     dxguid:dxguid.obj
 0002:00006910       _GUID_VideoPortCallbacks   004f9910     dxguid:dxguid.obj
 0002:00006920       _GUID_MiscellaneousCallbacks 004f9920     dxguid:dxguid.obj
 0002:00006930       _IID_IDirectDrawGammaControl 004f9930     dxguid:dxguid.obj
 0002:00006940       _IID_IDirectDrawColorControl 004f9940     dxguid:dxguid.obj
 0002:00006950       _IID_IDirectDrawClipper    004f9950     dxguid:dxguid.obj
 0002:00006960       _IID_IDirectDrawPalette    004f9960     dxguid:dxguid.obj
 0002:00006970       _IID_IDirectDrawPalette2   004f9970     dxguid:dxguid.obj
 0002:00006980       _IID_IDirectDrawOptSurface 004f9980     dxguid:dxguid.obj
 0002:00006990       _GUID_DirectDrawPaletteStream 004f9990     dxguid:dxguid.obj
 0002:000069a0       _GUID_DirectDrawSurfaceStream 004f99a0     dxguid:dxguid.obj
 0002:000069b0       _IID_IDirectDrawFactory2   004f99b0     dxguid:dxguid.obj
 0002:000069c0       _CLSID_DirectDrawFactory2  004f99c0     dxguid:dxguid.obj
 0002:000069d0       _IID_IDirectDrawSurfaceNew 004f99d0     dxguid:dxguid.obj
 0002:000069e0       _IID_IDirectDrawSurface7   004f99e0     dxguid:dxguid.obj
 0002:000069f0       _IID_IDirectDrawSurface4   004f99f0     dxguid:dxguid.obj
 0002:00006a00       _IID_IDirectDrawSurface3   004f9a00     dxguid:dxguid.obj
 0002:00006a10       _IID_IDirectDrawSurface2   004f9a10     dxguid:dxguid.obj
 0002:00006a20       _IID_IDirectDrawSurface    004f9a20     dxguid:dxguid.obj
 0002:00006a30       _IID_IDirectDraw7          004f9a30     dxguid:dxguid.obj
 0002:00006a40       _IID_IDirectDraw4          004f9a40     dxguid:dxguid.obj
 0002:00006a50       _IID_IDirectDraw2          004f9a50     dxguid:dxguid.obj
 0002:00006a60       _IID_IDirectDraw           004f9a60     dxguid:dxguid.obj
 0002:00006a70       _CLSID_DirectDrawClipper   004f9a70     dxguid:dxguid.obj
 0002:00006a80       _CLSID_DirectDraw7         004f9a80     dxguid:dxguid.obj
 0002:00006a90       _CLSID_DirectDraw          004f9a90     dxguid:dxguid.obj
 0002:00006aa0       ??_7CAniObjLSP@@6B@        004f9aa0     IGObject_Debug:AniObjLSP.obj
 0002:00006ab0       ??_C@_0BG@LFKH@?$LK?q?A?$KE?$LL?s?$MA?$PL?$MA?N?5?$LN?$LK?G?A?$LG?s?$MA?L?F?$KO?$AA@ 004f9ab0     IGObject_Debug:AniObjLSP.obj
 0002:00006ac8       ??_C@_0DB@ODM@LSP?5?$LN?$LK?G?A?$LG?s?$MA?L?F?$KO?5?F?D?$MA?O?5?$LP?$KN?$LB?b?5?$LN?G?F?P?5?3?5@ 004f9ac8     IGObject_Debug:AniObjLSP.obj
 0002:00006afc       ??_C@_0CB@IIAF@LSP?5?$LN?$LK?G?A?$LG?s?$MA?L?F?$KO?5?F?D?$MA?O?5?$LP?$KN?$LB?b?5?$LN?G?F?P?5?3?5@ 004f9afc     IGObject_Debug:AniObjLSP.obj
 0002:00006b20       ??_C@_0N@DIFC@OUTOFMEMORY?6?$AA@ 004f9b20     IGObject_Debug:AniObjLSP.obj
 0002:00006b30       ??_C@_0BG@IEMG@LSP?5?$LN?$LK?G?A?$LG?s?$MA?L?F?$KO?5?A?v?$LP?r?6?5?$AA@ 004f9b30     IGObject_Debug:AniObjLSP.obj
 0002:00006b48       ??_7CAniObj@@6B@           004f9b48     IGObject_Debug:AniObj.obj
 0002:00006b4c       __real@4@00000000000000000000 004f9b4c     IGObject_Debug:AniObj.obj
 0002:00006b50       ??_C@_0DA@CFLH@?$LP?$KB?$LE?O?$LI?$NO?$MA?L?$LM?G?5?F?D?$MA?O?5?$LP?$KN?$LB?b?5?$LN?G?F?P?5?3?5?$MA?$NP?$LI?x@ 004f9b50     IGObject_Debug:AniObj.obj
 0002:00006b80       ??_C@_0BN@ELFP@?$LP?$KB?$LE?O?$LI?$NO?$MA?L?$LM?G?5?F?D?$MA?O?5?$LP?$KN?$LB?b?5?$LN?G?F?P?5?3?5?$AA@ 004f9b80     IGObject_Debug:AniObj.obj
 0002:00006ba0       ??_7CDDEngineNew@@6B@      004f9ba0     IGObject_Debug:DDEngine.obj
 0002:00006ba4       ??_C@_0EK@BIBN@Current?5BitsPerPixel?5is?5not?516?5o@ 004f9ba4     IGObject_Debug:DDEngine.obj
 0002:00006bf0       ??_C@_0DB@OICO@there?5is?5not?5enough?5video?5memory@ 004f9bf0     IGObject_Debug:DDEngine.obj
 0002:00006c24       ??_C@_0CG@NNID@Can?8t?5set?5display?5mode?4?5Check?5Di@ 004f9c24     IGObject_Debug:DDEngine.obj
 0002:00006c4c       ??_C@_0CL@IFPJ@Can?8t?5set?5cooperative?5level?4?5Che@ 004f9c4c     IGObject_Debug:DDEngine.obj
 0002:00006c78       ??_C@_0CH@BJFJ@DirectX?57?5Not?5Installed?4?5or?5Inco@ 004f9c78     IGObject_Debug:DDEngine.obj
 0002:00006ca0       ??_C@_0BF@KHAA@Initialization?5Error?$AA@ 004f9ca0     IGObject_Debug:DDEngine.obj
 0002:00006cb8       ??_C@_0CM@GHEM@?$LK?q?F?$KO?$LI?J?5?F?D?$MA?O?5?$LP?$KN?$LB?b?5?$LN?G?F?P?5?3?5?$MA?$NP?$LI?x?$LF?H?5?F@ 004f9cb8     IGObject_Debug:DDEngine.obj
 0002:00006ce4       ??_C@_0CJ@MDME@?$LM?$KN?G?G?$LN?$LK?5?$LL?$PN?$LM?$LK?5?$LN?G?F?P?5?3?5?$LK?q?F?$KO?$LI?J?5?F?D?$MA?O?5?$LP@ 004f9ce4     IGObject_Debug:DDEngine.obj
 0002:00006d10       ??_C@_06DEFL@bmp?2?$CFs?$AA@ 004f9d10     IGObject_Debug:DDEngine.obj
 0002:00006d18       ??_C@_01PCFE@?2?$AA@       004f9d18     IGObject_Debug:DDEngine.obj
 0002:00006d1c       ??_C@_0M@JMJI@Frame?5?3?5?$CFd?5?$AA@ 004f9d1c     IGObject_Debug:DDEngine.obj
 0002:00006d28       ??_7CMapObj@@6B@           004f9d28     IGObject_Debug:MapObj.obj
 0002:00006d2c       ??_7CTileMap@@6B@          004f9d2c     IGObject_Debug:TileMap.obj
 0002:00006d30       ??_7CDib16@@6B@            004f9d30     IGObject_Debug:Dib16.obj
 0002:00006d34       ??_C@_0DD@KEPN@?$LK?q?F?$KO?$LI?J?5Import?5?$LN?G?F?P?5?3?5?$LO?K?$LM?v?5?$LO?x?$LE?B?5?$LK@ 004f9d34     IGObject_Debug:Dib16.obj
 0002:00006d68       ??_C@_0CL@ICML@?$LK?q?F?$KO?$LI?J?5Import?5?$LN?G?F?P?5?3?5?$LK?q?F?$KO?$LI?J?5?F?D?$MA?O@ 004f9d68     IGObject_Debug:Dib16.obj
 0002:00006d94       ??_C@_0CH@KKPJ@?$LK?q?F?$KO?$LI?J?5Import?5?$LN?G?F?P?5?3?5?F?D?$MA?O?5?$LP?$KN?$LB?b?5?$LN@ 004f9d94     IGObject_Debug:Dib16.obj
 0002:00006dbc       ??_C@_0CH@GEJC@?$LK?q?F?$KO?$LI?J?5Export?5?$LN?G?F?P?5?3?5?F?D?$MA?O?5?$LP?$KN?$LB?b?5?$LN@ 004f9dbc     IGObject_Debug:Dib16.obj
 0002:00006de4       ??_C@_0DD@GIKK@?$LK?q?F?$KO?$LI?J?5Export?5?$LN?G?F?P?5?3?5?$LA?$KB?$LH?N?5?H?$KE?$MA?$LK?5?$LM@ 004f9de4     IGObject_Debug:Dib16.obj
 0002:00006e18       ??_C@_0CH@FCNH@?$LK?q?F?$KO?$LI?J?5?$LL?u?$LH?N?5?$LI?$LI?$LF?i?$LB?b?5?3?5?$LI?$NO?$LI?p?$LI?$KO?5?G?R?$LE?g@ 004f9e18     IGObject_Debug:Dib16.obj
 0002:00006e40       ??_C@_0CL@GIGM@?$LK?q?F?$KO?$LI?J?5?$LL?$PN?$LM?$LK?5?$LN?G?F?P?5?3?5?$LD?J?$LK?q?0?5?$LD?t?$MA?L?$LA?$KB?5@ 004f9e40     IGObject_Debug:Dib16.obj
 0002:00006e6c       ??_C@_0CM@OCNK@?$LK?q?F?$KO?$LI?J?5?F?D?$MA?O?5?$LK?N?$LI?$KD?$LB?b?5?$LN?G?F?P?5?3?5?F?D?$MA?O?5?$LP@ 004f9e6c     IGObject_Debug:Dib16.obj
 0002:00006e98       ??_C@_0CA@PLJB@?$LK?q?F?$KO?$LJ?m?5?$MA?z?$MA?e?5?3?5?F?D?$MA?O?5?$LP?$KN?$LB?b?5?$LN?G?F?P?5?9?5?$AA@ 004f9e98     IGObject_Debug:Dib16.obj
 0002:00006eb8       _IID_IDocHostUIHandlerDispatch 004f9eb8     mfcs42d:stdafx.obj
 0002:00006ec8       _IID_IInternalConnection   004f9ec8     mfcs42d:stdafx.obj
 0002:00006ed8       _IID_IAxWinAmbientDispatch 004f9ed8     mfcs42d:stdafx.obj
 0002:00006ee8       _IID_IAxWinHostWindow      004f9ee8     mfcs42d:stdafx.obj
 0002:00006ef8       _IID_IRegistrar            004f9ef8     mfcs42d:stdafx.obj
 0002:00006f08       _CLSID_Registrar           004f9f08     mfcs42d:stdafx.obj
 0002:00006f18       _LIBID_ATLLib              004f9f18     mfcs42d:stdafx.obj
 0002:00006f58       ??_7type_info@@6B@         004f9f58     msvcrtd:ti_inst.obj
 0002:00006f70       ??_R1A@?0A@A@type_info@@8  004f9f70     msvcrtd:ti_inst.obj
 0002:00006f88       ??_R2type_info@@8          004f9f88     msvcrtd:ti_inst.obj
 0002:00006f90       ??_R3type_info@@8          004f9f90     msvcrtd:ti_inst.obj
 0002:00006fa0       ??_R4type_info@@6B@        004f9fa0     msvcrtd:ti_inst.obj
 0003:00000000       ___xc_a                    00502000     msvcrtd:cinitexe.obj
 0003:00000138       ___xc_z                    00502138     msvcrtd:cinitexe.obj
 0003:0000013c       ___xi_a                    0050213c     msvcrtd:cinitexe.obj
 0003:00000140       ___xi_z                    00502140     msvcrtd:cinitexe.obj
 0003:00000180       ?__LINE__Var@?1??Load@_TILE_SUB_SET_DATA_TOOL@@QAEXAAVCFile@@@Z@4FA 00502180     _tile_sub_set_data_tool.obj
 0003:00000184       ?__LINE__Var@?1??Alloc@_TILE_SUB_SET_DATA_TOOL@@QAEHHH@Z@4FA 00502184     _tile_sub_set_data_tool.obj
 0003:00000188       ?__LINE__Var@?1???4_TILE_SUB_SET_DATA_TOOL@@QAEAAV1@AAV1@@Z@4FA 00502188     _tile_sub_set_data_tool.obj
 0003:000001ec       ?__LINE__Var@?1??LoadAllArmatureRes@CArmatureManager@@QAEXXZ@4FA 005021ec     ArmatureManager.obj
 0003:000001f0       ?__LINE__Var@?1??LoadArmatureRes@CArmatureManager@@QAEHHH@Z@4FA 005021f0     ArmatureManager.obj
 0003:00000224       ?__LINE__Var@?1??LoadElement@CArmatureRes@@QAEHH@Z@4FA 00502224     ArmatureRes.obj
 0003:00000228       ?__LINE__Var@?1??LoadArmature@CArmatureRes@@QAEHVCString@@HH@Z@4FA 00502228     ArmatureRes.obj
 0003:0000022c       ?__LINE__Var@?1??GetSprData@CArmatureRes@@QAEPAVSPR_DATA@@H@Z@4FA 0050222c     ArmatureRes.obj
 0003:00000268       ?__LINE__Var@?1??InitSurface@CBaseDraw@@QAEXXZ@4FA 00502268     BaseDraw.obj
 0003:00000298       ?__LINE__Var@?1???0BB_CircularBuffer@@QAE@H@Z@4FA 00502298     BB_CircularBuffer.obj
 0003:0000029c       ?__LINE__Var@?1???1BB_CircularBuffer@@UAE@XZ@4FA 0050229c     BB_CircularBuffer.obj
 0003:000002d0       ?__LINE__Var@?1???0BB_Socket@@QAE@PAVSocketMng@@H@Z@4FA 005022d0     BB_Socket.obj
 0003:000002d4       ?__LINE__Var@?1???1BB_Socket@@UAE@XZ@4FA 005022d4     BB_Socket.obj
 0003:000002d8       ?__LINE__Var@?1??OnSend@BB_Socket@@UAEXH@Z@4FA 005022d8     BB_Socket.obj
 0003:000002dc       ?__LINE__Var@?1??SendDelayedData@BB_Socket@@QAEHXZ@4FA 005022dc     BB_Socket.obj
 0003:0000036c       ?__LINE__Var@?1??FontSet@BBDX_Editor@@QAEXXZ@4FA 0050236c     BBDX_Editor.obj
 0003:00000398       ?__LINE__Var@?1???0BBDX_TextOuter@@QAE@VCString@@HH@Z@4FA 00502398     BBDX_TextOuter.obj
 0003:0000039c       ?__LINE__Var@?1??AddString@BBDX_TextOuter@@QAEHAAVCString@@@Z@4FA 0050239c     BBDX_TextOuter.obj
 0003:000003fc       ?__LINE__Var@?1??Add@CBlood@@QAEXHHVCPoint@@H@Z@4FA 005023fc     Blood.obj
 0003:00000400       ?__LINE__Var@?1??Load@CBlood@@QAEHH@Z@4FA 00502400     Blood.obj
 0003:00000430       ?__LINE__Var@?1??LoadRes@CBloodRes@@QAEHH@Z@4FA 00502430     BloodRes.obj
 0003:00000434       ?__LINE__Var@?1??LoadRes@CBloodRes@@QAEHVCString@@@Z@4FA 00502434     BloodRes.obj
 0003:000004a0       ?__LINE__Var@?1??LoadAllCharRes@CCharManager@@QAEXXZ@4FA 005024a0     CharManager.obj
 0003:000004a4       ?__LINE__Var@?1??LoadCharRes@CCharManager@@QAEHH@Z@4FA 005024a4     CharManager.obj
 0003:000004d4       ?__LINE__Var@?1??LoadElement@CCharRes@@QAEHH@Z@4FA 005024d4     CharRes.obj
 0003:000004d8       ?__LINE__Var@?1??Load@CCharRes@@QAEHPBDHH@Z@4FA 005024d8     CharRes.obj
 0003:00000510       ?__LINE__Var@?1???0CChildView@@QAE@XZ@4FA 00502510     ChildView.obj
 0003:00000514       ?__LINE__Var@?1??DDInit@CChildView@@QAEHXZ@4FA 00502514     ChildView.obj
 0003:00000518       ?__LINE__Var@?1??OnCreate@CChildView@@IAEHPAUtagCREATESTRUCTA@@@Z@4FA 00502518     ChildView.obj
 0003:0000051c       ?__LINE__Var@?1??MouseProcess@CChildView@@QAEHXZ@4FA 0050251c     ChildView.obj
 0003:00000520       ?__LINE__Var@?1??CreateEditor@CChildView@@QAEXXZ@4FA 00502520     ChildView.obj
 0003:00000524       ?__LINE__Var@?1??LogIn@CChildView@@QAEHXZ@4FA 00502524     ChildView.obj
 0003:00000528       ?__LINE__Var@?1??InitLogin@CChildView@@QAEHXZ@4FA 00502528     ChildView.obj
 0003:0000052c       ?__LINE__Var@?1??ReStart@CChildView@@QAEXXZ@4FA 0050252c     ChildView.obj
 0003:00000530       ?__LINE__Var@?1??GameLogin@CChildView@@QAEXXZ@4FA 00502530     ChildView.obj
 0003:00000534       ?__LINE__Var@?1??NewHeroProcess@CChildView@@QAEXPAE@Z@4FA 00502534     ChildView.obj
 0003:00000538       ?__LINE__Var@?1??DelHeroProcess@CChildView@@QAEXPAE@Z@4FA 00502538     ChildView.obj
 0003:0000053c       ?__LINE__Var@?1??Notice@CChildView@@QAEXPAE@Z@4FA 0050253c     ChildView.obj
 0003:00000578       ?__LINE__Var@?1??CreateEditor@CDialog_AccountLogin@@QAEXPAVCWnd@@H@Z@4FA 00502578     Dialog_AccountLogin.obj
 0003:0000057c       ?__LINE__Var@?1??MouseProcess@CDialog_AccountLogin@@QAEHPAVBBDX_MouseInformation@@PAH@Z@4FA 0050257c     Dialog_AccountLogin.obj
 0003:00000580       ?__LINE__Var@?1??DrawErrorText@CDialog_AccountLogin@@QAEXAAU_DDSURFACEDESC2@@@Z@4FA 00502580     Dialog_AccountLogin.obj
 0003:000005bc       ?__LINE__Var@?1??Create@CDialog_AuctionBuy@@UAEHPAVCDirectDraw@@VCString@@HHHH@Z@4FA 005025bc     Dialog_Auctionbuy.obj
 0003:000005c0       ?__LINE__Var@?1??RcvOpen@CDialog_AuctionBuy@@QAEXPAE@Z@4FA 005025c0     Dialog_Auctionbuy.obj
 0003:000005fc       ?__LINE__Var@?1??Create@CDialog_AuctionDetail@@UAEHPAVCDirectDraw@@VCString@@HHHH@Z@4FA 005025fc     Dialog_AuctionDetail.obj
 0003:00000638       ?__LINE__Var@?1??RefreshData@CDialog_AuctionSell@@QAEXXZ@4FA 00502638     Dialog_AuctionSell.obj
 0003:0000063c       ?__LINE__Var@?1??Create@CDialog_AuctionSell@@UAEHPAVCDirectDraw@@VCString@@HHHH@Z@4FA 0050263c     Dialog_AuctionSell.obj
 0003:00000640       ?__LINE__Var@?1??RcvAuctionItem@CDialog_AuctionSell@@QAEXPAE@Z@4FA 00502640     Dialog_AuctionSell.obj
 0003:00000644       ?__LINE__Var@?1??AuctionOpen@CDialog_AuctionSell@@QAEXPAE@Z@4FA 00502644     Dialog_AuctionSell.obj
 0003:00000680       ?__LINE__Var@?1??Create@CDialog_BlackMagic@@UAEHPAVCDirectDraw@@VCString@@HHHH@Z@4FA 00502680     Dialog_BlackMagic.obj
 0003:000006b8       ?__LINE__Var@?1??Create@CDialog_BlueMagic@@UAEHPAVCDirectDraw@@VCString@@HHHH@Z@4FA 005026b8     Dialog_BlueMagic.obj
 0003:000006c8       ?__LINE__Var@?1??DrawMode@CDialog_BoardCtrl@@QAEXH@Z@4FA 005026c8     Dialog_BoardCtrl.obj
 0003:000006cc       ?__LINE__Var@?1??BBS_PKT_Process@CDialog_BoardCtrl@@QAEXPAE@Z@4FA 005026cc     Dialog_BoardCtrl.obj
 0003:000006d0       ?__LINE__Var@?1??BBS_SetRead@CDialog_BoardCtrl@@QAEXPAE@Z@4FA 005026d0     Dialog_BoardCtrl.obj
 0003:00000708       ?__LINE__Var@?1??Create@CDialog_BoardList@@UAEHPAVCDirectDraw@@VCString@@HHHH@Z@4FA 00502708     Dialog_BoardList.obj
 0003:0000070c       ?__LINE__Var@?1??SetList@CDialog_BoardList@@QAEHPAE@Z@4FA 0050270c     Dialog_BoardList.obj
 0003:00000710       ?__LINE__Var@?1??ShowInList@CDialog_BoardList@@QAEXH@Z@4FA 00502710     Dialog_BoardList.obj
 0003:00000748       ?__LINE__Var@?1??Create@CDialog_BoardRead@@UAEHPAVCDirectDraw@@VCString@@HHHH@Z@4FA 00502748     Dialog_BoardRead.obj
 0003:0000074c       ?__LINE__Var@?1??SetRead@CDialog_BoardRead@@QAEXPAE@Z@4FA 0050274c     Dialog_BoardRead.obj
 0003:00000750       ?__LINE__Var@?1??ReadNext@CDialog_BoardRead@@QAEXXZ@4FA 00502750     Dialog_BoardRead.obj
 0003:0000078c       ?__LINE__Var@?1??Create@CDialog_BoardWrite@@UAEHPAVCDirectDraw@@VCString@@HHHH@Z@4FA 0050278c     Dialog_BoardWrite.obj
 0003:00000790       ?__LINE__Var@?1??Write@CDialog_BoardWrite@@QAEXXZ@4FA 00502790     Dialog_BoardWrite.obj
 0003:000007c4       ?__LINE__Var@?1??Create@CDialog_Chat@@UAEHPAVCDirectDraw@@VCString@@HHHH@Z@4FA 005027c4     Dialog_Chat.obj
 0003:000007f8       ?__LINE__Var@?1??Create@CDialog_Crest@@UAEHPAVCDirectDraw@@VCString@@HHHH@Z@4FA 005027f8     Dialog_Crest.obj
 0003:000007fc       ?__LINE__Var@?1??SetMessage@CDialog_Crest@@QAEXAAVCString@@@Z@4FA 005027fc     Dialog_Crest.obj
 0003:00000800       ?__LINE__Var@?1??ShowWindow@CDialog_Crest@@QAEHHPAVCUIRes@@@Z@4FA 00502800     Dialog_Crest.obj
 0003:00000870       ?__LINE__Var@?1??Create@CDialog_EventMessage@@UAEHPAVCDirectDraw@@VCString@@HHHH@Z@4FA 00502870     Dialog_EventMessage.obj
 0003:000008ac       ?__LINE__Var@?1??Create@CDialog_EventMessage1@@UAEHPAVCDirectDraw@@VCString@@HHHH@Z@4FA 005028ac     Dialog_EventMessage1.obj
 0003:000008e8       ?__LINE__Var@?1??Create@CDialog_EventMessage2@@UAEHPAVCDirectDraw@@VCString@@HHHH@Z@4FA 005028e8     Dialog_EventMessage2.obj
 0003:00000920       ?__LINE__Var@?1??RefreshData@CDialog_Exchange@@QAEXXZ@4FA 00502920     Dialog_Exchange.obj
 0003:00000924       ?__LINE__Var@?1??Create@CDialog_Exchange@@UAEHPAVCDirectDraw@@VCString@@HHHH@Z@4FA 00502924     Dialog_Exchange.obj
 0003:00000928       ?__LINE__Var@?1??CallBack_MessageBox@CDialog_Exchange@@UAEXHH@Z@4FA 00502928     Dialog_Exchange.obj
 0003:0000092c       ?__LINE__Var@?1??RcvTradeItem@CDialog_Exchange@@QAEXPAE@Z@4FA 0050292c     Dialog_Exchange.obj
 0003:00000960       ?__LINE__Var@?1??Create@CDialog_Guild@@UAEHPAVCDirectDraw@@VCString@@HHHH@Z@4FA 00502960     Dialog_Guild.obj
 0003:00000964       ?__LINE__Var@?1??SendChangePosName@CDialog_Guild@@QAEXHH@Z@4FA 00502964     Dialog_Guild.obj
 0003:00000968       ?__LINE__Var@?1??SendChangePos@CDialog_Guild@@QAEXVCString@@@Z@4FA 00502968     Dialog_Guild.obj
 0003:0000096c       ?__LINE__Var@?1??SendRemoveMember@CDialog_Guild@@QAEXXZ@4FA 0050296c     Dialog_Guild.obj
 0003:000009a8       ?__LINE__Var@?1??SendApplyGuild@CDialog_GuildApply@@QAEXXZ@4FA 005029a8     Dialog_GuildApply.obj
 0003:000009ac       ?__LINE__Var@?1??Create@CDialog_GuildApply@@UAEHPAVCDirectDraw@@VCString@@HHHH@Z@4FA 005029ac     Dialog_GuildApply.obj
 0003:000009b0       ?__LINE__Var@?1??SendAskGuildDesc@CDialog_GuildApply@@QAEXXZ@4FA 005029b0     Dialog_GuildApply.obj
 0003:000009e8       ?__LINE__Var@?1??SendJoinPerson@CDialog_GuildJoin@@QAEXXZ@4FA 005029e8     Dialog_GuildJoin.obj
 0003:000009ec       ?__LINE__Var@?1??SendRejectPerson@CDialog_GuildJoin@@QAEXXZ@4FA 005029ec     Dialog_GuildJoin.obj
 0003:000009f0       ?__LINE__Var@?1??Create@CDialog_GuildJoin@@UAEHPAVCDirectDraw@@VCString@@HHHH@Z@4FA 005029f0     Dialog_GuildJoin.obj
 0003:000009f4       ?__LINE__Var@?1??SendAskUserInfo@CDialog_GuildJoin@@QAEXXZ@4FA 005029f4     Dialog_GuildJoin.obj
 0003:00000b44       ?__LINE__Var@?1??Create@CDialog_GuildName@@UAEHPAVCDirectDraw@@VCString@@HHHH@Z@4FA 00502b44     Dialog_GuildName.obj
 0003:00000b48       ?__LINE__Var@?1??SendMakeGuild@CDialog_GuildName@@QAEXXZ@4FA 00502b48     Dialog_GuildName.obj
 0003:00000b88       ?__LINE__Var@?1??Create@CDialog_GuildPositionName@@UAEHPAVCDirectDraw@@VCString@@HHHH@Z@4FA 00502b88     Dialog_GuildPositionName.obj
 0003:00000bc0       ?__LINE__Var@?1??Create@CDialog_HowMany@@UAEHPAVCDirectDraw@@VCString@@HHHH@Z@4FA 00502bc0     Dialog_HowMany.obj
 0003:00000bf8       ?__LINE__Var@?1??Create@CDialog_HowMuch@@UAEHPAVCDirectDraw@@VCString@@HHHH@Z@4FA 00502bf8     Dialog_HowMuch.obj
 0003:00000ca4       ?__LINE__Var@?1??RefreshData@CDialog_Inv@@QAEXXZ@4FA 00502ca4     Dialog_Inv.obj
 0003:00000ca8       ?__LINE__Var@?1??Create@CDialog_Inv@@UAEHPAVCDirectDraw@@VCString@@HHHH@Z@4FA 00502ca8     Dialog_Inv.obj
 0003:00000cdc       ?__LINE__Var@?1??Create@CDialog_Login@@QAEHPAVCDirectDraw@@VCString@@HHH@Z@4FA 00502cdc     Dialog_Login.obj
 0003:00000ce0       ?__LINE__Var@?1??MouseProcess@CDialog_Login@@UAEHPAVBBDX_MouseInformation@@@Z@4FA 00502ce0     Dialog_Login.obj
 0003:00000d18       ?__LINE__Var@?1??InitData@CDialog_MagicCtrl@@QAEHPAVCDirectDraw@@PAVCChildView@@@Z@4FA 00502d18     Dialog_MagicCtrl.obj
 0003:00000d4c       ?__LINE__Var@?1??Create@CDialog_Main@@UAEHPAVCDirectDraw@@VCString@@HHHH@Z@4FA 00502d4c     Dialog_Main.obj
 0003:00000d84       ?__LINE__Var@?1??RefreshData@CDialog_MakeItem@@QAEXXZ@4FA 00502d84     Dialog_MakeItem.obj
 0003:00000d88       ?__LINE__Var@?1??Create@CDialog_MakeItem@@UAEHPAVCDirectDraw@@VCString@@HHHH@Z@4FA 00502d88     Dialog_MakeItem.obj
 0003:00000dbc       ?__LINE__Var@?1??Create@CDialog_Memo@@UAEHPAVCDirectDraw@@VCString@@HHHH@Z@4FA 00502dbc     Dialog_Memo.obj
 0003:00000dc0       ?__LINE__Var@?1??SendChat@CDialog_Memo@@QAEXVCString@@@Z@4FA 00502dc0     Dialog_Memo.obj
 0003:00000dec       ?__LINE__Var@?1??AddMemoChat@CDialog_MemoCtrl@@QAEXVCString@@0@Z@4FA 00502dec     Dialog_MemoCtrl.obj
 0003:00000df0       ?__LINE__Var@?1??AddEchoMemoChat@CDialog_MemoCtrl@@QAEXVCString@@0@Z@4FA 00502df0     Dialog_MemoCtrl.obj
 0003:00000e28       ?__LINE__Var@?1??Create@CDialog_Message@@UAEHPAVCDirectDraw@@VCString@@HHHH@Z@4FA 00502e28     Dialog_Message.obj
 0003:00000e60       ?__LINE__Var@?1??Create@CDialog_Message2@@UAEHPAVCDirectDraw@@VCString@@HHHH@Z@4FA 00502e60     Dialog_Message2.obj
 0003:00000e98       ?__LINE__Var@?1??Create@CDialog_Message3@@UAEHPAVCDirectDraw@@VCString@@HHHH@Z@4FA 00502e98     Dialog_Message3.obj
 0003:00000ecc       ?__LINE__Var@?1??Create@CDialog_Name@@UAEHPAVCDirectDraw@@VCString@@HHHH@Z@4FA 00502ecc     Dialog_Name.obj
 0003:00000f04       ?__LINE__Var@?1??Create@CDialog_Option@@UAEHPAVCDirectDraw@@VCString@@HHHH@Z@4FA 00502f04     Dialog_Option.obj
 0003:00000f6c       ?__LINE__Var@?1??RefreshData@CDialog_Repair@@QAEXXZ@4FA 00502f6c     Dialog_Repair.obj
 0003:00000f70       ?__LINE__Var@?1??Create@CDialog_Repair@@UAEHPAVCDirectDraw@@VCString@@HHHH@Z@4FA 00502f70     Dialog_Repair.obj
 0003:00000fa4       ?__LINE__Var@?1??RefreshData@CDialog_Shop@@QAEXXZ@4FA 00502fa4     Dialog_Shop.obj
 0003:00000fa8       ?__LINE__Var@?1??ShopOpen@CDialog_Shop@@QAEXPAE@Z@4FA 00502fa8     Dialog_Shop.obj
 0003:00000fac       ?__LINE__Var@?1??Create@CDialog_Shop@@UAEHPAVCDirectDraw@@VCString@@HHHH@Z@4FA 00502fac     Dialog_Shop.obj
 0003:00000fe4       ?__LINE__Var@?1??Create@CDialog_SmallMain@@UAEHPAVCDirectDraw@@VCString@@HHHH@Z@4FA 00502fe4     Dialog_SmallMain.obj
 0003:00001020       ?__LINE__Var@?1??Create@CDialog_SpecialMagic@@UAEHPAVCDirectDraw@@VCString@@HHHH@Z@4FA 00503020     Dialog_SpecialMagic.obj
