 IGT4_Debug

 Timestamp is 3af7dec8 (Tue May 08 20:55:52 2001)

 Preferred load address is 00400000

 Start         Length     Name                   Class
 0001:00000000 000c52b6H .text                   CODE
 0001:000c52c0 0000878bH .text$AFX_AUX           CODE
 0001:000cda50 0001308bH .text$AFX_CMNCTL        CODE
 0001:000e0ae0 00009ad5H .text$AFX_COL1          CODE
 0001:000ea5c0 0000670aH .text$AFX_COL2          CODE
 0001:000f0cd0 00019aa4H .text$AFX_CORE1         CODE
 0001:0010a780 00010d41H .text$AFX_CORE2         CODE
 0001:0011b4d0 0001a32cH .text$AFX_CORE3         CODE
 0001:00135800 00013bd1H .text$AFX_CORE4         CODE
 0001:001493e0 00006d7bH .text$AFX_DBG1          CODE
 0001:00150160 00010c65H .text$AFX_DBG2          CODE
 0001:00160dd0 00001215H .text$AFX_INET          CODE
 0001:00161ff0 0000d468H .text$AFX_INIT          CODE
 0001:0016f460 00011ed4H .text$AFX_OLE1          CODE
 0001:00181340 0000a8afH .text$AFX_OLE2          CODE
 0001:0018bbf0 0000959fH .text$AFX_OLE3          CODE
 0001:00195190 0000f1fdH .text$AFX_OLE4          CODE
 0001:001a4390 00005d59H .text$AFX_OLE5          CODE
 0001:001aa0f0 00003d71H .text$AFX_PRNT          CODE
 0001:001ade70 00001650H .text$AFX_TERM          CODE
 0001:001af4c0 0000abcaH .text$x                 CODE
 0001:001ba08a 000b4d06H .textbss                CODE
 0002:00000000 00017238H .rdata                  DATA
 0002:00017238 00005791H .rdata$r                DATA
 0002:0001c9d0 0000f648H .xdata$x                DATA
 0002:0002c018 00000000H .edata                  DATA
 0003:00000000 00000104H .CRT$XCA                DATA
 0003:00000104 00000109H .CRT$XCC                DATA
 0003:00000210 00000126H .CRT$XCL                DATA
 0003:00000338 000001c9H .CRT$XCU                DATA
 0003:00000504 00000104H .CRT$XCZ                DATA
 0003:00000608 00000104H .CRT$XIA                DATA
 0003:0000070c 0000010eH .CRT$XIC                DATA
 0003:0000081c 00000104H .CRT$XIY                DATA
 0003:00000920 00000104H .CRT$XIZ                DATA
 0003:00000a24 00000104H .CRT$XPA                DATA
 0003:00000b28 00000104H .CRT$XPX                DATA
 0003:00000c2c 00000104H .CRT$XPZ                DATA
 0003:00000d30 00000104H .CRT$XTA                DATA
 0003:00000e34 00000104H .CRT$XTB                DATA
 0003:00000f38 00000104H .CRT$XTZ                DATA
 0003:00001040 000145bbH .data                   DATA
 0003:00015600 00204c48H .bss                    DATA
 0004:00000000 00000104H .idata$2                DATA
 0004:00000104 00000014H .idata$3                DATA
 0004:00000118 000010dcH .idata$4                DATA
 0004:000011f4 000010dcH .idata$5                DATA
 0004:000022d0 00003957H .idata$6                DATA
 0005:00000000 00001026H .rsrc$01                DATA
 0005:00001030 000136b6H .rsrc$02                DATA

  Address         Publics by Value              Rva+Base     Lib:Object

 0001:00003d80       ??0_TILE_SUB_SET_DATA_TOOL@@QAE@XZ 00404d80 f   _TILE_SUB_SET_DATA_TOOL.obj
 0001:00003de0       ??_G_TILE_SUB_SET_DATA_TOOL@@UAEPAXI@Z 00404de0 f i _TILE_SUB_SET_DATA_TOOL.obj
 0001:00003de0       ??_E_TILE_SUB_SET_DATA_TOOL@@UAEPAXI@Z 00404de0 f i _TILE_SUB_SET_DATA_TOOL.obj
 0001:00003e50       ??1_TILE_SUB_SET_DATA_TOOL@@UAE@XZ 00404e50 f   _TILE_SUB_SET_DATA_TOOL.obj
 0001:00003ea0       ?Init@_TILE_SUB_SET_DATA_TOOL@@QAEXXZ 00404ea0 f   _TILE_SUB_SET_DATA_TOOL.obj
 0001:00003f20       ?Save@_TILE_SUB_SET_DATA_TOOL@@QAEXAAVCFile@@@Z 00404f20 f   _TILE_SUB_SET_DATA_TOOL.obj
 0001:000040a0       ?Load@_TILE_SUB_SET_DATA_TOOL@@QAEXAAVCFile@@@Z 004050a0 f   _TILE_SUB_SET_DATA_TOOL.obj
 0001:00004300       ?Alloc@_TILE_SUB_SET_DATA_TOOL@@QAEHHH@Z 00405300 f   _TILE_SUB_SET_DATA_TOOL.obj
 0001:00004500       ?Release@_TILE_SUB_SET_DATA_TOOL@@QAEXXZ 00405500 f   _TILE_SUB_SET_DATA_TOOL.obj
 0001:000045f0       ??4_TILE_SUB_SET_DATA_TOOL@@QAEAAV0@AAV0@@Z 004055f0 f   _TILE_SUB_SET_DATA_TOOL.obj
 0001:00004800       ?Increase@_TILE_SUB_SET_DATA_TOOL@@QAEHH@Z 00405800 f   _TILE_SUB_SET_DATA_TOOL.obj
 0001:00004860       ?Decrease@_TILE_SUB_SET_DATA_TOOL@@QAEHH@Z 00405860 f   _TILE_SUB_SET_DATA_TOOL.obj
 0001:000048c0       ?Increase@_TILE_SUB_SET_DATA_TOOL@@QAEXXZ 004058c0 f   _TILE_SUB_SET_DATA_TOOL.obj
 0001:00004920       ?Decrease@_TILE_SUB_SET_DATA_TOOL@@QAEXXZ 00405920 f   _TILE_SUB_SET_DATA_TOOL.obj
 0001:00004980       ??0CAniObjTool@@QAE@XZ     00405980 f   AniObjTool.obj
 0001:00004a60       ??_GCAniObjTool@@UAEPAXI@Z 00405a60 f i AniObjTool.obj
 0001:00004a60       ??_ECAniObjTool@@UAEPAXI@Z 00405a60 f i AniObjTool.obj
 0001:00004ad0       ??1CAniObjTool@@UAE@XZ     00405ad0 f   AniObjTool.obj
 0001:00004bf0       ?SprExGetData@CAniObjTool@@QAEXHPAU_SPR_TOOL@@@Z 00405bf0 f   AniObjTool.obj
 0001:00004c90       ?SprExSetData@CAniObjTool@@QAEXHPAU_SPR_TOOL@@@Z 00405c90 f   AniObjTool.obj
 0001:00004d10       ?SprNew@CAniObjTool@@QAEXXZ 00405d10 f   AniObjTool.obj
 0001:00004e10       ?AniNew@CAniObjTool@@QAEXXZ 00405e10 f   AniObjTool.obj
 0001:00004e90       ?AniAdd@CAniObjTool@@QAEHXZ 00405e90 f   AniObjTool.obj
 0001:00004f80       ?AniInsert@CAniObjTool@@QAEHH@Z 00405f80 f   AniObjTool.obj
 0001:00005090       ?AniDelete@CAniObjTool@@QAEHH@Z 00406090 f   AniObjTool.obj
 0001:000051b0       ?HitTest@CAniObjTool@@QAEHVCPoint@@PAPAU_SPR_TOOL@@@Z 004061b0 f   AniObjTool.obj
 0001:00005290       ?SetColorKey@CAniObjTool@@QAEXK@Z 00406290 f   AniObjTool.obj
 0001:000052c0       ?GetStandLSP@CAniObjTool@@QAEXPAUtagRECT@@PAPBG@Z 004062c0 f   AniObjTool.obj
 0001:000052f0       ?AniSave@CAniObjTool@@QAEXPBD@Z 004062f0 f   AniObjTool.obj
 0001:00005510       ?SprAlloc@CAniObjTool@@UAEXH@Z 00406510 f   AniObjTool.obj
 0001:00005560       ?SprSave@CAniObjTool@@QAEXPBD@Z 00406560 f   AniObjTool.obj
 0001:00005dc0       ?PixelFormatGet@CDDEngine@@QAEHXZ 00406dc0 f i AniObjTool.obj
 0001:00005e00       ??4_SPR_HEADER@@QAEABU0@ABU0@@Z 00406e00 f i AniObjTool.obj
 0001:00005e60       ?SprLoad@CAniObjTool@@UAEXPBDH@Z 00406e60 f   AniObjTool.obj
 0001:00006140       ?SprLoadOldFormat@CAniObjTool@@QAEXPBD@Z 00407140 f   AniObjTool.obj
 0001:00006170       ?AniLoadOldFormat@CAniObjTool@@QAEXPBD@Z 00407170 f   AniObjTool.obj
 0001:000061a0       ?AniDirQtSet@CAniObjTool@@QAEXH@Z 004071a0 f   AniObjTool.obj
 0001:00006390       ??0CDDEngineTool4@@QAE@XZ  00407390 f   DDEngineTool4.obj
 0001:000063f0       ??_GCDDEngineTool4@@UAEPAXI@Z 004073f0 f i DDEngineTool4.obj
 0001:000063f0       ??_ECDDEngineTool4@@UAEPAXI@Z 004073f0 f i DDEngineTool4.obj
 0001:00006460       ??1CDDEngineTool4@@UAE@XZ  00407460 f   DDEngineTool4.obj
 0001:000064b0       ?CalcTileSetPoint@CDDEngineTool4@@QAE?AVCPoint@@V2@@Z 004074b0 f   DDEngineTool4.obj
 0001:00006590       ?DrawGrid@CDDEngineTool4@@QAEXVCRect@@K@Z 00407590 f   DDEngineTool4.obj
 0001:000066c0       ?FindCenterAuto@CDDEngineTool4@@QAE?AUtagPOINT@@PAUIDirectDrawSurface@@VCRect@@K@Z 004076c0 f   DDEngineTool4.obj
 0001:00006970       ?RGB16@CDDEngine@@QAEGK@Z  00407970 f i DDEngineTool4.obj
 0001:00006a50       ?SurfaceLock@CDDEngine@@QAEJPAUIDirectDrawSurface@@PAU_DDSURFACEDESC@@PAUtagRECT@@@Z 00407a50 f i DDEngineTool4.obj
 0001:00006af0       ?SurfaceUnlock@CDDEngine@@QAEJPAUIDirectDrawSurface@@PAUtagRECT@@@Z 00407af0 f i DDEngineTool4.obj
 0001:00006b60       ?FindRegionManual@CDDEngineTool4@@QAE?AUtagRECT@@PAUIDirectDrawSurface@@VCRect@@K@Z 00407b60 f   DDEngineTool4.obj
 0001:00006f70       ?FindRegionAuto@CDDEngineTool4@@QAE?AUtagRECT@@PAUIDirectDrawSurface@@VCPoint@@K@Z 00407f70 f   DDEngineTool4.obj
 0001:00007850       ?EncodeToLSPData@CDDEngineTool4@@QAEHPAUIDirectDrawSurface@@KUtagRECT@@UtagPOINT@@PAU_SPR_LSP@@@Z 00408850 f   DDEngineTool4.obj
 0001:00007e20       ?Convert16PixelTo8Pixel@CDDEngineTool4@@QAEHPAGPAEPAUtagRGBQUAD@@H@Z 00408e20 f   DDEngineTool4.obj
 0001:00008160       ?Convert8PixelTo16Pixel@CDDEngineTool4@@QAEHPAEPAGPAUtagRGBQUAD@@H@Z 00409160 f   DDEngineTool4.obj
 0001:00008290       ?RGB16@CDDEngine@@QAEGGGG@Z 00409290 f i DDEngineTool4.obj
 0001:00008360       ?ConvertSImpleLSPFileToIndexedLSPFile@CDDEngineTool4@@QAEHPBD00@Z 00409360 f   DDEngineTool4.obj
 0001:00008bf0       ?ConvertIndexedLSPFileToSImpleLSPFile@CDDEngineTool4@@QAEHPBD0@Z 00409bf0 f   DDEngineTool4.obj
 0001:00008c40       ?TransactMaskAndAnti@CDDEngineTool4@@QAEHPAUIDirectDrawSurface@@PAGK@Z 00409c40 f   DDEngineTool4.obj
 0001:00009100       ?TransactSimilarTransColor@CDDEngineTool4@@QAEHPAUIDirectDrawSurface@@KH@Z 0040a100 f   DDEngineTool4.obj
 0001:0000a020       ?RGB24@CDDEngine@@QAEKG@Z  0040b020 f i DDEngineTool4.obj
 0001:0000a110       ?TransactPieceLSPSpr@CDDEngineTool4@@QAEHPBDHVCPoint@@PAU_SPR_LSP@@@Z 0040b110 f   DDEngineTool4.obj
 0001:0000a510       ??0CDirTreeCtrl@@QAE@XZ    0040b510 f   DirTreeCtrl.obj
 0001:0000a5c0       ??_ECDirTreeCtrl@@UAEPAXI@Z 0040b5c0 f i DirTreeCtrl.obj
 0001:0000a5c0       ??_GCDirTreeCtrl@@UAEPAXI@Z 0040b5c0 f i DirTreeCtrl.obj
 0001:0000a630       ??1CDirTreeCtrl@@UAE@XZ    0040b630 f   DirTreeCtrl.obj
 0001:0000a6e0       ?GetMessageMap@CDirTreeCtrl@@MBEPBUAFX_MSGMAP@@XZ 0040b6e0 f   DirTreeCtrl.obj
 0001:0000a720       ?Initialize@CDirTreeCtrl@@QAEX_N@Z 0040b720 f   DirTreeCtrl.obj
 0001:0000aa90       ?AddItem@CDirTreeCtrl@@AAEPAU_TREEITEM@@PBDPAU2@_NHH@Z 0040ba90 f   DirTreeCtrl.obj
 0001:0000ac10       ?OnItemexpanded@CDirTreeCtrl@@IAEXPAUtagNMHDR@@PAJ@Z 0040bc10 f   DirTreeCtrl.obj
 0001:0000acb0       ?DeleteAllChild@CDirTreeCtrl@@AAEXPAU_TREEITEM@@_N@Z 0040bcb0 f   DirTreeCtrl.obj
 0001:0000ae70       ?ExpandBranch@CDirTreeCtrl@@AAEXPAU_TREEITEM@@@Z 0040be70 f   DirTreeCtrl.obj
 0001:0000b1b0       ?AddItem_Core@CDirTreeCtrl@@AAEPAU_TREEITEM@@PBDPAU2@_NHH@Z 0040c1b0 f   DirTreeCtrl.obj
 0001:0000b250       ?GetPathFromHere@CDirTreeCtrl@@AAE?AVCString@@V2@PAU_TREEITEM@@@Z 0040c250 f   DirTreeCtrl.obj
 0001:0000b7a0       ?RefreshTreeImages@CDirTreeCtrl@@AAEXPAU_TREEITEM@@H@Z 0040c7a0 f   DirTreeCtrl.obj
 0001:0000b8a0       ?MatchExtension@CDirTreeCtrl@@EAE_NVCString@@@Z 0040c8a0 f   DirTreeCtrl.obj
 0001:0000b9a0       ?GetFullPath@CDirTreeCtrl@@QAE?AVCString@@PAU_TREEITEM@@@Z 0040c9a0 f   DirTreeCtrl.obj
 0001:0000bb00       ?SetPath@CDirTreeCtrl@@QAE_NVCString@@@Z 0040cb00 f   DirTreeCtrl.obj
 0001:0000bcc0       ?Dir2Item@CDirTreeCtrl@@AAEPAU_TREEITEM@@PAU2@PAD@Z 0040ccc0 f   DirTreeCtrl.obj
 0001:0000bf90       ?OnCreate@CDirTreeCtrl@@IAEHPAUtagCREATESTRUCTA@@@Z 0040cf90 f   DirTreeCtrl.obj
 0001:0000c000       ??0CDlgAniObj@@QAE@XZ      0040d000 f   DlgAniObj.obj
 0001:0000c160       ??_ECDlgAniObj@@UAEPAXI@Z  0040d160 f i DlgAniObj.obj
 0001:0000c160       ??_GCDlgAniObj@@UAEPAXI@Z  0040d160 f i DlgAniObj.obj
 0001:0000c1d0       ??1CDlgAniObj@@UAE@XZ      0040d1d0 f   DlgAniObj.obj
 0001:0000c380       ?DoDataExchange@CDlgAniObj@@MAEXPAVCDataExchange@@@Z 0040d380 f   DlgAniObj.obj
 0001:0000c460       ?GetMessageMap@CDlgAniObj@@MBEPBUAFX_MSGMAP@@XZ 0040d460 f   DlgAniObj.obj
 0001:0000c4a0       ?OnBAniFrmsGetFromString@CDlgAniObj@@IAEXXZ 0040d4a0 f   DlgAniObj.obj
 0001:0000c7b0       ?OnBAniFrmPrev@CDlgAniObj@@IAEXXZ 0040d7b0 f   DlgAniObj.obj
 0001:0000c850       ?OnBAniFrmNext@CDlgAniObj@@IAEXXZ 0040d850 f   DlgAniObj.obj
 0001:0000c8f0       ?UpdateAniInfo@CDlgAniObj@@QAEXXZ 0040d8f0 f   DlgAniObj.obj
 0001:0000cc70       ?UpdateSprInfo@CDlgAniObj@@QAEXXZ 0040dc70 f   DlgAniObj.obj
 0001:0000ccd0       ?UpdateSprObjInfo@CDlgAniObj@@QAEXXZ 0040dcd0 f   DlgAniObj.obj
 0001:0000cee0       ?OnChangeEAniMaxFrm@CDlgAniObj@@IAEXXZ 0040dee0 f   DlgAniObj.obj
 0001:0000d170       ?OnChangeEAniSpeed@CDlgAniObj@@IAEXXZ 0040e170 f   DlgAniObj.obj
 0001:0000d2c0       ?OnInitDialog@CDlgAniObj@@MAEHXZ 0040e2c0 f   DlgAniObj.obj
 0001:0000d370       ?OnCreate@CDlgAniObj@@IAEHPAUtagCREATESTRUCTA@@@Z 0040e370 f   DlgAniObj.obj
 0001:0000d450       ?OnDestroy@CDlgAniObj@@IAEXXZ 0040e450 f   DlgAniObj.obj
 0001:0000d500       ?OnBAniPlay@CDlgAniObj@@IAEXXZ 0040e500 f   DlgAniObj.obj
 0001:0000d5f0       ?UpdateWorkWindow@CDlgAniObj@@QAEXXZ 0040e5f0 f   DlgAniObj.obj
 0001:0000d650       ?OnBAniNew@CDlgAniObj@@IAEXXZ 0040e650 f   DlgAniObj.obj
 0001:0000d700       ?OnBAniLoad@CDlgAniObj@@IAEXXZ 0040e700 f   DlgAniObj.obj
 0001:0000da00       ??1CFileDialog@@UAE@XZ     0040ea00 f i DlgAniObj.obj
 0001:0000da90       ??1CCommonDialog@@UAE@XZ   0040ea90 f i DlgAniObj.obj
 0001:0000dae0       ?OnBAniSave@CDlgAniObj@@IAEXXZ 0040eae0 f   DlgAniObj.obj
 0001:0000dbe0       ?OnBAniSaveAs@CDlgAniObj@@IAEXXZ 0040ebe0 f   DlgAniObj.obj
 0001:0000dda0       ?OnSelchangeAniList@CDlgAniObj@@IAEXXZ 0040eda0 f   DlgAniObj.obj
 0001:0000de50       ?OnBAniInsert@CDlgAniObj@@IAEXXZ 0040ee50 f   DlgAniObj.obj
 0001:0000df20       ?OnBAniAdd@CDlgAniObj@@IAEXXZ 0040ef20 f   DlgAniObj.obj
 0001:0000dfd0       ?OnBAniDelete@CDlgAniObj@@IAEXXZ 0040efd0 f   DlgAniObj.obj
 0001:0000e080       ?OnBAniCopy@CDlgAniObj@@IAEXXZ 0040f080 f   DlgAniObj.obj
 0001:0000e280       ?OnBAniPaste@CDlgAniObj@@IAEXXZ 0040f280 f   DlgAniObj.obj
 0001:0000e450       ?UpdateAniList@CDlgAniObj@@QAEXXZ 0040f450 f   DlgAniObj.obj
 0001:0000e530       ?OnTimer@CDlgAniObj@@IAEXI@Z 0040f530 f   DlgAniObj.obj
 0001:0000e600       ?OnBAniFrmsGetAutoFromFront@CDlgAniObj@@IAEXXZ 0040f600 f   DlgAniObj.obj
 0001:0000e9f0       ?OnBAniFrmsSetSameToFront@CDlgAniObj@@IAEXXZ 0040f9f0 f   DlgAniObj.obj
 0001:0000eb40       ?OnBAniFrmsGetAutoSeq@CDlgAniObj@@IAEXXZ 0040fb40 f   DlgAniObj.obj
 0001:0000ec80       ?GetFileName@CDlgAniObj@@QAE?AVCString@@XZ 0040fc80 f   DlgAniObj.obj
 0001:0000ed40       ?SetFileName@CDlgAniObj@@QAEXPBD@Z 0040fd40 f   DlgAniObj.obj
 0001:0000eda0       ?OnChangeAniName@CDlgAniObj@@IAEXXZ 0040fda0 f   DlgAniObj.obj
 0001:0000ef00       ?OnBSprExportToBmp@CDlgAniObj@@IAEXXZ 0040ff00 f   DlgAniObj.obj
 0001:0000f850       ?Lock@CDib16@@QAEPAGXZ     00410850 f i DlgAniObj.obj
 0001:0000f8c0       ?Unlock@CDib16@@QAEXXZ     004108c0 f i DlgAniObj.obj
 0001:0000f920       ?OnBSprImportFromBmp@CDlgAniObj@@IAEXXZ 00410920 f   DlgAniObj.obj
 0001:00010160       ?OnBSprNew@CDlgAniObj@@IAEXXZ 00411160 f   DlgAniObj.obj
 0001:00010250       ?OnBSprLoad@CDlgAniObj@@IAEXXZ 00411250 f   DlgAniObj.obj
 0001:00010500       ?OnBSprSave@CDlgAniObj@@IAEXXZ 00411500 f   DlgAniObj.obj
 0001:00010600       ?OnBSprSaveAs@CDlgAniObj@@IAEXXZ 00411600 f   DlgAniObj.obj
 0001:000107c0       ?OnHScroll@CDlgAniObj@@IAEXIIPAVCScrollBar@@@Z 004117c0 f   DlgAniObj.obj
 0001:00010840       ?OnBSprSetQt@CDlgAniObj@@IAEXXZ 00411840 f   DlgAniObj.obj
 0001:00010900       ?OnBSprBrowseBmp@CDlgAniObj@@IAEXXZ 00411900 f   DlgAniObj.obj
 0001:00010c70       ?OnCSprCkR@CDlgAniObj@@IAEXXZ 00411c70 f   DlgAniObj.obj
 0001:00010dc0       ?OnCSprCkG@CDlgAniObj@@IAEXXZ 00411dc0 f   DlgAniObj.obj
 0001:00010f10       ?OnCSprCkB@CDlgAniObj@@IAEXXZ 00411f10 f   DlgAniObj.obj
 0001:00011060       ?OnSelendokCbWork@CDlgAniObj@@IAEXXZ 00412060 f   DlgAniObj.obj
 0001:000110b0       ?OnOK@CDlgAniObj@@UAEXXZ   004120b0 f   DlgAniObj.obj
 0001:000110e0       ?OnCancel@CDlgAniObj@@UAEXXZ 004120e0 f   DlgAniObj.obj
 0001:00011110       ?OnBAniSetDirQt@CDlgAniObj@@IAEXXZ 00412110 f   DlgAniObj.obj
 0001:00011260       ?OnSelchangeCbDir@CDlgAniObj@@IAEXXZ 00412260 f   DlgAniObj.obj
 0001:000112b0       ??0CDlgBMPConvert@@QAE@PAVCWnd@@@Z 004122b0 f   DlgBMPConvert.obj
 0001:00011360       ??_GCDlgBMPConvert@@UAEPAXI@Z 00412360 f i DlgBMPConvert.obj
 0001:00011360       ??_ECDlgBMPConvert@@UAEPAXI@Z 00412360 f i DlgBMPConvert.obj
 0001:000113d0       ??1CDlgBMPConvert@@UAE@XZ  004123d0 f i DlgBMPConvert.obj
 0001:00011460       ?DoDataExchange@CDlgBMPConvert@@MAEXPAVCDataExchange@@@Z 00412460 f   DlgBMPConvert.obj
 0001:000114d0       ?GetMessageMap@CDlgBMPConvert@@MBEPBUAFX_MSGMAP@@XZ 004124d0 f   DlgBMPConvert.obj
 0001:00011510       ?OnBAddFile@CDlgBMPConvert@@IAEXXZ 00412510 f   DlgBMPConvert.obj
 0001:00011700       ?OnBRemoveFile@CDlgBMPConvert@@IAEXXZ 00412700 f   DlgBMPConvert.obj
 0001:000117e0       ?OnBBmpToObm@CDlgBMPConvert@@IAEXXZ 004127e0 f   DlgBMPConvert.obj
 0001:00011b00       ?OnBObmToBmp@CDlgBMPConvert@@IAEXXZ 00412b00 f   DlgBMPConvert.obj
 0001:00011e20       ??0CDlgColor@@QAE@PAVCWnd@@@Z 00412e20 f   DlgColor.obj
 0001:00011f20       ??_GCDlgColor@@UAEPAXI@Z   00412f20 f i DlgColor.obj
 0001:00011f20       ??_ECDlgColor@@UAEPAXI@Z   00412f20 f i DlgColor.obj
 0001:00011f90       ??1CDlgColor@@UAE@XZ       00412f90 f i DlgColor.obj
 0001:00012060       ?DoDataExchange@CDlgColor@@MAEXPAVCDataExchange@@@Z 00413060 f   DlgColor.obj
 0001:00012120       ?GetMessageMap@CDlgColor@@MBEPBUAFX_MSGMAP@@XZ 00413120 f   DlgColor.obj
 0001:00012160       ?OnChangeER@CDlgColor@@IAEXXZ 00413160 f   DlgColor.obj
 0001:000121b0       ?OnChangeEG@CDlgColor@@IAEXXZ 004131b0 f   DlgColor.obj
 0001:00012200       ?OnChangeEB@CDlgColor@@IAEXXZ 00413200 f   DlgColor.obj
 0001:00012250       ?OnHScroll@CDlgColor@@IAEXIIPAVCScrollBar@@@Z 00413250 f   DlgColor.obj
 0001:00012350       ?UpdateColor@CDlgColor@@QAEXXZ 00413350 f   DlgColor.obj
 0001:00012460       ?OnInitDialog@CDlgColor@@MAEHXZ 00413460 f   DlgColor.obj
 0001:00012500       ??0CDlgColorBltTest@@QAE@PAVCWnd@@@Z 00413500 f   DlgColorBltTest.obj
 0001:00012620       ??_ECDlgColorBltTest@@UAEPAXI@Z 00413620 f i DlgColorBltTest.obj
 0001:00012620       ??_GCDlgColorBltTest@@UAEPAXI@Z 00413620 f i DlgColorBltTest.obj
 0001:00012690       ??1CDlgColorBltTest@@UAE@XZ 00413690 f i DlgColorBltTest.obj
 0001:00012790       ?DoDataExchange@CDlgColorBltTest@@MAEXPAVCDataExchange@@@Z 00413790 f   DlgColorBltTest.obj
 0001:00012870       ?GetMessageMap@CDlgColorBltTest@@MBEPBUAFX_MSGMAP@@XZ 00413870 f   DlgColorBltTest.obj
 0001:000128b0       ?OnBSprBrowse@CDlgColorBltTest@@IAEXXZ 004138b0 f   DlgColorBltTest.obj
 0001:00012ae0       ?OnChangeER@CDlgColorBltTest@@IAEXXZ 00413ae0 f   DlgColorBltTest.obj
 0001:00012b30       ?OnChangeEG@CDlgColorBltTest@@IAEXXZ 00413b30 f   DlgColorBltTest.obj
 0001:00012b80       ?OnChangeEB@CDlgColorBltTest@@IAEXXZ 00413b80 f   DlgColorBltTest.obj
 0001:00012bd0       ?OnChangeESpr@CDlgColorBltTest@@IAEXXZ 00413bd0 f   DlgColorBltTest.obj
 0001:00012c20       ?OnHScroll@CDlgColorBltTest@@IAEXIIPAVCScrollBar@@@Z 00413c20 f   DlgColorBltTest.obj
 0001:00012d10       ?UpdatePreview@CDlgColorBltTest@@QAEXXZ 00413d10 f   DlgColorBltTest.obj
 0001:00012ed0       ?HWndSet@CDDEngine@@QAEXPAUHWND__@@@Z 00413ed0 f i DlgColorBltTest.obj
 0001:00012f60       ?OnPaint@CDlgColorBltTest@@IAEXXZ 00413f60 f   DlgColorBltTest.obj
 0001:00013000       ?OnInitDialog@CDlgColorBltTest@@MAEHXZ 00414000 f   DlgColorBltTest.obj
 0001:000130a0       ??0CDlgFolderSelect@@QAE@PAVCWnd@@@Z 004140a0 f   DlgFolderSelect.obj
 0001:00013180       ??_GCDlgFolderSelect@@UAEPAXI@Z 00414180 f i DlgFolderSelect.obj
 0001:00013180       ??_ECDlgFolderSelect@@UAEPAXI@Z 00414180 f i DlgFolderSelect.obj
 0001:000131f0       ??1CDlgFolderSelect@@UAE@XZ 004141f0 f i DlgFolderSelect.obj
 0001:000132b0       ?DoDataExchange@CDlgFolderSelect@@MAEXPAVCDataExchange@@@Z 004142b0 f   DlgFolderSelect.obj
 0001:00013340       ?GetMessageMap@CDlgFolderSelect@@MBEPBUAFX_MSGMAP@@XZ 00414340 f   DlgFolderSelect.obj
 0001:00013380       ?OnInitDialog@CDlgFolderSelect@@MAEHXZ 00414380 f   DlgFolderSelect.obj
 0001:00013630       ?OnSelchangedBrowseTree@CDlgFolderSelect@@IAEXPAUtagNMHDR@@PAJ@Z 00414630 f   DlgFolderSelect.obj
 0001:00013770       ?OnTunnelTree@CDlgFolderSelect@@IAEXXZ 00414770 f   DlgFolderSelect.obj
 0001:00013830       ?OnOK@CDlgFolderSelect@@MAEXXZ 00414830 f   DlgFolderSelect.obj
 0001:00013ab0       ?OnCancel@CDlgFolderSelect@@MAEXXZ 00414ab0 f   DlgFolderSelect.obj
 0001:00013b00       ?SetInitFolderName@CDlgFolderSelect@@QAEXAAVCString@@@Z 00414b00 f   DlgFolderSelect.obj
 0001:00013b60       ?GetFolderName@CDlgFolderSelect@@QAE?AVCString@@XZ 00414b60 f   DlgFolderSelect.obj
 0001:00013bd0       ?OnSelchangeFolderList@CDlgFolderSelect@@IAEXXZ 00414bd0 f   DlgFolderSelect.obj
 0001:00013c90       ??0CDlgHouseInfo@@QAE@PAVCWnd@@@Z 00414c90 f   DlgHouseInfo.obj
 0001:00013dd0       ??_GCDlgHouseInfo@@UAEPAXI@Z 00414dd0 f i DlgHouseInfo.obj
 0001:00013dd0       ??_ECDlgHouseInfo@@UAEPAXI@Z 00414dd0 f i DlgHouseInfo.obj
 0001:00013e40       ??1CDlgHouseInfo@@UAE@XZ   00414e40 f i DlgHouseInfo.obj
 0001:00013ed0       ?DoDataExchange@CDlgHouseInfo@@MAEXPAVCDataExchange@@@Z 00414ed0 f   DlgHouseInfo.obj
 0001:00013f40       ?GetMessageMap@CDlgHouseInfo@@MBEPBUAFX_MSGMAP@@XZ 00414f40 f   DlgHouseInfo.obj
 0001:00013f80       ?OnSelchangeListHouse@CDlgHouseInfo@@IAEXXZ 00414f80 f   DlgHouseInfo.obj
 0001:00014010       ?OnChangeEHouseNumber@CDlgHouseInfo@@IAEXXZ 00415010 f   DlgHouseInfo.obj
 0001:000140d0       ?OnInitDialog@CDlgHouseInfo@@MAEHXZ 004150d0 f   DlgHouseInfo.obj
 0001:00014220       ?OnBNew@CDlgHouseInfo@@IAEXXZ 00415220 f   DlgHouseInfo.obj
 0001:00014300       ?OnBLoad@CDlgHouseInfo@@IAEXXZ 00415300 f   DlgHouseInfo.obj
 0001:00014760       ?OnBSave@CDlgHouseInfo@@IAEXXZ 00415760 f   DlgHouseInfo.obj
 0001:00014940       ?OnBSaveAs@CDlgHouseInfo@@IAEXXZ 00415940 f   DlgHouseInfo.obj
 0001:00014b00       ?OnBRgnInit@CDlgHouseInfo@@IAEXXZ 00415b00 f   DlgHouseInfo.obj
 0001:00014bc0       ?OnGoPos@CDlgHouseInfo@@IAEXXZ 00415bc0 f   DlgHouseInfo.obj
 0001:00014c50       ?OnChangeSizeX@CDlgHouseInfo@@IAEXXZ 00415c50 f   DlgHouseInfo.obj
 0001:00014cf0       ?OnChangeSizeY@CDlgHouseInfo@@IAEXXZ 00415cf0 f   DlgHouseInfo.obj
 0001:00014d90       ??0CDlgHouseOption@@QAE@PAVCWnd@@@Z 00415d90 f   DlgHouseOption.obj
 0001:00014ea0       ??_ECDlgHouseOption@@UAEPAXI@Z 00415ea0 f i DlgHouseOption.obj
 0001:00014ea0       ??_GCDlgHouseOption@@UAEPAXI@Z 00415ea0 f i DlgHouseOption.obj
 0001:00014f10       ??1CDlgHouseOption@@UAE@XZ 00415f10 f i DlgHouseOption.obj
 0001:00014fb0       ?DoDataExchange@CDlgHouseOption@@MAEXPAVCDataExchange@@@Z 00415fb0 f   DlgHouseOption.obj
 0001:00015040       ?GetMessageMap@CDlgHouseOption@@MBEPBUAFX_MSGMAP@@XZ 00416040 f   DlgHouseOption.obj
 0001:00015080       ?OnCheckHouseoption@CDlgHouseOption@@IAEXXZ 00416080 f   DlgHouseOption.obj
 0001:000150f0       ?OnInitDialog@CDlgHouseOption@@MAEHXZ 004160f0 f   DlgHouseOption.obj
 0001:00015170       ?OnRadioNomove@CDlgHouseOption@@IAEXXZ 00416170 f   DlgHouseOption.obj
 0001:000151d0       ?OnRadioMovable@CDlgHouseOption@@IAEXXZ 004161d0 f   DlgHouseOption.obj
 0001:00015230       ?OnRadioNotmovable@CDlgHouseOption@@IAEXXZ 00416230 f   DlgHouseOption.obj
 0001:00015290       ?OnRadioNohouse@CDlgHouseOption@@IAEXXZ 00416290 f   DlgHouseOption.obj
 0001:000152f0       ?OnRadioHouse@CDlgHouseOption@@IAEXXZ 004162f0 f   DlgHouseOption.obj
 0001:00015350       ?OnCheckHouse@CDlgHouseOption@@IAEXXZ 00416350 f   DlgHouseOption.obj
 0001:000154b0       ?SetCheckHouse@CDlgHouseOption@@QAEXH@Z 004164b0 f   DlgHouseOption.obj
 0001:00015570       ?EnableHouse@CDlgHouseOption@@QAEXH@Z 00416570 f   DlgHouseOption.obj
 0001:000155d0       ?CheckHouse@CDlgHouseOption@@QAEXH@Z 004165d0 f   DlgHouseOption.obj
 0001:000156c0       ?SetTileSet@CDlgHouseOption@@QAEXHH@Z 004166c0 f   DlgHouseOption.obj
 0001:000157d0       ?Lookup@?$CMap@HHPAVCHouseInfo@@AAPAV1@@@QBEHHAAPAVCHouseInfo@@@Z 004167d0 f i DlgHouseOption.obj
 0001:00015860       ?GetAssocAt@?$CMap@HHPAVCHouseInfo@@AAPAV1@@@IBEPAUCAssoc@1@HAAI@Z 00416860 f i DlgHouseOption.obj
 0001:00015920       ?HashKey@@YGIH@Z           00416920 f i DlgHouseOption.obj
 0001:00015950       ?CompareElements@@YGHPBH0@Z 00416950 f i DlgHouseOption.obj
 0001:00015a00       ??0CDlgIntf@@QAE@PAVCWnd@@@Z 00416a00 f   DlgIntf.obj
 0001:00015b90       ??_GCDlgIntf@@UAEPAXI@Z    00416b90 f i DlgIntf.obj
 0001:00015b90       ??_ECDlgIntf@@UAEPAXI@Z    00416b90 f i DlgIntf.obj
 0001:00015c00       ??1CDlgIntf@@UAE@XZ        00416c00 f   DlgIntf.obj
 0001:00015db0       ?DoDataExchange@CDlgIntf@@MAEXPAVCDataExchange@@@Z 00416db0 f   DlgIntf.obj
 0001:00015f20       ?GetMessageMap@CDlgIntf@@MBEPBUAFX_MSGMAP@@XZ 00416f20 f   DlgIntf.obj
 0001:00015f60       ?OnInitDialog@CDlgIntf@@MAEHXZ 00416f60 f   DlgIntf.obj
 0001:00016230       ?AniLoad@CDlgIntf@@QAEXPBD@Z 00417230 f   DlgIntf.obj
 0001:00016270       ?AniNew@CDlgIntf@@QAEXXZ   00417270 f   DlgIntf.obj
 0001:000162a0       ?UpdateWorkWnd@CDlgIntf@@QAEXXZ 004172a0 f   DlgIntf.obj
 0001:00016300       ?New@CDlgIntf@@QAEXXZ      00417300 f   DlgIntf.obj
 0001:00016360       ?OnNew@CDlgIntf@@IAEXXZ    00417360 f   DlgIntf.obj
 0001:000163e0       ?OnLoad@CDlgIntf@@IAEXXZ   004173e0 f   DlgIntf.obj
 0001:00016600       ?OnSave@CDlgIntf@@IAEXXZ   00417600 f   DlgIntf.obj
 0001:00016720       ?OnSaveAs@CDlgIntf@@IAEXXZ 00417720 f   DlgIntf.obj
 0001:000169a0       ?OnBrowseSpr@CDlgIntf@@IAEXXZ 004179a0 f   DlgIntf.obj
 0001:00016b70       ?OnBrowseAni@CDlgIntf@@IAEXXZ 00417b70 f   DlgIntf.obj
 0001:00016d30       ?RefreshData@CDlgIntf@@QAEXXZ 00417d30 f   DlgIntf.obj
 0001:000171c0       ?Refresh@CDlgIntf@@QAEXXZ  004181c0 f   DlgIntf.obj
 0001:000174b0       ?OnTimer@CDlgIntf@@IAEXI@Z 004184b0 f   DlgIntf.obj
 0001:00017520       ?OnCViewBkg@CDlgIntf@@IAEXXZ 00418520 f   DlgIntf.obj
 0001:00017570       ?OnCViewTrans@CDlgIntf@@IAEXXZ 00418570 f   DlgIntf.obj
 0001:000175c0       ?OnCViewZoom@CDlgIntf@@IAEXXZ 004185c0 f   DlgIntf.obj
 0001:00017610       ?OnCViewLine@CDlgIntf@@IAEXXZ 00418610 f   DlgIntf.obj
 0001:00017660       ?OnCPlayAnimation@CDlgIntf@@IAEXXZ 00418660 f   DlgIntf.obj
 0001:000176d0       ?UpdateDlg@CDlgIntf@@QAEXXZ 004186d0 f   DlgIntf.obj
 0001:000178e0       ?AniObjGet@CIntf@@QAEPAVCAniObjLSP@@XZ 004188e0 f i DlgIntf.obj
 0001:00017920       ?OnRclickTree@CDlgIntf@@IAEXPAUtagNMHDR@@PAJ@Z 00418920 f   DlgIntf.obj
 0001:00017ba0       ?OnKeydownTree@CDlgIntf@@IAEXPAUtagNMHDR@@PAJ@Z 00418ba0 f   DlgIntf.obj
 0001:00017e00       ?OnEndlabeleditTree@CDlgIntf@@IAEXPAUtagNMHDR@@PAJ@Z 00418e00 f   DlgIntf.obj
 0001:00018300       ?OnBeginlabeleditTree@CDlgIntf@@IAEXPAUtagNMHDR@@PAJ@Z 00419300 f   DlgIntf.obj
 0001:000183b0       ?OnMenuLayerAdd@CDlgIntf@@IAEXXZ 004193b0 f   DlgIntf.obj
 0001:000184e0       ?OnMenuLayerInsert@CDlgIntf@@IAEXXZ 004194e0 f   DlgIntf.obj
 0001:00018660       ?OnMenuLayerDelete@CDlgIntf@@IAEXXZ 00419660 f   DlgIntf.obj
 0001:000187a0       ?OnMenuIntfAdd@CDlgIntf@@IAEXXZ 004197a0 f   DlgIntf.obj
 0001:00018a00       ?OnMenuIntfInsert@CDlgIntf@@IAEXXZ 00419a00 f   DlgIntf.obj
 0001:00018c20       ?OnMenuIntfDelete@CDlgIntf@@IAEXXZ 00419c20 f   DlgIntf.obj
 0001:00018d00       ?OnMenuIntfCopy@CDlgIntf@@IAEXXZ 00419d00 f   DlgIntf.obj
 0001:00018e70       ?OnMenuIntfPaste@CDlgIntf@@IAEXXZ 00419e70 f   DlgIntf.obj
 0001:000190f0       ?OnSelchangedTree@CDlgIntf@@IAEXPAUtagNMHDR@@PAJ@Z 0041a0f0 f   DlgIntf.obj
 0001:000191b0       ?OnSelchangeAniList@CDlgIntf@@IAEXXZ 0041a1b0 f   DlgIntf.obj
 0001:000192f0       ?GetRenderStatus@CDlgIntf@@QAEHXZ 0041a2f0 f   DlgIntf.obj
 0001:000193a0       ?LayerGetValid@CDlgIntf@@QAEHXZ 0041a3a0 f   DlgIntf.obj
 0001:000194b0       ?IntfGetValid@CDlgIntf@@QAEHXZ 0041a4b0 f   DlgIntf.obj
 0001:00019590       ?IntfGetValidQt@CDlgIntf@@QAEHXZ 0041a590 f   DlgIntf.obj
 0001:000196f0       ?IntfGetValidIndex@CDlgIntf@@QAEHHPAH0@Z 0041a6f0 f   DlgIntf.obj
 0001:000198f0       ?IntfGetValidCheck@CDlgIntf@@QAEHH@Z 0041a8f0 f   DlgIntf.obj
 0001:00019a90       ?IntfSetValid@CDlgIntf@@QAEXH@Z 0041aa90 f   DlgIntf.obj
 0001:00019bb0       ?UpdateTreeByData@CDlgIntf@@QAEXXZ 0041abb0 f   DlgIntf.obj
 0001:00019ff0       ?OnBegindragTree@CDlgIntf@@IAEXPAUtagNMHDR@@PAJ@Z 0041aff0 f   DlgIntf.obj
 0001:0001a040       ?OnClickTree@CDlgIntf@@IAEXPAUtagNMHDR@@PAJ@Z 0041b040 f   DlgIntf.obj
 0001:0001a0a0       ?OnChangeEditWidth@CDlgIntf@@IAEXXZ 0041b0a0 f   DlgIntf.obj
 0001:0001a120       ?OnChangeEditHeight@CDlgIntf@@IAEXXZ 0041b120 f   DlgIntf.obj
 0001:0001a1a0       ?UpdateNodeIntf@CDlgIntf@@QAEXPAU_TREEITEM@@@Z 0041b1a0 f   DlgIntf.obj
 0001:0001a6d0       ?OnOK@CDlgIntf@@UAEXXZ     0041b6d0 f   DlgIntf.obj
 0001:0001a700       ?OnCancel@CDlgIntf@@UAEXXZ 0041b700 f   DlgIntf.obj
 0001:0001a730       ?OnBBrowseBkg@CDlgIntf@@IAEXXZ 0041b730 f   DlgIntf.obj
 0001:0001a8d0       ?OnSelchangeCbIntfType@CDlgIntf@@IAEXXZ 0041b8d0 f   DlgIntf.obj
 0001:0001a920       ?OnChangeEFlag0@CDlgIntf@@IAEXXZ 0041b920 f   DlgIntf.obj
 0001:0001a970       ?OnChangeEFlag1@CDlgIntf@@IAEXXZ 0041b970 f   DlgIntf.obj
 0001:0001a9c0       ?OnChangeEFlag2@CDlgIntf@@IAEXXZ 0041b9c0 f   DlgIntf.obj
 0001:0001aa10       ?OnChangeEFlag3@CDlgIntf@@IAEXXZ 0041ba10 f   DlgIntf.obj
 0001:0001aa60       ?OnSelchangeCbRenderType@CDlgIntf@@IAEXXZ 0041ba60 f   DlgIntf.obj
 0001:0001aab0       ?OnChangeEA@CDlgIntf@@IAEXXZ 0041bab0 f   DlgIntf.obj
 0001:0001ab00       ?OnChangeER@CDlgIntf@@IAEXXZ 0041bb00 f   DlgIntf.obj
 0001:0001ab50       ?OnChangeEG@CDlgIntf@@IAEXXZ 0041bb50 f   DlgIntf.obj
 0001:0001aba0       ?OnChangeEB@CDlgIntf@@IAEXXZ 0041bba0 f   DlgIntf.obj
 0001:0001abf0       ?OnCViewOutline@CDlgIntf@@IAEXXZ 0041bbf0 f   DlgIntf.obj
 0001:0001ac40       ??0CDlgItem@@QAE@PAVCWnd@@@Z 0041bc40 f   DlgItem.obj
 0001:0001ad60       ??_ECDlgItem@@UAEPAXI@Z    0041bd60 f i DlgItem.obj
 0001:0001ad60       ??_GCDlgItem@@UAEPAXI@Z    0041bd60 f i DlgItem.obj
 0001:0001add0       ??1CDlgItem@@UAE@XZ        0041bdd0 f   DlgItem.obj
 0001:0001aec0       ?DoDataExchange@CDlgItem@@MAEXPAVCDataExchange@@@Z 0041bec0 f   DlgItem.obj
 0001:0001af70       ?GetMessageMap@CDlgItem@@MBEPBUAFX_MSGMAP@@XZ 0041bf70 f   DlgItem.obj
 0001:0001afb0       ?OnBBrowseSpr@CDlgItem@@IAEXXZ 0041bfb0 f   DlgItem.obj
 0001:0001b190       ?OnBBrowseAni@CDlgItem@@IAEXXZ 0041c190 f   DlgItem.obj
 0001:0001b370       ?OnBNew@CDlgItem@@IAEXXZ   0041c370 f   DlgItem.obj
 0001:0001b480       ?OnBLoad@CDlgItem@@IAEXXZ  0041c480 f   DlgItem.obj
 0001:0001b710       ?OnBSave@CDlgItem@@IAEXXZ  0041c710 f   DlgItem.obj
 0001:0001b810       ?OnBSaveAs@CDlgItem@@IAEXXZ 0041c810 f   DlgItem.obj
 0001:0001b9d0       ?OnSelchangeLbItem@CDlgItem@@IAEXXZ 0041c9d0 f   DlgItem.obj
 0001:0001ba40       ?UpdateItemInfo@CDlgItem@@QAEXXZ 0041ca40 f   DlgItem.obj
 0001:0001be10       ?UpdateItemData@CDlgItem@@QAEXXZ 0041ce10 f   DlgItem.obj
 0001:0001c1d0       ?OnBQtSet@CDlgItem@@IAEXXZ 0041d1d0 f   DlgItem.obj
 0001:0001c240       ?UpdatePreview@CDlgItem@@QAEXXZ 0041d240 f   DlgItem.obj
 0001:0001c420       ?UpdateAniListBox@CDlgItem@@QAEXXZ 0041d420 f   DlgItem.obj
 0001:0001c5b0       ?UpdateItemListBox@CDlgItem@@QAEXXZ 0041d5b0 f   DlgItem.obj
 0001:0001c740       ?OnSPreview@CDlgItem@@IAEXXZ 0041d740 f   DlgItem.obj
 0001:0001c850       ?OnSelchangeLbAni@CDlgItem@@IAEXXZ 0041d850 f   DlgItem.obj
 0001:0001c8a0       ?OnPaint@CDlgItem@@IAEXXZ  0041d8a0 f   DlgItem.obj
 0001:0001c940       ??0CDlgLook@@QAE@PAVCWnd@@@Z 0041d940 f   DlgLook.obj
 0001:0001cad0       ??_GCDlgLook@@UAEPAXI@Z    0041dad0 f i DlgLook.obj
 0001:0001cad0       ??_ECDlgLook@@UAEPAXI@Z    0041dad0 f i DlgLook.obj
 0001:0001cb40       ??1CDlgLook@@UAE@XZ        0041db40 f   DlgLook.obj
 0001:0001cca0       ?DoDataExchange@CDlgLook@@MAEXPAVCDataExchange@@@Z 0041dca0 f   DlgLook.obj
 0001:0001cda0       ?GetMessageMap@CDlgLook@@MBEPBUAFX_MSGMAP@@XZ 0041dda0 f   DlgLook.obj
 0001:0001cde0       ?OnStaticPreview@CDlgLook@@IAEXXZ 0041dde0 f   DlgLook.obj
 0001:0001ce90       ?UpdatePreview@CDlgLook@@QAEXXZ 0041de90 f   DlgLook.obj
 0001:0001d220       ?OnBLoad@CDlgLook@@IAEXXZ  0041e220 f   DlgLook.obj
 0001:0001d480       ?OnBNew@CDlgLook@@IAEXXZ   0041e480 f   DlgLook.obj
 0001:0001d550       ?OnBSave@CDlgLook@@IAEXXZ  0041e550 f   DlgLook.obj
 0001:0001d650       ?OnBSaveAs@CDlgLook@@IAEXXZ 0041e650 f   DlgLook.obj
 0001:0001d810       ?OnBBrowseSpr@CDlgLook@@IAEXXZ 0041e810 f   DlgLook.obj
 0001:0001da30       ?OnBBrowseAni@CDlgLook@@IAEXXZ 0041ea30 f   DlgLook.obj
 0001:0001dc40       ?OnSelchangeListAni@CDlgLook@@IAEXXZ 0041ec40 f   DlgLook.obj
 0001:0001de60       ?OnInitDialog@CDlgLook@@MAEHXZ 0041ee60 f   DlgLook.obj
 0001:0001e050       ?UpdateAniList@CDlgLook@@QAEXXZ 0041f050 f   DlgLook.obj
 0001:0001e240       ?OnCAnimation@CDlgLook@@IAEXXZ 0041f240 f   DlgLook.obj
 0001:0001e2c0       ?OnTimer@CDlgLook@@IAEXI@Z 0041f2c0 f   DlgLook.obj
 0001:0001e320       ?OnBLookQtSet@CDlgLook@@IAEXXZ 0041f320 f   DlgLook.obj
 0001:0001e3a0       ?OnSelchangeListPartAni@CDlgLook@@IAEXXZ 0041f3a0 f   DlgLook.obj
 0001:0001e440       ?OnSelchangeCbPart@CDlgLook@@IAEXXZ 0041f440 f   DlgLook.obj
 0001:0001e490       ?OnSelchangeCbLook@CDlgLook@@IAEXXZ 0041f490 f   DlgLook.obj
 0001:0001e4e0       ?OnBPartQtSet@CDlgLook@@IAEXXZ 0041f4e0 f   DlgLook.obj
 0001:0001e540       ?OnBAniQtSet@CDlgLook@@IAEXXZ 0041f540 f   DlgLook.obj
 0001:0001e5a0       ?OnPaint@CDlgLook@@IAEXXZ  0041f5a0 f   DlgLook.obj
 0001:0001e640       ?UpdateLookData@CDlgLook@@QAEXXZ 0041f640 f   DlgLook.obj
 0001:0001e7d0       ?UpdateLookInfo@CDlgLook@@QAEXXZ 0041f7d0 f   DlgLook.obj
 0001:0001e970       ?UpdatePartAniList@CDlgLook@@QAEXXZ 0041f970 f   DlgLook.obj
 0001:0001eb80       ?UpdatePartComboBox@CDlgLook@@QAEXXZ 0041fb80 f   DlgLook.obj
 0001:0001ebd0       ?UpdateLookComboBox@CDlgLook@@QAEXXZ 0041fbd0 f   DlgLook.obj
 0001:0001ed60       ?OnBCopy@CDlgLook@@IAEXXZ  0041fd60 f   DlgLook.obj
 0001:0001ee80       ?OnBPaste@CDlgLook@@IAEXXZ 0041fe80 f   DlgLook.obj
 0001:0001ef50       ??0CDlgResrc@@QAE@PAVCWnd@@@Z 0041ff50 f   DlgResrc.obj
 0001:0001f050       ??_GCDlgResrc@@UAEPAXI@Z   00420050 f i DlgResrc.obj
 0001:0001f050       ??_ECDlgResrc@@UAEPAXI@Z   00420050 f i DlgResrc.obj
 0001:0001f0c0       ??1CDlgResrc@@UAE@XZ       004200c0 f i DlgResrc.obj
 0001:0001f1b0       ?DoDataExchange@CDlgResrc@@MAEXPAVCDataExchange@@@Z 004201b0 f   DlgResrc.obj
 0001:0001f280       ?GetMessageMap@CDlgResrc@@MBEPBUAFX_MSGMAP@@XZ 00420280 f   DlgResrc.obj
 0001:0001f2c0       ?OnInitDialog@CDlgResrc@@MAEHXZ 004202c0 f   DlgResrc.obj
 0001:0001f320       ?OnBMapBrowse@CDlgResrc@@IAEXXZ 00420320 f   DlgResrc.obj
 0001:0001f350       ?OnBMapDelete@CDlgResrc@@IAEXXZ 00420350 f   DlgResrc.obj
 0001:0001f380       ?OnBAvata0Browse@CDlgResrc@@IAEXXZ 00420380 f   DlgResrc.obj
 0001:0001f3b0       ?OnBAvata0Delete@CDlgResrc@@IAEXXZ 004203b0 f   DlgResrc.obj
 0001:0001f3e0       ?OnBAvata1Browse@CDlgResrc@@IAEXXZ 004203e0 f   DlgResrc.obj
 0001:0001f410       ?OnBAvata1Delete@CDlgResrc@@IAEXXZ 00420410 f   DlgResrc.obj
 0001:0001f440       ?OnBNPCAniBrowse@CDlgResrc@@IAEXXZ 00420440 f   DlgResrc.obj
 0001:0001f630       ?OnBNPCAniDelete@CDlgResrc@@IAEXXZ 00420630 f   DlgResrc.obj
 0001:0001f6c0       ?OnBNPCSprBrowse@CDlgResrc@@IAEXXZ 004206c0 f   DlgResrc.obj
 0001:0001f8b0       ?OnBNPCSprDelete@CDlgResrc@@IAEXXZ 004208b0 f   DlgResrc.obj
 0001:0001f940       ?OnBNPCShadowBrowse@CDlgResrc@@IAEXXZ 00420940 f   DlgResrc.obj
 0001:0001fb30       ?OnBNPCShadowDelete@CDlgResrc@@IAEXXZ 00420b30 f   DlgResrc.obj
 0001:0001fbc0       ?OnBNew@CDlgResrc@@IAEXXZ  00420bc0 f   DlgResrc.obj
 0001:0001fbf0       ?OnBLoad@CDlgResrc@@IAEXXZ 00420bf0 f   DlgResrc.obj
 0001:0001fc20       ?OnBSave@CDlgResrc@@IAEXXZ 00420c20 f   DlgResrc.obj
 0001:0001fc50       ?OnBSaveAs@CDlgResrc@@IAEXXZ 00420c50 f   DlgResrc.obj
 0001:0001fc80       ?UpdateInfo@CDlgResrc@@QAEXXZ 00420c80 f   DlgResrc.obj
 0001:00020220       ?OnSelchangeListMap@CDlgResrc@@IAEXXZ 00421220 f   DlgResrc.obj
 0001:00020290       ?OnSelchangeListAvata0@CDlgResrc@@IAEXXZ 00421290 f   DlgResrc.obj
 0001:00020300       ?OnSelchangeListAvata1@CDlgResrc@@IAEXXZ 00421300 f   DlgResrc.obj
 0001:00020370       ?OnSelchangeListNpc@CDlgResrc@@IAEXXZ 00421370 f   DlgResrc.obj
 0001:000203e0       ?UpdateInfoNPC@CDlgResrc@@QAEXH@Z 004213e0 f   DlgResrc.obj
 0001:000206a0       ?UpdateInfoAvata0@CDlgResrc@@QAEXH@Z 004216a0 f   DlgResrc.obj
 0001:000206d0       ?UpdateInfoAvata1@CDlgResrc@@QAEXH@Z 004216d0 f   DlgResrc.obj
 0001:00020700       ??0CDlgScript@@QAE@PAVCWnd@@@Z 00421700 f   DlgScript.obj
 0001:000213b0       ??_GCDlgScript@@UAEPAXI@Z  004223b0 f i DlgScript.obj
 0001:000213b0       ??_ECDlgScript@@UAEPAXI@Z  004223b0 f i DlgScript.obj
 0001:00021420       ??0CSpreadSheet@@QAE@XZ    00422420 f i DlgScript.obj
 0001:00021480       ?Create@CSpreadSheet@@UAEHPBD0KABUtagRECT@@PAVCWnd@@IPAUCCreateContext@@@Z 00422480 f i DlgScript.obj
 0001:00021500       ?GetClsid@CSpreadSheet@@QAEABU_GUID@@XZ 00422500 f i DlgScript.obj
 0001:00021540       ??1CSpreadSheet@@UAE@XZ    00422540 f i DlgScript.obj
 0001:00021590       ??_GCSpreadSheet@@UAEPAXI@Z 00422590 f i DlgScript.obj
 0001:00021590       ??_ECSpreadSheet@@UAEPAXI@Z 00422590 f i DlgScript.obj
 0001:00021600       ??1CDlgScript@@UAE@XZ      00422600 f   DlgScript.obj
 0001:00021790       ?DoDataExchange@CDlgScript@@MAEXPAVCDataExchange@@@Z 00422790 f   DlgScript.obj
 0001:000218b0       ?GetMessageMap@CDlgScript@@MBEPBUAFX_MSGMAP@@XZ 004228b0 f   DlgScript.obj
 0001:000218f0       ?Refresh@CDlgScript@@QAEXXZ 004228f0 f   DlgScript.obj
 0001:00021940       ?OnInitDialog@CDlgScript@@MAEHXZ 00422940 f   DlgScript.obj
 0001:00021bb0       ?OnOK@CDlgScript@@UAEXXZ   00422bb0 f   DlgScript.obj
 0001:00021be0       ?OnCancel@CDlgScript@@UAEXXZ 00422be0 f   DlgScript.obj
 0001:00021c10       ?OnSize@CDlgScript@@IAEXIHH@Z 00422c10 f   DlgScript.obj
 0001:00021de0       ?OnClose@CDlgScript@@IAEXXZ 00422de0 f   DlgScript.obj
 0001:00021e60       ?GetEventSinkMap@CDlgScript@@MBEPBUAFX_EVENTSINKMAP@@XZ 00422e60 f   DlgScript.obj
 0001:00021ea0       ?OnNew@CDlgScript@@IAEXXZ  00422ea0 f   DlgScript.obj
 0001:00021f10       ?OnLoad@CDlgScript@@IAEXXZ 00422f10 f   DlgScript.obj
 0001:000220a0       ?OnSave@CDlgScript@@IAEXXZ 004230a0 f   DlgScript.obj
 0001:000222b0       ?GetQuantity@CScript@@QAEHXZ 004232b0 f i DlgScript.obj
 0001:000222f0       ?OnSaveAs@CDlgScript@@IAEXXZ 004232f0 f   DlgScript.obj
 0001:00022450       ?OnSheetButtonClicked@CDlgScript@@IAEXJJF@Z 00423450 f   DlgScript.obj
 0001:00022600       ?OnSheetRightClick@CDlgScript@@IAEXFJJJJ@Z 00423600 f   DlgScript.obj
 0001:000226f0       ?OnSheetExpandWidth@CDlgScript@@IAEXXZ 004236f0 f   DlgScript.obj
 0001:000227a0       ?OnSheetReduceWidth@CDlgScript@@IAEXXZ 004237a0 f   DlgScript.obj
 0001:00022860       ?OnSheetRepairWidth@CDlgScript@@IAEXXZ 00423860 f   DlgScript.obj
 0001:00022910       ?OnSheetClick@CDlgScript@@IAEXJJ@Z 00423910 f   DlgScript.obj
 0001:00022a00       ?OnSheetKeyDown@CDlgScript@@IAEXPAFF@Z 00423a00 f   DlgScript.obj
 0001:00022b90       ?Encode@CDlgScript@@QAEXHPAU_SCT_DATA@@@Z 00423b90 f   DlgScript.obj
 0001:00023080       ?Decode@CDlgScript@@QAEXHPBU_SCT_DATA@@@Z 00424080 f   DlgScript.obj
 0001:00023560       ?ConvertStr2Rect@CDlgScript@@QAE?AVCRect@@AAVCString@@@Z 00424560 f   DlgScript.obj
 0001:00023890       ?ConvertStr2Point@CDlgScript@@QAE?AVCPoint@@AAVCString@@@Z 00424890 f   DlgScript.obj
 0001:00023a80       ?OnSheetComboSelChange@CDlgScript@@IAEXJJ@Z 00424a80 f   DlgScript.obj
 0001:00023ab0       ?OnSheetTextTipFetch@CDlgScript@@IAEXJJPAFPAJPAPAGPAH@Z 00424ab0 f   DlgScript.obj
 0001:00023c40       ?LoadScript@CDlgScript@@QAEXPBD@Z 00424c40 f   DlgScript.obj
 0001:00023ca0       ?RefreshSheet@CDlgScript@@QAEXXZ 00424ca0 f   DlgScript.obj
 0001:00023d40       ?OnShowWindow@CDlgScript@@IAEXHI@Z 00424d40 f   DlgScript.obj
 0001:00023e10       ??0CDlgSetCenter@@QAE@PAVCWnd@@@Z 00424e10 f   DlgSetCenter.obj
 0001:00023ef0       ??_GCDlgSetCenter@@UAEPAXI@Z 00424ef0 f i DlgSetCenter.obj
 0001:00023ef0       ??_ECDlgSetCenter@@UAEPAXI@Z 00424ef0 f i DlgSetCenter.obj
 0001:00023f60       ??1CDlgSetCenter@@UAE@XZ   00424f60 f   DlgSetCenter.obj
 0001:00024030       ?DoDataExchange@CDlgSetCenter@@MAEXPAVCDataExchange@@@Z 00425030 f   DlgSetCenter.obj
 0001:00024080       ?GetMessageMap@CDlgSetCenter@@MBEPBUAFX_MSGMAP@@XZ 00425080 f   DlgSetCenter.obj
 0001:000240c0       ?OnOK@CDlgSetCenter@@MAEXXZ 004250c0 f   DlgSetCenter.obj
 0001:000241d0       ?OnCancel@CDlgSetCenter@@MAEXXZ 004251d0 f   DlgSetCenter.obj
 0001:00024220       ?GetCenter@CDlgSetCenter@@QAE?AVCPoint@@XZ 00425220 f   DlgSetCenter.obj
 0001:00024270       ?OnInitDialog@CDlgSetCenter@@MAEHXZ 00425270 f   DlgSetCenter.obj
 0001:00024580       ?OnLButtonDown@CDlgSetCenter@@IAEXIVCPoint@@@Z 00425580 f   DlgSetCenter.obj
 0001:00024650       ?OnMouseMove@CDlgSetCenter@@IAEXIVCPoint@@@Z 00425650 f   DlgSetCenter.obj
 0001:00024720       ?OnClose@CDlgSetCenter@@IAEXXZ 00425720 f   DlgSetCenter.obj
 0001:00024770       ?OnPaint@CDlgSetCenter@@IAEXXZ 00425770 f   DlgSetCenter.obj
 0001:00024bf0       ?OnViewPicture@CDlgSetCenter@@IAEXXZ 00425bf0 f   DlgSetCenter.obj
 0001:00024dd0       ?OnChangeCenterX@CDlgSetCenter@@IAEXXZ 00425dd0 f   DlgSetCenter.obj
 0001:00024e40       ?OnChangeCenterY@CDlgSetCenter@@IAEXXZ 00425e40 f   DlgSetCenter.obj
 0001:00024eb0       ?OnDestroy@CDlgSetCenter@@IAEXXZ 00425eb0 f   DlgSetCenter.obj
 0001:00024f80       ??0CDlgSprAutoExtract@@QAE@XZ 00425f80 f   DlgSprAutoExtract.obj
 0001:00025050       ??_ECDlgSprAutoExtract@@UAEPAXI@Z 00426050 f i DlgSprAutoExtract.obj
 0001:00025050       ??_GCDlgSprAutoExtract@@UAEPAXI@Z 00426050 f i DlgSprAutoExtract.obj
 0001:000250c0       ??1CDlgSprAutoExtract@@UAE@XZ 004260c0 f   DlgSprAutoExtract.obj
 0001:00025170       ?DoDataExchange@CDlgSprAutoExtract@@MAEXPAVCDataExchange@@@Z 00426170 f   DlgSprAutoExtract.obj
 0001:00025200       ?GetMessageMap@CDlgSprAutoExtract@@MBEPBUAFX_MSGMAP@@XZ 00426200 f   DlgSprAutoExtract.obj
 0001:00025240       ?OnBrowseWorkFolderAndStartWorking@CDlgSprAutoExtract@@IAEXXZ 00426240 f   DlgSprAutoExtract.obj
 0001:000254e0       ?OnClosedlg@CDlgSprAutoExtract@@IAEXXZ 004264e0 f   DlgSprAutoExtract.obj
 0001:00025530       ?OnCancelProcess@CDlgSprAutoExtract@@IAEXXZ 00426530 f   DlgSprAutoExtract.obj
 0001:00025570       ?OnInitDialog@CDlgSprAutoExtract@@MAEHXZ 00426570 f   DlgSprAutoExtract.obj
 0001:000255f0       ?ProcessLSPSprSimple@CDlgSprAutoExtract@@IAE?AVCString@@PBDUtagPOINT@@H@Z 004265f0 f   DlgSprAutoExtract.obj
 0001:00026520       ?UpdatePreview@CDlgSprAutoExtract@@IAEXPBU_SPR_LSP@@@Z 00427520 f   DlgSprAutoExtract.obj
 0001:00026640       ?ClearPreview@CDlgSprAutoExtract@@IAEXXZ 00427640 f   DlgSprAutoExtract.obj
 0001:000266e0       ?CompareIntegerProc@CDlgSprAutoExtract@@SAHPBX0@Z 004276e0 f   DlgSprAutoExtract.obj
 0001:00026740       ?CompareDirAndFrmsProc@CDlgSprAutoExtract@@SAHPBX0@Z 00427740 f   DlgSprAutoExtract.obj
 0001:00026ab0       ?CompareStringAscendProc@CDlgSprAutoExtract@@SAHPBX0@Z 00427ab0 f   DlgSprAutoExtract.obj
 0001:00026b10       ?OnOK@CDlgSprAutoExtract@@UAEXXZ 00427b10 f   DlgSprAutoExtract.obj
 0001:00026b40       ?OnCancel@CDlgSprAutoExtract@@UAEXXZ 00427b40 f   DlgSprAutoExtract.obj
 0001:00026b70       ??0CDlgSprMerge@@QAE@PAVCWnd@@@Z 00427b70 f   DlgSprMerge.obj
 0001:00026c60       ??_GCDlgSprMerge@@UAEPAXI@Z 00427c60 f i DlgSprMerge.obj
 0001:00026c60       ??_ECDlgSprMerge@@UAEPAXI@Z 00427c60 f i DlgSprMerge.obj
 0001:00026cd0       ??1CDlgSprMerge@@UAE@XZ    00427cd0 f i DlgSprMerge.obj
 0001:00026da0       ?DoDataExchange@CDlgSprMerge@@MAEXPAVCDataExchange@@@Z 00427da0 f   DlgSprMerge.obj
 0001:00026e40       ?GetMessageMap@CDlgSprMerge@@MBEPBUAFX_MSGMAP@@XZ 00427e40 f   DlgSprMerge.obj
 0001:00026e80       ?OnBSprSet@CDlgSprMerge@@IAEXXZ 00427e80 f   DlgSprMerge.obj
 0001:00027080       ?OnBSprInsert@CDlgSprMerge@@IAEXXZ 00428080 f   DlgSprMerge.obj
 0001:00027360       ?OnBSprInsertBlank@CDlgSprMerge@@IAEXXZ 00428360 f   DlgSprMerge.obj
 0001:00027400       ?OnBSprAdd@CDlgSprMerge@@IAEXXZ 00428400 f   DlgSprMerge.obj
 0001:00027670       ?OnBSprDelete@CDlgSprMerge@@IAEXXZ 00428670 f   DlgSprMerge.obj
 0001:00027700       ?OnBSprMerge@CDlgSprMerge@@IAEXXZ 00428700 f   DlgSprMerge.obj
 0001:00028600       ??4_SPR_LSP@@QAEABU0@ABU0@@Z 00429600 f i DlgSprMerge.obj
 0001:00028660       ?OnBSprListNew@CDlgSprMerge@@IAEXXZ 00429660 f   DlgSprMerge.obj
 0001:000286d0       ?OnBSprListLoad@CDlgSprMerge@@IAEXXZ 004296d0 f   DlgSprMerge.obj
 0001:000289c0       ?OnBSprListSave@CDlgSprMerge@@IAEXXZ 004299c0 f   DlgSprMerge.obj
 0001:00028bc0       ?OnBSprListSaveAs@CDlgSprMerge@@IAEXXZ 00429bc0 f   DlgSprMerge.obj
 0001:00028d80       ?OnOK@CDlgSprMerge@@UAEXXZ 00429d80 f   DlgSprMerge.obj
 0001:00028db0       ?OnCancel@CDlgSprMerge@@UAEXXZ 00429db0 f   DlgSprMerge.obj
 0001:00028e00       ?OnInitDialog@CDlgSprMerge@@MAEHXZ 00429e00 f   DlgSprMerge.obj
 0001:00028f80       ?OnBMovePosUp@CDlgSprMerge@@IAEXXZ 00429f80 f   DlgSprMerge.obj
 0001:000290b0       ?OnBMovePosDown@CDlgSprMerge@@IAEXXZ 0042a0b0 f   DlgSprMerge.obj
 0001:000291f0       ?OnSelchangeListRemark@CDlgSprMerge@@IAEXXZ 0042a1f0 f   DlgSprMerge.obj
 0001:00029260       ?OnSelchangeListSpr@CDlgSprMerge@@IAEXXZ 0042a260 f   DlgSprMerge.obj
 0001:000292d0       ?OnBSprFileNameCopy@CDlgSprMerge@@IAEXXZ 0042a2d0 f   DlgSprMerge.obj
 0001:00029350       ?OnBSprFileNamePaste@CDlgSprMerge@@IAEXXZ 0042a350 f   DlgSprMerge.obj
 0001:00029400       ?OnDblclkListSpr@CDlgSprMerge@@IAEXXZ 0042a400 f   DlgSprMerge.obj
 0001:00029450       ??0CDlgTileMap@@QAE@PAVCWnd@@@Z 0042a450 f   DlgTileMap.obj
 0001:00029630       ??_ECDlgTileMap@@UAEPAXI@Z 0042a630 f i DlgTileMap.obj
 0001:00029630       ??_GCDlgTileMap@@UAEPAXI@Z 0042a630 f i DlgTileMap.obj
 0001:000296a0       ??1CDlgTileMap@@UAE@XZ     0042a6a0 f   DlgTileMap.obj
 0001:00029860       ?DoDataExchange@CDlgTileMap@@MAEXPAVCDataExchange@@@Z 0042a860 f   DlgTileMap.obj
 0001:00029a10       ?GetMessageMap@CDlgTileMap@@MBEPBUAFX_MSGMAP@@XZ 0042aa10 f   DlgTileMap.obj
 0001:00029a50       ?OnBBrowseBmp@CDlgTileMap@@IAEXXZ 0042aa50 f   DlgTileMap.obj
 0001:00029fe0       ?UpdateWorkWindow@CDlgTileMap@@QAEXXZ 0042afe0 f   DlgTileMap.obj
 0001:0002a040       ?UpdateDlg@CDlgTileMap@@QAEXXZ 0042b040 f   DlgTileMap.obj
 0001:0002a070       ?OnInitDialog@CDlgTileMap@@MAEHXZ 0042b070 f   DlgTileMap.obj
 0001:0002a510       ?OnDestroy@CDlgTileMap@@IAEXXZ 0042b510 f   DlgTileMap.obj
 0001:0002a560       ?UpdateTileSetPreviewWindow@CDlgTileMap@@QAEXXZ 0042b560 f   DlgTileMap.obj
 0001:0002a6c0       ?OnBNewTileSet@CDlgTileMap@@IAEXXZ 0042b6c0 f   DlgTileMap.obj
 0001:0002a900       ?OnBLoadTileSet@CDlgTileMap@@IAEXXZ 0042b900 f   DlgTileMap.obj
 0001:0002ac00       ?OnBSaveTileSet@CDlgTileMap@@IAEXXZ 0042bc00 f   DlgTileMap.obj
 0001:0002ada0       ?OnBSaveAsTileSet@CDlgTileMap@@IAEXXZ 0042bda0 f   DlgTileMap.obj
 0001:0002af60       ?OnCheckViewGrid@CDlgTileMap@@IAEXXZ 0042bf60 f   DlgTileMap.obj
 0001:0002afb0       ?OnCheckViewAttr@CDlgTileMap@@IAEXXZ 0042bfb0 f   DlgTileMap.obj
 0001:0002b000       ?OnCheckTileSetTR@CDlgTileMap@@IAEXXZ 0042c000 f   DlgTileMap.obj
 0001:0002b050       ?OnCheckTileSetTG@CDlgTileMap@@IAEXXZ 0042c050 f   DlgTileMap.obj
 0001:0002b0a0       ?OnCheckTileSetTB@CDlgTileMap@@IAEXXZ 0042c0a0 f   DlgTileMap.obj
 0001:0002b0f0       ?UpdateTransparentColor@CDlgTileMap@@QAEXXZ 0042c0f0 f   DlgTileMap.obj
 0001:0002b2f0       ?UpdateTileSetList@CDlgTileMap@@QAEXXZ 0042c2f0 f   DlgTileMap.obj
 0001:0002b400       ?UpdateTileSetInfo@CDlgTileMap@@QAEXXZ 0042c400 f   DlgTileMap.obj
 0001:0002b660       ?UpdateTileSubSetList@CDlgTileMap@@QAEXXZ 0042c660 f   DlgTileMap.obj
 0001:0002b7f0       ?UpdateTileSubSetInfo@CDlgTileMap@@QAEXXZ 0042c7f0 f   DlgTileMap.obj
 0001:0002b8e0       ?OnBNewTileMap@CDlgTileMap@@IAEXXZ 0042c8e0 f   DlgTileMap.obj
 0001:0002bbc0       ?OnBLoadTileMap@CDlgTileMap@@IAEXXZ 0042cbc0 f   DlgTileMap.obj
 0001:0002c020       ?OnBSaveTileMap@CDlgTileMap@@IAEXXZ 0042d020 f   DlgTileMap.obj
 0001:0002c1c0       ?OnBSaveAsTileMap@CDlgTileMap@@IAEXXZ 0042d1c0 f   DlgTileMap.obj
 0001:0002c400       ?OnCheckLayerHide@CDlgTileMap@@IAEXXZ 0042d400 f   DlgTileMap.obj
 0001:0002c4a0       ?OnSelchangeLLayer@CDlgTileMap@@IAEXXZ 0042d4a0 f   DlgTileMap.obj
 0001:0002c540       ?OnBTileMapSetSize@CDlgTileMap@@IAEXXZ 0042d540 f   DlgTileMap.obj
 0001:0002c740       ?OnBTileMapInitRandom@CDlgTileMap@@IAEXXZ 0042d740 f   DlgTileMap.obj
 0001:0002d680       ?GetSafe@_TILE_SUB_SET_DATA_TOOL@@QAEHHH@Z 0042e680 f i DlgTileMap.obj
 0001:0002d760       ?OnBTileMapInit@CDlgTileMap@@IAEXXZ 0042e760 f   DlgTileMap.obj
 0001:0002d940       ?OnSelendokCbWork@CDlgTileMap@@IAEXXZ 0042e940 f   DlgTileMap.obj
 0001:0002d9f0       ?OnOK@CDlgTileMap@@UAEXXZ  0042e9f0 f   DlgTileMap.obj
 0001:0002da20       ?OnCancel@CDlgTileMap@@UAEXXZ 0042ea20 f   DlgTileMap.obj
 0001:0002da50       ?OnSelchangeListTileSet@CDlgTileMap@@IAEXXZ 0042ea50 f   DlgTileMap.obj
 0001:0002db40       ?OnSelchangeListTileSubSet@CDlgTileMap@@IAEXXZ 0042eb40 f   DlgTileMap.obj
 0001:0002dc90       ?OnChangeETileSetName@CDlgTileMap@@IAEXXZ 0042ec90 f   DlgTileMap.obj
 0001:0002de10       ?OnChangeETileSubSetName@CDlgTileMap@@IAEXXZ 0042ee10 f   DlgTileMap.obj
 0001:0002e050       ?OnBTileSetImport@CDlgTileMap@@IAEXXZ 0042f050 f   DlgTileMap.obj
 0001:0002e280       ?OnBTileSetExport@CDlgTileMap@@IAEXXZ 0042f280 f   DlgTileMap.obj
 0001:0002e460       ?OnBSaveTileMapToGameFormat@CDlgTileMap@@IAEXXZ 0042f460 f   DlgTileMap.obj
 0001:0002eca0       ?GetDirectDraw@CDDEngine@@QBEQAUIDirectDraw@@XZ 0042fca0 f i DlgTileMap.obj
 0001:0002ece0       ?OnTimer@CDlgTileMap@@IAEXI@Z 0042fce0 f   DlgTileMap.obj
 0001:0002eef0       ?OnRadioNoEdit@CDlgTileMap@@IAEXXZ 0042fef0 f   DlgTileMap.obj
 0001:0002ef40       ?OnRadioMoveEdit@CDlgTileMap@@IAEXXZ 0042ff40 f   DlgTileMap.obj
 0001:0002ef90       ?OnRadioHouseEdit@CDlgTileMap@@IAEXXZ 0042ff90 f   DlgTileMap.obj
 0001:0002efe0       ?OnRadioEventEdit@CDlgTileMap@@IAEXXZ 0042ffe0 f   DlgTileMap.obj
 0001:0002f030       ?OnActAni@CDlgTileMap@@IAEXXZ 00430030 f   DlgTileMap.obj
 0001:0002f0a0       ?OnBLightSourceColorSet@CDlgTileMap@@IAEXXZ 004300a0 f   DlgTileMap.obj
 0001:0002f1e0       ??1CColorDialog@@UAE@XZ    004301e0 f i DlgTileMap.obj
 0001:0002f230       ?OnPaint@CDlgTileMap@@IAEXXZ 00430230 f   DlgTileMap.obj
 0001:0002f380       ?OnBNewLightSourceData@CDlgTileMap@@IAEXXZ 00430380 f   DlgTileMap.obj
 0001:0002f410       ?OnBLoadLightSourceData@CDlgTileMap@@IAEXXZ 00430410 f   DlgTileMap.obj
 0001:0002f670       ?OnBSaveLightSourceData@CDlgTileMap@@IAEXXZ 00430670 f   DlgTileMap.obj
 0001:0002f850       ?OnChangeELightSourceNumber@CDlgTileMap@@IAEXXZ 00430850 f   DlgTileMap.obj
 0001:0002f8a0       ?DIBNumColors@@YAGPAD@Z    004308a0 f   DlgTileMap.obj
 0001:0002f960       ?PaletteSize@@YAGPAD@Z     00430960 f   DlgTileMap.obj
 0001:0002f9e0       ?BitmapToDIB@@YAPAXPAUHBITMAP__@@PAUHPALETTE__@@@Z 004309e0 f   DlgTileMap.obj
 0001:0002ff30       ?SaveDIB@@YAGPAXPAD@Z      00430f30 f   DlgTileMap.obj
 0001:000301b0       ?OnRadioAreaEdit@CDlgTileMap@@IAEXXZ 004311b0 f   DlgTileMap.obj
 0001:00030200       ?OnDelTileset@CDlgTileMap@@IAEXXZ 00431200 f   DlgTileMap.obj
 0001:000304b0       ?OnBSaveTsSpl@CDlgTileMap@@IAEXXZ 004314b0 f   DlgTileMap.obj
 0001:00030810       ?OnCreate@CDlgTileMap@@IAEHPAUtagCREATESTRUCTA@@@Z 00431810 f   DlgTileMap.obj
 0001:00030870       ?OnBTileAniAdd@CDlgTileMap@@IAEXXZ 00431870 f   DlgTileMap.obj
 0001:00030a90       ?OnBTileAniDel@CDlgTileMap@@IAEXXZ 00431a90 f   DlgTileMap.obj
 0001:00030d60       ?OnCheckTileAnimation@CDlgTileMap@@IAEXXZ 00431d60 f   DlgTileMap.obj
 0001:00030fa0       ?OnBTileAnimation@CDlgTileMap@@IAEXXZ 00431fa0 f   DlgTileMap.obj
 0001:00031010       ??0CDlgTileMapObj@@QAE@PAVCWnd@@@Z 00432010 f   DlgTileMapObj.obj
 0001:00031150       ??_GCDlgTileMapObj@@UAEPAXI@Z 00432150 f i DlgTileMapObj.obj
 0001:00031150       ??_ECDlgTileMapObj@@UAEPAXI@Z 00432150 f i DlgTileMapObj.obj
 0001:000311c0       ??1CDlgTileMapObj@@UAE@XZ  004321c0 f i DlgTileMapObj.obj
 0001:000312c0       ?DoDataExchange@CDlgTileMapObj@@MAEXPAVCDataExchange@@@Z 004322c0 f   DlgTileMapObj.obj
 0001:00031350       ?GetMessageMap@CDlgTileMapObj@@MBEPBUAFX_MSGMAP@@XZ 00432350 f   DlgTileMapObj.obj
 0001:00031390       ?OnBAniFileNameSet@CDlgTileMapObj@@IAEXXZ 00432390 f   DlgTileMapObj.obj
 0001:00031840       ?OnBAniFileNameDelete@CDlgTileMapObj@@IAEXXZ 00432840 f   DlgTileMapObj.obj
 0001:00031b60       ?OnBSprFileNameSet@CDlgTileMapObj@@IAEXXZ 00432b60 f   DlgTileMapObj.obj
 0001:00031f30       ?OnBSprFileNameDelete@CDlgTileMapObj@@IAEXXZ 00432f30 f   DlgTileMapObj.obj
 0001:00032170       ?OnBSprFileNameSet2@CDlgTileMapObj@@IAEXXZ 00433170 f   DlgTileMapObj.obj
 0001:00032540       ?OnBSprFileNameDelete2@CDlgTileMapObj@@IAEXXZ 00433540 f   DlgTileMapObj.obj
 0001:00032780       ?UpdateWorkWindow@CDlgTileMapObj@@QAEXXZ 00433780 f   DlgTileMapObj.obj
 0001:000327e0       ?OnBNew@CDlgTileMapObj@@IAEXXZ 004337e0 f   DlgTileMapObj.obj
 0001:00032880       ?OnBLoad@CDlgTileMapObj@@IAEXXZ 00433880 f   DlgTileMapObj.obj
 0001:00033930       ?OnBSave@CDlgTileMapObj@@IAEXXZ 00434930 f   DlgTileMapObj.obj
 0001:00033ad0       ?OnBSaveAs@CDlgTileMapObj@@IAEXXZ 00434ad0 f   DlgTileMapObj.obj
 0001:00033c90       ?OnBSetSize@CDlgTileMapObj@@IAEXXZ 00434c90 f   DlgTileMapObj.obj
 0001:00033d70       ?OnSelchangeListObjSet@CDlgTileMapObj@@IAEXXZ 00434d70 f   DlgTileMapObj.obj
 0001:00033dc0       ?OnSelchangeListObjSubSet@CDlgTileMapObj@@IAEXXZ 00434dc0 f   DlgTileMapObj.obj
 0001:00033e20       ?UpdateObjInfo@CDlgTileMapObj@@QAEXXZ 00434e20 f   DlgTileMapObj.obj
 0001:00034030       ?UpdateObjSubSet@CDlgTileMapObj@@QAEXXZ 00435030 f   DlgTileMapObj.obj
 0001:00034140       ?OnInitDialog@CDlgTileMapObj@@MAEHXZ 00435140 f   DlgTileMapObj.obj
 0001:000341c0       ?GetSelectedObjData@CDlgTileMapObj@@QAEFXZ 004351c0 f   DlgTileMapObj.obj
 0001:00034260       ?OnBSprFileNameSet3@CDlgTileMapObj@@IAEXXZ 00435260 f   DlgTileMapObj.obj
 0001:00034630       ?OnBSprFileNameSet4@CDlgTileMapObj@@IAEXXZ 00435630 f   DlgTileMapObj.obj
 0001:00034a00       ?OnBSprFileNameDelete3@CDlgTileMapObj@@IAEXXZ 00435a00 f   DlgTileMapObj.obj
 0001:00034c40       ?OnBSprFileNameDelete4@CDlgTileMapObj@@IAEXXZ 00435c40 f   DlgTileMapObj.obj
 0001:00034e80       ?OnCheckShowInnerhouse@CDlgTileMapObj@@IAEXXZ 00435e80 f   DlgTileMapObj.obj
 0001:00034ef0       ?OnCObjPreView@CDlgTileMapObj@@IAEXXZ 00435ef0 f   DlgTileMapObj.obj
 0001:00035170       ?OnDestroy@CDlgTileMapObj@@IAEXXZ 00436170 f   DlgTileMapObj.obj
 0001:00035250       ?GetName@COleFont@@QAE?AVCString@@XZ 00436250 f   font.obj
 0001:00035310       ?SetName@COleFont@@QAEXPBD@Z 00436310 f   font.obj
 0001:00035370       ?GetSize@COleFont@@QAE?ATtagCY@@XZ 00436370 f   font.obj
 0001:000353e0       ?SetSize@COleFont@@QAEXABTtagCY@@@Z 004363e0 f   font.obj
 0001:00035440       ?GetBold@COleFont@@QAEHXZ  00436440 f   font.obj
 0001:000354a0       ?SetBold@COleFont@@QAEXH@Z 004364a0 f   font.obj
 0001:00035500       ?GetItalic@COleFont@@QAEHXZ 00436500 f   font.obj
 0001:00035560       ?SetItalic@COleFont@@QAEXH@Z 00436560 f   font.obj
 0001:000355c0       ?GetUnderline@COleFont@@QAEHXZ 004365c0 f   font.obj
 0001:00035620       ?SetUnderline@COleFont@@QAEXH@Z 00436620 f   font.obj
 0001:00035680       ?GetStrikethrough@COleFont@@QAEHXZ 00436680 f   font.obj
 0001:000356e0       ?SetStrikethrough@COleFont@@QAEXH@Z 004366e0 f   font.obj
 0001:00035740       ?GetWeight@COleFont@@QAEFXZ 00436740 f   font.obj
 0001:000357a0       ?SetWeight@COleFont@@QAEXF@Z 004367a0 f   font.obj
 0001:00035800       ?GetCharset@COleFont@@QAEFXZ 00436800 f   font.obj
 0001:00035860       ?SetCharset@COleFont@@QAEXF@Z 00436860 f   font.obj
 0001:000358c0       ??0HOUSECELL@@QAE@XZ       004368c0 f   HouseInfo.obj
 0001:00035910       ??1HOUSECELL@@UAE@XZ       00436910 f   HouseInfo.obj
 0001:00035950       ??4HOUSECELL@@QAEAAV0@AAV0@@Z 00436950 f   HouseInfo.obj
 0001:000359b0       ??0CHouseInfo@@QAE@XZ      004369b0 f   HouseInfo.obj
 0001:00035a30       ??_GCHouseInfo@@UAEPAXI@Z  00436a30 f i HouseInfo.obj
 0001:00035a30       ??_ECHouseInfo@@UAEPAXI@Z  00436a30 f i HouseInfo.obj
 0001:00035aa0       ??1CHouseInfo@@UAE@XZ      00436aa0 f   HouseInfo.obj
 0001:00035af0       ?DeleteData@CHouseInfo@@QAEXXZ 00436af0 f   HouseInfo.obj
 0001:00035bf0       ?Initialize@CHouseInfo@@QAEXHH@Z 00436bf0 f   HouseInfo.obj
 0001:00035db0       ??_EHOUSECELL@@UAEPAXI@Z   00436db0 f i HouseInfo.obj
 0001:00035e70       ?Initialize@CHouseInfo@@QAEXVCSize@@@Z 00436e70 f   HouseInfo.obj
 0001:00035ec0       ?SetCellInfo@CHouseInfo@@QAEHHHVHOUSECELL@@@Z 00436ec0 f   HouseInfo.obj
 0001:00035fc0       ?SetCellInfo@CHouseInfo@@QAEXPAUtagPOINT@@VHOUSECELL@@@Z 00436fc0 f   HouseInfo.obj
 0001:00036110       ??0HOUSECELL@@QAE@ABV0@@Z  00437110 f i HouseInfo.obj
 0001:00036170       ?GetCellInfo@CHouseInfo@@QAEPAVHOUSECELL@@HH@Z 00437170 f   HouseInfo.obj
 0001:000361f0       ?GetCellInfo@CHouseInfo@@QAEPAVHOUSECELL@@VCPoint@@@Z 004371f0 f   HouseInfo.obj
 0001:00036240       ?SetMoveInfo@CHouseInfo@@QAEHHHD@Z 00437240 f   HouseInfo.obj
 0001:000362c0       ?SetMoveInfo@CHouseInfo@@QAEXPAUtagPOINT@@D@Z 004372c0 f   HouseInfo.obj
 0001:000363b0       ?GetMoveInfo@CHouseInfo@@QAEDHH@Z 004373b0 f   HouseInfo.obj
 0001:00036430       ?GetMoveInfo@CHouseInfo@@QAEDVCPoint@@@Z 00437430 f   HouseInfo.obj
 0001:00036480       ?SetInnerInfo@CHouseInfo@@QAEHHHD@Z 00437480 f   HouseInfo.obj
 0001:00036500       ?SetInnerInfo@CHouseInfo@@QAEXPAUtagPOINT@@D@Z 00437500 f   HouseInfo.obj
 0001:000365f0       ?GetInnerInfo@CHouseInfo@@QAEDHH@Z 004375f0 f   HouseInfo.obj
 0001:00036670       ?GetInnerInfo@CHouseInfo@@QAEDVCPoint@@@Z 00437670 f   HouseInfo.obj
 0001:000366c0       ?Save@CHouseInfo@@QAEXAAVCFile@@@Z 004376c0 f   HouseInfo.obj
 0001:00036880       ?Load@CHouseInfo@@QAEXAAVCFile@@@Z 00437880 f   HouseInfo.obj
 0001:00036a70       ?Save@_HOUSE_INFO_HEADER@@QAEXAAVCFile@@@Z 00437a70 f   HouseInfoManager.obj
 0001:00036b20       ?Load@_HOUSE_INFO_HEADER@@QAEHAAVCFile@@@Z 00437b20 f   HouseInfoManager.obj
 0001:00036c00       ??0CHouseInfoManager@@QAE@XZ 00437c00 f   HouseInfoManager.obj
 0001:00036ca0       ??_ECHouseInfoManager@@UAEPAXI@Z 00437ca0 f i HouseInfoManager.obj
 0001:00036ca0       ??_GCHouseInfoManager@@UAEPAXI@Z 00437ca0 f i HouseInfoManager.obj
 0001:00036d10       ??1CHouseInfoManager@@UAE@XZ 00437d10 f   HouseInfoManager.obj
 0001:00036db0       ?SetHouse@CHouseInfoManager@@QAEXHHH@Z 00437db0 f   HouseInfoManager.obj
 0001:00036ed0       ?SetHouse@CHouseInfoManager@@QAEXHVCSize@@@Z 00437ed0 f   HouseInfoManager.obj
 0001:00036ff0       ?DeleteHouse@CHouseInfoManager@@QAEXH@Z 00437ff0 f   HouseInfoManager.obj
 0001:000370a0       ?DeleteAllHouse@CHouseInfoManager@@QAEXXZ 004380a0 f   HouseInfoManager.obj
 0001:00037160       ?Save@CHouseInfoManager@@QAEXVCString@@@Z 00438160 f   HouseInfoManager.obj
 0001:000372c0       ?Load@CHouseInfoManager@@QAEXVCString@@@Z 004382c0 f   HouseInfoManager.obj
 0001:00037500       ??0?$CMap@HHPAVCHouseInfo@@AAPAV1@@@QAE@H@Z 00438500 f i HouseInfoManager.obj
 0001:00037600       ?GetCount@?$CMap@HHPAVCHouseInfo@@AAPAV1@@@QBEHXZ 00438600 f i HouseInfoManager.obj
 0001:00037640       ??A?$CMap@HHPAVCHouseInfo@@AAPAV1@@@QAEAAPAVCHouseInfo@@H@Z 00438640 f i HouseInfoManager.obj
 0001:00037730       ?RemoveKey@?$CMap@HHPAVCHouseInfo@@AAPAV1@@@QAEHH@Z 00438730 f i HouseInfoManager.obj
 0001:00037820       ?RemoveAll@?$CMap@HHPAVCHouseInfo@@AAPAV1@@@QAEXXZ 00438820 f i HouseInfoManager.obj
 0001:00037950       ?GetStartPosition@?$CMap@HHPAVCHouseInfo@@AAPAV1@@@QBEPAU__POSITION@@XZ 00438950 f i HouseInfoManager.obj
 0001:00037990       ?GetNextAssoc@?$CMap@HHPAVCHouseInfo@@AAPAV1@@@QBEXAAPAU__POSITION@@AAHAAPAVCHouseInfo@@@Z 00438990 f i HouseInfoManager.obj
 0001:00037b70       ??1?$CMap@HHPAVCHouseInfo@@AAPAV1@@@UAE@XZ 00438b70 f i HouseInfoManager.obj
 0001:00037c30       ?Serialize@?$CMap@HHPAVCHouseInfo@@AAPAV1@@@UAEXAAVCArchive@@@Z 00438c30 f i HouseInfoManager.obj
 0001:00037de0       ?Dump@?$CMap@HHPAVCHouseInfo@@AAPAV1@@@UBEXAAVCDumpContext@@@Z 00438de0 f i HouseInfoManager.obj
 0001:00037f00       ?AssertValid@?$CMap@HHPAVCHouseInfo@@AAPAV1@@@UBEXXZ 00438f00 f i HouseInfoManager.obj
 0001:00037fb0       ??_G?$CMap@HHPAVCHouseInfo@@AAPAV1@@@UAEPAXI@Z 00438fb0 f i HouseInfoManager.obj
 0001:00037fb0       ??_E?$CMap@HHPAVCHouseInfo@@AAPAV1@@@UAEPAXI@Z 00438fb0 f i HouseInfoManager.obj
 0001:00038020       ?SetAt@?$CMap@HHPAVCHouseInfo@@AAPAV1@@@QAEXHAAPAVCHouseInfo@@@Z 00439020 f i HouseInfoManager.obj
 0001:00038080       ?InitHashTable@?$CMap@HHPAVCHouseInfo@@AAPAV1@@@QAEXIH@Z 00439080 f i HouseInfoManager.obj
 0001:000381c0       ?NewAssoc@?$CMap@HHPAVCHouseInfo@@AAPAV1@@@IAEPAUCAssoc@1@XZ 004391c0 f i HouseInfoManager.obj
 0001:00038350       ?FreeAssoc@?$CMap@HHPAVCHouseInfo@@AAPAV1@@@IAEXPAUCAssoc@1@@Z 00439350 f i HouseInfoManager.obj
 0001:00038420       ?DestructElements@@YGXPAPAVCHouseInfo@@H@Z 00439420 f i HouseInfoManager.obj
 0001:000384c0       ?DestructElements@@YGXPAHH@Z 004394c0 f i HouseInfoManager.obj
 0001:00038560       ?SerializeElements@@YGXAAVCArchive@@PAHH@Z 00439560 f i HouseInfoManager.obj
 0001:00038620       ?SerializeElements@@YGXAAVCArchive@@PAPAVCHouseInfo@@H@Z 00439620 f i HouseInfoManager.obj
 0001:000386e0       ?DumpElements@@YGXAAVCDumpContext@@PBHH@Z 004396e0 f i HouseInfoManager.obj
 0001:00038760       ?DumpElements@@YGXAAVCDumpContext@@PBQAVCHouseInfo@@H@Z 00439760 f i HouseInfoManager.obj
 0001:000387e0       ?ConstructElements@@YGXPAHH@Z 004397e0 f i HouseInfoManager.obj
 0001:000388b0       ??2@YAPAXIPAX@Z            004398b0 f i HouseInfoManager.obj
 0001:000388e0       ?ConstructElements@@YGXPAPAVCHouseInfo@@H@Z 004398e0 f i HouseInfoManager.obj
 0001:000389b0       ??0CHouseNumberDialog@@QAE@PAVCWnd@@@Z 004399b0 f   HouseNumberDialog.obj
 0001:00038a70       ??_ECHouseNumberDialog@@UAEPAXI@Z 00439a70 f i HouseNumberDialog.obj
 0001:00038a70       ??_GCHouseNumberDialog@@UAEPAXI@Z 00439a70 f i HouseNumberDialog.obj
 0001:00038ae0       ??1CHouseNumberDialog@@UAE@XZ 00439ae0 f i HouseNumberDialog.obj
 0001:00038b70       ?DoDataExchange@CHouseNumberDialog@@MAEXPAVCDataExchange@@@Z 00439b70 f   HouseNumberDialog.obj
 0001:00038be0       ?SetCaption@CHouseNumberDialog@@QAEXPBD@Z 00439be0 f   HouseNumberDialog.obj
 0001:00038c30       ?GetMessageMap@CHouseNumberDialog@@MBEPBUAFX_MSGMAP@@XZ 00439c30 f   HouseNumberDialog.obj
 0001:00038c70       ?OnInitDialog@CHouseNumberDialog@@MAEHXZ 00439c70 f   HouseNumberDialog.obj
 0001:00038ce0       ?GetMessageMap@CIGT4App@@MBEPBUAFX_MSGMAP@@XZ 00439ce0 f   IGT4.obj
 0001:00038d20       ??0CIGT4App@@QAE@XZ        00439d20 f   IGT4.obj
 0001:00038d80       ??_ECIGT4App@@UAEPAXI@Z    00439d80 f i IGT4.obj
 0001:00038d80       ??_GCIGT4App@@UAEPAXI@Z    00439d80 f i IGT4.obj
 0001:00038df0       ??1CIGT4App@@UAE@XZ        00439df0 f i IGT4.obj
 0001:00039a40       ?InitInstance@CIGT4App@@UAEHXZ 0043aa40 f   IGT4.obj
 0001:00039b30       ??1CIGT4Dlg@@UAE@XZ        0043ab30 f i IGT4.obj
 0001:00039bf0       ??0CAboutDlg@@QAE@XZ       0043abf0 f   IGT4Dlg.obj
 0001:00039c50       ??_GCAboutDlg@@UAEPAXI@Z   0043ac50 f i IGT4Dlg.obj
 0001:00039c50       ??_ECAboutDlg@@UAEPAXI@Z   0043ac50 f i IGT4Dlg.obj
 0001:00039cc0       ??1CAboutDlg@@UAE@XZ       0043acc0 f i IGT4Dlg.obj
 0001:00039d10       ?DoDataExchange@CAboutDlg@@MAEXPAVCDataExchange@@@Z 0043ad10 f   IGT4Dlg.obj
 0001:00039d60       ?GetMessageMap@CAboutDlg@@MBEPBUAFX_MSGMAP@@XZ 0043ad60 f   IGT4Dlg.obj
 0001:00039da0       ??0CIGT4Dlg@@QAE@PAVCWnd@@@Z 0043ada0 f   IGT4Dlg.obj
 0001:00039ea0       ??_GCIGT4Dlg@@UAEPAXI@Z    0043aea0 f i IGT4Dlg.obj
 0001:00039ea0       ??_ECIGT4Dlg@@UAEPAXI@Z    0043aea0 f i IGT4Dlg.obj
 0001:00039f10       ?DoDataExchange@CIGT4Dlg@@MAEXPAVCDataExchange@@@Z 0043af10 f   IGT4Dlg.obj
 0001:00039fb0       ?GetMessageMap@CIGT4Dlg@@MBEPBUAFX_MSGMAP@@XZ 0043afb0 f   IGT4Dlg.obj
 0001:00039ff0       ?OnInitDialog@CIGT4Dlg@@MAEHXZ 0043aff0 f   IGT4Dlg.obj
 0001:0003a3b0       ?OnDestroy@CIGT4Dlg@@IAEXXZ 0043b3b0 f   IGT4Dlg.obj
 0001:0003a610       ?OnSysCommand@CIGT4Dlg@@IAEXIJ@Z 0043b610 f   IGT4Dlg.obj
 0001:0003a6e0       ?OnPaint@CIGT4Dlg@@IAEXXZ  0043b6e0 f   IGT4Dlg.obj
 0001:0003a860       ?OnQueryDragIcon@CIGT4Dlg@@IAEPAUHICON__@@XZ 0043b860 f   IGT4Dlg.obj
 0001:0003a8a0       ?OnBActivateToolAniSpr@CIGT4Dlg@@IAEXXZ 0043b8a0 f   IGT4Dlg.obj
 0001:0003aa90       ?OnBActivateToolMapTile@CIGT4Dlg@@IAEXXZ 0043ba90 f   IGT4Dlg.obj
 0001:0003ac80       ?OnBActivateToolAutoSpr@CIGT4Dlg@@IAEXXZ 0043bc80 f   IGT4Dlg.obj
 0001:0003ad30       ?OnBActivateToolIntf@CIGT4Dlg@@IAEXXZ 0043bd30 f   IGT4Dlg.obj
 0001:0003af20       ?OnBWorkPathSet@CIGT4Dlg@@IAEXXZ 0043bf20 f   IGT4Dlg.obj
 0001:0003b0c0       ?OnBActivateToolScript@CIGT4Dlg@@IAEXXZ 0043c0c0 f   IGT4Dlg.obj
 0001:0003b140       ?OnBActivateToolConvertBmp@CIGT4Dlg@@IAEXXZ 0043c140 f   IGT4Dlg.obj
 0001:0003b1f0       ?OnBActivateToolSprMerge@CIGT4Dlg@@IAEXXZ 0043c1f0 f   IGT4Dlg.obj
 0001:0003b2a0       ?OnOK@CIGT4Dlg@@UAEXXZ     0043c2a0 f   IGT4Dlg.obj
 0001:0003b2d0       ?OnCancel@CIGT4Dlg@@UAEXXZ 0043c2d0 f   IGT4Dlg.obj
 0001:0003b320       ?TmpProc@CIGT4Dlg@@QAEXVCString@@@Z 0043c320 f   IGT4Dlg.obj
 0001:0003b610       ?OnBActivateToolLookEdit@CIGT4Dlg@@IAEXXZ 0043c610 f   IGT4Dlg.obj
 0001:0003b690       ?OnBActivateToolItemEdit@CIGT4Dlg@@IAEXXZ 0043c690 f   IGT4Dlg.obj
 0001:0003b710       ?OnBActivateToolTestColorProcess@CIGT4Dlg@@IAEXXZ 0043c710 f   IGT4Dlg.obj
 0001:0003b790       ?OnBActivateToolConvertAni@CIGT4Dlg@@IAEXXZ 0043c790 f   IGT4Dlg.obj
 0001:0003b8b0       ?OnBActivateToolConvertSpr@CIGT4Dlg@@IAEXXZ 0043c8b0 f   IGT4Dlg.obj
 0001:0003b9d0       ?OnBActivateToolResrc@CIGT4Dlg@@IAEXXZ 0043c9d0 f   IGT4Dlg.obj
 0001:0003ba50       ?ConvertOldSprToNewSpr@CIGT4Dlg@@QAEXPBD@Z 0043ca50 f   IGT4Dlg.obj
 0001:0003be80       ?ConvertOldAniToNewAni@CIGT4Dlg@@QAEXPBD@Z 0043ce80 f   IGT4Dlg.obj
 0001:0003c2b0       ??0CIntfTool@@QAE@XZ       0043d2b0 f   IntfTool.obj
 0001:0003c370       ??_GCIntfTool@@UAEPAXI@Z   0043d370 f i IntfTool.obj
 0001:0003c370       ??_ECIntfTool@@UAEPAXI@Z   0043d370 f i IntfTool.obj
 0001:0003c3e0       ??1CIntfTool@@UAE@XZ       0043d3e0 f   IntfTool.obj
 0001:0003c480       ?New@CIntfTool@@QAEXXZ     0043d480 f   IntfTool.obj
 0001:0003c5d0       ?Save@CIntfTool@@QAEXPBD@Z 0043d5d0 f   IntfTool.obj
 0001:0003ccf0       ?ImportSpr@CIntfTool@@QAEXPBDH@Z 0043dcf0 f   IntfTool.obj
 0001:0003cd90       ?ImportAni@CIntfTool@@QAEXPBD@Z 0043dd90 f   IntfTool.obj
 0001:0003ce20       ?Add@CIntfTool@@QAEHXZ     0043de20 f   IntfTool.obj
 0001:0003cef0       ?Delete@CIntfTool@@QAEXH@Z 0043def0 f   IntfTool.obj
 0001:0003d010       ?ClipBoardAdd@CIntfTool@@QAEXH@Z 0043e010 f   IntfTool.obj
 0001:0003d210       ?ClipBoardClear@CIntfTool@@QAEXXZ 0043e210 f   IntfTool.obj
 0001:0003d340       ?ClipBoardPaste@CIntfTool@@QAEXHHH@Z 0043e340 f   IntfTool.obj
 0001:0003d550       ?ClipBoardGetQt@CIntfTool@@QAEHXZ 0043e550 f   IntfTool.obj
 0001:0003d5d0       ??0CItemTool@@QAE@XZ       0043e5d0 f   ItemTool.obj
 0001:0003d630       ??_GCItemTool@@UAEPAXI@Z   0043e630 f i ItemTool.obj
 0001:0003d630       ??_ECItemTool@@UAEPAXI@Z   0043e630 f i ItemTool.obj
 0001:0003d6a0       ??1CItemTool@@UAE@XZ       0043e6a0 f   ItemTool.obj
 0001:0003d6f0       ?Save@CItemTool@@QAEXPBD@Z 0043e6f0 f   ItemTool.obj
 0001:0003d930       ?AniImport@CItemTool@@QAEXPBD@Z 0043e930 f   ItemTool.obj
 0001:0003d9a0       ?SprImport@CItemTool@@QAEXPBDH@Z 0043e9a0 f   ItemTool.obj
 0001:0003da30       ??0CLightSource@@QAE@XZ    0043ea30 f   LightSource.obj
 0001:0003da80       ??_GCLightSource@@UAEPAXI@Z 0043ea80 f i LightSource.obj
 0001:0003da80       ??_ECLightSource@@UAEPAXI@Z 0043ea80 f i LightSource.obj
 0001:0003daf0       ??1CLightSource@@UAE@XZ    0043eaf0 f   LightSource.obj
 0001:0003db40       ?Release@CLightSource@@QAEXXZ 0043eb40 f   LightSource.obj
 0001:0003dbd0       ?DataGet@CLightSource@@QAEPAU_LIGHT_SOURCE_DATA@@H@Z 0043ebd0 f   LightSource.obj
 0001:0003dc30       ?Alloc@CLightSource@@QAEXH@Z 0043ec30 f   LightSource.obj
 0001:0003dcb0       ?Load@CLightSource@@QAEXPBD@Z 0043ecb0 f   LightSource.obj
 0001:0003de40       ??0CLightSourceTool@@QAE@XZ 0043ee40 f   LightSourceTool.obj
 0001:0003dea0       ??_GCLightSourceTool@@UAEPAXI@Z 0043eea0 f i LightSourceTool.obj
 0001:0003dea0       ??_ECLightSourceTool@@UAEPAXI@Z 0043eea0 f i LightSourceTool.obj
 0001:0003df10       ??1CLightSourceTool@@UAE@XZ 0043ef10 f   LightSourceTool.obj
 0001:0003df60       ?Save@CLightSourceTool@@QAEXPBD@Z 0043ef60 f   LightSourceTool.obj
 0001:0003e060       ??0CMapObjTool@@QAE@XZ     0043f060 f   MapObjTool.obj
 0001:0003e120       ??_GCMapObjTool@@UAEPAXI@Z 0043f120 f i MapObjTool.obj
 0001:0003e120       ??_ECMapObjTool@@UAEPAXI@Z 0043f120 f i MapObjTool.obj
 0001:0003e190       ??1CMapObjTool@@UAE@XZ     0043f190 f   MapObjTool.obj
 0001:0003e2a0       ?Save@CMapObjTool@@QAEXPBD@Z 0043f2a0 f   MapObjTool.obj
 0001:0003e520       ?Save@CMapObjTool@@QAEXAAVCFile@@@Z 0043f520 f   MapObjTool.obj
 0001:0003e760       ?Realloc@CMapObjTool@@QAEXHH@Z 0043f760 f   MapObjTool.obj
 0001:0003e960       ?ReleaseEx@CMapObjTool@@QAEXXZ 0043f960 f   MapObjTool.obj
 0001:0003ea00       ??0MouseSelectManager@@QAE@XZ 0043fa00 f   MouseSelectManager.obj
 0001:0003ea60       ??_GMouseSelectManager@@UAEPAXI@Z 0043fa60 f i MouseSelectManager.obj
 0001:0003ea60       ??_EMouseSelectManager@@UAEPAXI@Z 0043fa60 f i MouseSelectManager.obj
 0001:0003ead0       ??1MouseSelectManager@@UAE@XZ 0043fad0 f   MouseSelectManager.obj
 0001:0003eb10       ?GetSelectRgn@MouseSelectManager@@QAEPAUtagPOINT@@XZ 0043fb10 f   MouseSelectManager.obj
 0001:0003eb50       ?SetStartPos@MouseSelectManager@@QAEXVCPoint@@@Z 0043fb50 f   MouseSelectManager.obj
 0001:0003ed20       ?SetEndPos@MouseSelectManager@@QAEXVCPoint@@@Z 0043fd20 f   MouseSelectManager.obj
 0001:0003f3a0       ?MouseMoving@MouseSelectManager@@QAEXVCPoint@@@Z 004403a0 f   MouseSelectManager.obj
 0001:0003fa30       ??0MOVEINFO@@QAE@XZ        00440a30 f   MoveCell.obj
 0001:0003fa90       ??0MoveCell@@QAE@XZ        00440a90 f   MoveCell.obj
 0001:0003fb20       ??_EMoveCell@@UAEPAXI@Z    00440b20 f i MoveCell.obj
 0001:0003fb20       ??_GMoveCell@@UAEPAXI@Z    00440b20 f i MoveCell.obj
 0001:0003fb90       ??1MoveCell@@UAE@XZ        00440b90 f   MoveCell.obj
 0001:0003fbe0       ?RemoveData@MoveCell@@QAEXXZ 00440be0 f   MoveCell.obj
 0001:0003fcb0       ??_EMOVEINFO@@QAEPAXI@Z    00440cb0 f i MoveCell.obj
 0001:0003fd70       ??1MOVEINFO@@QAE@XZ        00440d70 f i MoveCell.obj
 0001:0003fda0       ?Initialize@MoveCell@@QAEXHH@Z 00440da0 f   MoveCell.obj
 0001:0003ff20       ?GetMovable@MoveCell@@QAEHHH@Z 00440f20 f   MoveCell.obj
 0001:0003ffa0       ?SetMovable@MoveCell@@QAEXHHH@Z 00440fa0 f   MoveCell.obj
 0001:00040020       ?SetMovable@MoveCell@@QAEXPAUtagPOINT@@@Z 00441020 f   MoveCell.obj
 0001:00040120       ?GetEvent@MoveCell@@QAEFHH@Z 00441120 f   MoveCell.obj
 0001:000401a0       ?SetEvent@MoveCell@@QAEXHHF@Z 004411a0 f   MoveCell.obj
 0001:00040220       ?SetEvent@MoveCell@@QAEXPAUtagPOINT@@F@Z 00441220 f   MoveCell.obj
 0001:00040310       ?GetHouse@MoveCell@@QAEFHH@Z 00441310 f   MoveCell.obj
 0001:00040390       ?SetHouse@MoveCell@@QAEXHHF@Z 00441390 f   MoveCell.obj
 0001:00040410       ?SetHouse@MoveCell@@QAEXPAUtagPOINT@@F@Z 00441410 f   MoveCell.obj
 0001:00040500       ?GetArea@MoveCell@@QAEEHH@Z 00441500 f   MoveCell.obj
 0001:00040580       ?SetArea@MoveCell@@QAEXHHE@Z 00441580 f   MoveCell.obj
 0001:00040600       ?SetArea@MoveCell@@QAEXPAUtagPOINT@@E@Z 00441600 f   MoveCell.obj
 0001:000406f0       ?Save@MoveCell@@QAEXAAVCArchive@@@Z 004416f0 f   MoveCell.obj
 0001:00040de0       ?Load@MoveCell@@QAEXAAVCArchive@@@Z 00441de0 f   MoveCell.obj
 0001:00041610       ?Save@MoveCell@@QAEXPBD@Z  00442610 f   MoveCell.obj
 0001:00041740       ?Load@MoveCell@@QAEHPBD@Z  00442740 f   MoveCell.obj
 0001:00041880       ??0?$CArray@UT_STRUCT@@AAU1@@@QAE@XZ 00442880 f i MoveCell.obj
 0001:00041910       ?GetSize@?$CArray@UT_STRUCT@@AAU1@@@QBEHXZ 00442910 f i MoveCell.obj
 0001:00041950       ?RemoveAll@?$CArray@UT_STRUCT@@AAU1@@@QAEXXZ 00442950 f i MoveCell.obj
 0001:000419a0       ?Add@?$CArray@UT_STRUCT@@AAU1@@@QAEHAAUT_STRUCT@@@Z 004429a0 f i MoveCell.obj
 0001:00041a00       ??A?$CArray@UT_STRUCT@@AAU1@@@QAEAAUT_STRUCT@@H@Z 00442a00 f i MoveCell.obj
 0001:00041a50       ??1?$CArray@UT_STRUCT@@AAU1@@@UAE@XZ 00442a50 f i MoveCell.obj
 0001:00041b30       ?Serialize@?$CArray@UT_STRUCT@@AAU1@@@UAEXAAVCArchive@@@Z 00442b30 f i MoveCell.obj
 0001:00041c00       ?Dump@?$CArray@UT_STRUCT@@AAU1@@@UBEXAAVCDumpContext@@@Z 00442c00 f i MoveCell.obj
 0001:00041cd0       ?AssertValid@?$CArray@UT_STRUCT@@AAU1@@@UBEXXZ 00442cd0 f i MoveCell.obj
 0001:00041e50       ??_E?$CArray@UT_STRUCT@@AAU1@@@UAEPAXI@Z 00442e50 f i MoveCell.obj
 0001:00041e50       ??_G?$CArray@UT_STRUCT@@AAU1@@@UAEPAXI@Z 00442e50 f i MoveCell.obj
 0001:00041ec0       ?SetSize@?$CArray@UT_STRUCT@@AAU1@@@QAEXHH@Z 00442ec0 f i MoveCell.obj
 0001:000422b0       ?ElementAt@?$CArray@UT_STRUCT@@AAU1@@@QAEAAUT_STRUCT@@H@Z 004432b0 f i MoveCell.obj
 0001:00042340       ?SetAtGrow@?$CArray@UT_STRUCT@@AAU1@@@QAEXHAAUT_STRUCT@@@Z 00443340 f i MoveCell.obj
 0001:00042410       ?DestructElements@@YGXPAUT_STRUCT@@H@Z 00443410 f i MoveCell.obj
 0001:000424b0       ?SerializeElements@@YGXAAVCArchive@@PAUT_STRUCT@@H@Z 004434b0 f i MoveCell.obj
 0001:00042570       ?DumpElements@@YGXAAVCDumpContext@@PBUT_STRUCT@@H@Z 00443570 f i MoveCell.obj
 0001:000425f0       ?ConstructElements@@YGXPAUT_STRUCT@@H@Z 004435f0 f i MoveCell.obj
 0001:000426c0       ??0CObjLookTool@@QAE@XZ    004436c0 f   ObjLookTool.obj
 0001:00042760       ??_ECObjLookTool@@UAEPAXI@Z 00443760 f i ObjLookTool.obj
 0001:00042760       ??_GCObjLookTool@@UAEPAXI@Z 00443760 f i ObjLookTool.obj
 0001:000427d0       ??1CObjLookTool@@UAE@XZ    004437d0 f   ObjLookTool.obj
 0001:00042820       ?Save@CObjLookTool@@QAEXPBD@Z 00443820 f   ObjLookTool.obj
 0001:000429b0       ??0CObjTool@@QAE@XZ        004439b0 f   ObjTool.obj
 0001:00042b30       ??_ECObjTool@@UAEPAXI@Z    00443b30 f i ObjTool.obj
 0001:00042b30       ??_GCObjTool@@UAEPAXI@Z    00443b30 f i ObjTool.obj
 0001:00042ba0       ??1CObjTool@@UAE@XZ        00443ba0 f   ObjTool.obj
 0001:00042d60       ?New@CObjTool@@QAEXXZ      00443d60 f   ObjTool.obj
 0001:00042e90       ?Save@CObjTool@@QAEXPBDH@Z 00443e90 f   ObjTool.obj
 0001:00043260       ?SprLoad@CObjTool@@QAEXHPBDH@Z 00444260 f   ObjTool.obj
 0001:000432f0       ?SprRelease@CObjTool@@QAEXH@Z 004442f0 f   ObjTool.obj
 0001:00043350       ?LoadHeaderAndStandImage@CObjTool@@QAEXPBDH@Z 00444350 f   ObjTool.obj
 0001:000435b0       ?Release@CObjTool@@QAEXXZ  004445b0 f   ObjTool.obj
 0001:000436c0       ?GetHandle@CPicture@@QAEJXZ 004446c0 f   picture.obj
 0001:00043720       ?GetHPal@CPicture@@QAEJXZ  00444720 f   picture.obj
 0001:00043780       ?SetHPal@CPicture@@QAEXJ@Z 00444780 f   picture.obj
 0001:000437e0       ?GetType@CPicture@@QAEFXZ  004447e0 f   picture.obj
 0001:00043840       ?GetWidth@CPicture@@QAEJXZ 00444840 f   picture.obj
 0001:000438a0       ?GetHeight@CPicture@@QAEJXZ 004448a0 f   picture.obj
 0001:00043900       ??0CScriptTool@@QAE@XZ     00444900 f   ScriptTool.obj
 0001:00043960       ??_ECScriptTool@@UAEPAXI@Z 00444960 f i ScriptTool.obj
 0001:00043960       ??_GCScriptTool@@UAEPAXI@Z 00444960 f i ScriptTool.obj
 0001:000439d0       ??1CScriptTool@@UAE@XZ     004449d0 f   ScriptTool.obj
 0001:00043a20       ?Set@CScriptTool@@QAEXHPBU_SCT_DATA@@@Z 00444a20 f   ScriptTool.obj
 0001:00043c00       ?Save@CScriptTool@@QAEXPBD@Z 00444c00 f   ScriptTool.obj
 0001:00043e60       ??4_SCT_DATA@@QAEABU0@ABU0@@Z 00444e60 f i ScriptTool.obj
 0001:00043ec0       ?CreateObject@CSpreadSheet@@SGPAVCObject@@XZ 00444ec0 f   spreadsheet.obj
 0001:00043f70       ?GetRuntimeClass@CSpreadSheet@@UBEPAUCRuntimeClass@@XZ 00444f70 f   spreadsheet.obj
 0001:00043fb0       ?GetAction@CSpreadSheet@@QAEJXZ 00444fb0 f   spreadsheet.obj
 0001:00044010       ?SetAction@CSpreadSheet@@QAEXJ@Z 00445010 f   spreadsheet.obj
 0001:00044070       ?GetActiveCol@CSpreadSheet@@QAEJXZ 00445070 f   spreadsheet.obj
 0001:000440d0       ?SetActiveCol@CSpreadSheet@@QAEXJ@Z 004450d0 f   spreadsheet.obj
 0001:00044130       ?GetActiveRow@CSpreadSheet@@QAEJXZ 00445130 f   spreadsheet.obj
 0001:00044190       ?SetActiveRow@CSpreadSheet@@QAEXJ@Z 00445190 f   spreadsheet.obj
 0001:000441f0       ?GetAllowCellOverflow@CSpreadSheet@@QAEHXZ 004451f0 f   spreadsheet.obj
 0001:00044250       ?SetAllowCellOverflow@CSpreadSheet@@QAEXH@Z 00445250 f   spreadsheet.obj
 0001:000442b0       ?GetAllowDragDrop@CSpreadSheet@@QAEHXZ 004452b0 f   spreadsheet.obj
 0001:00044310       ?SetAllowDragDrop@CSpreadSheet@@QAEXH@Z 00445310 f   spreadsheet.obj
 0001:00044370       ?GetAllowMultiBlocks@CSpreadSheet@@QAEHXZ 00445370 f   spreadsheet.obj
 0001:000443d0       ?SetAllowMultiBlocks@CSpreadSheet@@QAEXH@Z 004453d0 f   spreadsheet.obj
 0001:00044430       ?GetAllowUserFormulas@CSpreadSheet@@QAEHXZ 00445430 f   spreadsheet.obj
 0001:00044490       ?SetAllowUserFormulas@CSpreadSheet@@QAEXH@Z 00445490 f   spreadsheet.obj
 0001:000444f0       ?GetArrowsExitEditMode@CSpreadSheet@@QAEHXZ 004454f0 f   spreadsheet.obj
 0001:00044550       ?SetArrowsExitEditMode@CSpreadSheet@@QAEXH@Z 00445550 f   spreadsheet.obj
 0001:000445b0       ?GetAutoCalc@CSpreadSheet@@QAEHXZ 004455b0 f   spreadsheet.obj
 0001:00044610       ?SetAutoCalc@CSpreadSheet@@QAEXH@Z 00445610 f   spreadsheet.obj
 0001:00044670       ?GetAutoClipboard@CSpreadSheet@@QAEHXZ 00445670 f   spreadsheet.obj
 0001:000446d0       ?SetAutoClipboard@CSpreadSheet@@QAEXH@Z 004456d0 f   spreadsheet.obj
 0001:00044730       ?GetAutoSize@CSpreadSheet@@QAEHXZ 00445730 f   spreadsheet.obj
 0001:00044790       ?SetAutoSize@CSpreadSheet@@QAEXH@Z 00445790 f   spreadsheet.obj
 0001:000447f0       ?GetBlockMode@CSpreadSheet@@QAEHXZ 004457f0 f   spreadsheet.obj
 0001:00044850       ?SetBlockMode@CSpreadSheet@@QAEXH@Z 00445850 f   spreadsheet.obj
 0001:000448b0       ?GetButtonDrawMode@CSpreadSheet@@QAEFXZ 004458b0 f   spreadsheet.obj
 0001:00044910       ?SetButtonDrawMode@CSpreadSheet@@QAEXF@Z 00445910 f   spreadsheet.obj
 0001:00044970       ?GetCellBorderColor@CSpreadSheet@@QAEKXZ 00445970 f   spreadsheet.obj
 0001:000449d0       ?SetCellBorderColor@CSpreadSheet@@QAEXK@Z 004459d0 f   spreadsheet.obj
 0001:00044a30       ?GetCellBorderStyle@CSpreadSheet@@QAEJXZ 00445a30 f   spreadsheet.obj
 0001:00044a90       ?SetCellBorderStyle@CSpreadSheet@@QAEXJ@Z 00445a90 f   spreadsheet.obj
 0001:00044af0       ?GetCellBorderType@CSpreadSheet@@QAEFXZ 00445af0 f   spreadsheet.obj
 0001:00044b50       ?SetCellBorderType@CSpreadSheet@@QAEXF@Z 00445b50 f   spreadsheet.obj
 0001:00044bb0       ?GetCellType@CSpreadSheet@@QAEJXZ 00445bb0 f   spreadsheet.obj
 0001:00044c10       ?SetCellType@CSpreadSheet@@QAEXJ@Z 00445c10 f   spreadsheet.obj
 0001:00044c70       ?GetChangeMade@CSpreadSheet@@QAEHXZ 00445c70 f   spreadsheet.obj
 0001:00044cd0       ?SetChangeMade@CSpreadSheet@@QAEXH@Z 00445cd0 f   spreadsheet.obj
 0001:00044d30       ?GetClip@CSpreadSheet@@QAE?AVCString@@XZ 00445d30 f   spreadsheet.obj
 0001:00044df0       ?SetClip@CSpreadSheet@@QAEXPBD@Z 00445df0 f   spreadsheet.obj
 0001:00044e50       ?GetClipValue@CSpreadSheet@@QAE?AVCString@@XZ 00445e50 f   spreadsheet.obj
 0001:00044f10       ?SetClipValue@CSpreadSheet@@QAEXPBD@Z 00445f10 f   spreadsheet.obj
 0001:00044f70       ?GetCol@CSpreadSheet@@QAEJXZ 00445f70 f   spreadsheet.obj
 0001:00044fd0       ?SetCol@CSpreadSheet@@QAEXJ@Z 00445fd0 f   spreadsheet.obj
 0001:00045030       ?GetCol2@CSpreadSheet@@QAEJXZ 00446030 f   spreadsheet.obj
 0001:00045090       ?SetCol2@CSpreadSheet@@QAEXJ@Z 00446090 f   spreadsheet.obj
 0001:000450f0       ?GetColHeaderDisplay@CSpreadSheet@@QAEJXZ 004460f0 f   spreadsheet.obj
 0001:00045150       ?SetColHeaderDisplay@CSpreadSheet@@QAEXJ@Z 00446150 f   spreadsheet.obj
 0001:000451b0       ?GetColHidden@CSpreadSheet@@QAEHXZ 004461b0 f   spreadsheet.obj
 0001:00045210       ?SetColHidden@CSpreadSheet@@QAEXH@Z 00446210 f   spreadsheet.obj
 0001:00045270       ?GetColPageBreak@CSpreadSheet@@QAEHXZ 00446270 f   spreadsheet.obj
 0001:000452d0       ?SetColPageBreak@CSpreadSheet@@QAEXH@Z 004462d0 f   spreadsheet.obj
 0001:00045330       ?GetColsFrozen@CSpreadSheet@@QAEJXZ 00446330 f   spreadsheet.obj
 0001:00045390       ?SetColsFrozen@CSpreadSheet@@QAEXJ@Z 00446390 f   spreadsheet.obj
 0001:000453f0       ?GetCursorStyle@CSpreadSheet@@QAEJXZ 004463f0 f   spreadsheet.obj
 0001:00045450       ?SetCursorStyle@CSpreadSheet@@QAEXJ@Z 00446450 f   spreadsheet.obj
 0001:000454b0       ?GetCursorType@CSpreadSheet@@QAEJXZ 004464b0 f   spreadsheet.obj
 0001:00045510       ?SetCursorType@CSpreadSheet@@QAEXJ@Z 00446510 f   spreadsheet.obj
 0001:00045570       ?GetDataChanged@CSpreadSheet@@QAEHXZ 00446570 f   spreadsheet.obj
 0001:000455d0       ?SetDataChanged@CSpreadSheet@@QAEXH@Z 004465d0 f   spreadsheet.obj
 0001:00045630       ?GetDataColCnt@CSpreadSheet@@QAEJXZ 00446630 f   spreadsheet.obj
 0001:00045690       ?SetDataColCnt@CSpreadSheet@@QAEXJ@Z 00446690 f   spreadsheet.obj
 0001:000456f0       ?GetDataField@CSpreadSheet@@QAE?AVCString@@XZ 004466f0 f   spreadsheet.obj
 0001:000457b0       ?SetDataField@CSpreadSheet@@QAEXPBD@Z 004467b0 f   spreadsheet.obj
 0001:00045810       ?GetDataFillEvent@CSpreadSheet@@QAEHXZ 00446810 f   spreadsheet.obj
 0001:00045870       ?SetDataFillEvent@CSpreadSheet@@QAEXH@Z 00446870 f   spreadsheet.obj
 0001:000458d0       ?GetDataRowCnt@CSpreadSheet@@QAEJXZ 004468d0 f   spreadsheet.obj
 0001:00045930       ?SetDataRowCnt@CSpreadSheet@@QAEXJ@Z 00446930 f   spreadsheet.obj
 0001:00045990       ?GetDataSource@CSpreadSheet@@QAEPAUIUnknown@@XZ 00446990 f   spreadsheet.obj
 0001:000459f0       ?SetDataSource@CSpreadSheet@@QAEXPAUIUnknown@@@Z 004469f0 f   spreadsheet.obj
 0001:00045a50       ?GetDAutoCellTypes@CSpreadSheet@@QAEHXZ 00446a50 f   spreadsheet.obj
 0001:00045ab0       ?SetDAutoCellTypes@CSpreadSheet@@QAEXH@Z 00446ab0 f   spreadsheet.obj
 0001:00045b10       ?GetDAutoFill@CSpreadSheet@@QAEHXZ 00446b10 f   spreadsheet.obj
 0001:00045b70       ?SetDAutoFill@CSpreadSheet@@QAEXH@Z 00446b70 f   spreadsheet.obj
 0001:00045bd0       ?GetDAutoHeadings@CSpreadSheet@@QAEHXZ 00446bd0 f   spreadsheet.obj
 0001:00045c30       ?SetDAutoHeadings@CSpreadSheet@@QAEXH@Z 00446c30 f   spreadsheet.obj
 0001:00045c90       ?GetDAutoSave@CSpreadSheet@@QAEHXZ 00446c90 f   spreadsheet.obj
 0001:00045cf0       ?SetDAutoSave@CSpreadSheet@@QAEXH@Z 00446cf0 f   spreadsheet.obj
 0001:00045d50       ?GetDAutoSizeCols@CSpreadSheet@@QAEJXZ 00446d50 f   spreadsheet.obj
 0001:00045db0       ?SetDAutoSizeCols@CSpreadSheet@@QAEXJ@Z 00446db0 f   spreadsheet.obj
 0001:00045e10       ?GetDestCol@CSpreadSheet@@QAEJXZ 00446e10 f   spreadsheet.obj
 0001:00045e70       ?SetDestCol@CSpreadSheet@@QAEXJ@Z 00446e70 f   spreadsheet.obj
 0001:00045ed0       ?GetDestRow@CSpreadSheet@@QAEJXZ 00446ed0 f   spreadsheet.obj
 0001:00045f30       ?SetDestRow@CSpreadSheet@@QAEXJ@Z 00446f30 f   spreadsheet.obj
 0001:00045f90       ?GetDInformActiveRowChange@CSpreadSheet@@QAEHXZ 00446f90 f   spreadsheet.obj
 0001:00045ff0       ?SetDInformActiveRowChange@CSpreadSheet@@QAEXH@Z 00446ff0 f   spreadsheet.obj
 0001:00046050       ?GetDisplayColHeaders@CSpreadSheet@@QAEHXZ 00447050 f   spreadsheet.obj
 0001:000460b0       ?SetDisplayColHeaders@CSpreadSheet@@QAEXH@Z 004470b0 f   spreadsheet.obj
 0001:00046110       ?GetDisplayRowHeaders@CSpreadSheet@@QAEHXZ 00447110 f   spreadsheet.obj
 0001:00046170       ?SetDisplayRowHeaders@CSpreadSheet@@QAEXH@Z 00447170 f   spreadsheet.obj
 0001:000461d0       ?GetEditEnterAction@CSpreadSheet@@QAEJXZ 004471d0 f   spreadsheet.obj
 0001:00046230       ?SetEditEnterAction@CSpreadSheet@@QAEXJ@Z 00447230 f   spreadsheet.obj
 0001:00046290       ?GetEditMode@CSpreadSheet@@QAEHXZ 00447290 f   spreadsheet.obj
 0001:000462f0       ?SetEditMode@CSpreadSheet@@QAEXH@Z 004472f0 f   spreadsheet.obj
 0001:00046350       ?GetEditModePermanent@CSpreadSheet@@QAEHXZ 00447350 f   spreadsheet.obj
 0001:000463b0       ?SetEditModePermanent@CSpreadSheet@@QAEXH@Z 004473b0 f   spreadsheet.obj
 0001:00046410       ?GetEditModeReplace@CSpreadSheet@@QAEHXZ 00447410 f   spreadsheet.obj
 0001:00046470       ?SetEditModeReplace@CSpreadSheet@@QAEXH@Z 00447470 f   spreadsheet.obj
 0001:000464d0       ?GetFileNum@CSpreadSheet@@QAEFXZ 004474d0 f   spreadsheet.obj
 0001:00046530       ?SetFileNum@CSpreadSheet@@QAEXF@Z 00447530 f   spreadsheet.obj
 0001:00046590       ?GetFloatDefCurrencyChar@CSpreadSheet@@QAEFXZ 00447590 f   spreadsheet.obj
 0001:000465f0       ?SetFloatDefCurrencyChar@CSpreadSheet@@QAEXF@Z 004475f0 f   spreadsheet.obj
 0001:00046650       ?GetFloatDefDecimalChar@CSpreadSheet@@QAEFXZ 00447650 f   spreadsheet.obj
 0001:000466b0       ?SetFloatDefDecimalChar@CSpreadSheet@@QAEXF@Z 004476b0 f   spreadsheet.obj
 0001:00046710       ?GetFloatDefSepChar@CSpreadSheet@@QAEFXZ 00447710 f   spreadsheet.obj
 0001:00046770       ?SetFloatDefSepChar@CSpreadSheet@@QAEXF@Z 00447770 f   spreadsheet.obj
 0001:000467d0       ?GetFormula@CSpreadSheet@@QAE?AVCString@@XZ 004477d0 f   spreadsheet.obj
 0001:00046890       ?SetFormula@CSpreadSheet@@QAEXPBD@Z 00447890 f   spreadsheet.obj
 0001:000468f0       ?GetGrayAreaBackColor@CSpreadSheet@@QAEKXZ 004478f0 f   spreadsheet.obj
 0001:00046950       ?SetGrayAreaBackColor@CSpreadSheet@@QAEXK@Z 00447950 f   spreadsheet.obj
 0001:000469b0       ?GetGridColor@CSpreadSheet@@QAEKXZ 004479b0 f   spreadsheet.obj
 0001:00046a10       ?SetGridColor@CSpreadSheet@@QAEXK@Z 00447a10 f   spreadsheet.obj
 0001:00046a70       ?GetGridShowHoriz@CSpreadSheet@@QAEHXZ 00447a70 f   spreadsheet.obj
 0001:00046ad0       ?SetGridShowHoriz@CSpreadSheet@@QAEXH@Z 00447ad0 f   spreadsheet.obj
 0001:00046b30       ?GetGridShowVert@CSpreadSheet@@QAEHXZ 00447b30 f   spreadsheet.obj
 0001:00046b90       ?SetGridShowVert@CSpreadSheet@@QAEXH@Z 00447b90 f   spreadsheet.obj
 0001:00046bf0       ?GetGridSolid@CSpreadSheet@@QAEHXZ 00447bf0 f   spreadsheet.obj
 0001:00046c50       ?SetGridSolid@CSpreadSheet@@QAEXH@Z 00447c50 f   spreadsheet.obj
 0001:00046cb0       ?GetHDCPrinter@CSpreadSheet@@QAEJXZ 00447cb0 f   spreadsheet.obj
 0001:00046d10       ?SetHDCPrinter@CSpreadSheet@@QAEXJ@Z 00447d10 f   spreadsheet.obj
 0001:00046d70       ?GetInterfaceDesigner@CSpreadSheet@@QAEFXZ 00447d70 f   spreadsheet.obj
 0001:00046dd0       ?SetInterfaceDesigner@CSpreadSheet@@QAEXF@Z 00447dd0 f   spreadsheet.obj
 0001:00046e30       ?GetIsBlockSelected@CSpreadSheet@@QAEHXZ 00447e30 f   spreadsheet.obj
 0001:00046e90       ?SetIsBlockSelected@CSpreadSheet@@QAEXH@Z 00447e90 f   spreadsheet.obj
 0001:00046ef0       ?GetLeftCol@CSpreadSheet@@QAEJXZ 00447ef0 f   spreadsheet.obj
 0001:00046f50       ?SetLeftCol@CSpreadSheet@@QAEXJ@Z 00447f50 f   spreadsheet.obj
 0001:00046fb0       ?GetLock@CSpreadSheet@@QAEHXZ 00447fb0 f   spreadsheet.obj
 0001:00047010       ?SetLock@CSpreadSheet@@QAEXH@Z 00448010 f   spreadsheet.obj
 0001:00047070       ?GetLockBackColor@CSpreadSheet@@QAEKXZ 00448070 f   spreadsheet.obj
 0001:000470d0       ?SetLockBackColor@CSpreadSheet@@QAEXK@Z 004480d0 f   spreadsheet.obj
 0001:00047130       ?GetLockForeColor@CSpreadSheet@@QAEKXZ 00448130 f   spreadsheet.obj
 0001:00047190       ?SetLockForeColor@CSpreadSheet@@QAEXK@Z 00448190 f   spreadsheet.obj
 0001:000471f0       ?GetMaxCols@CSpreadSheet@@QAEJXZ 004481f0 f   spreadsheet.obj
 0001:00047250       ?SetMaxCols@CSpreadSheet@@QAEXJ@Z 00448250 f   spreadsheet.obj
 0001:000472b0       ?GetMaxRows@CSpreadSheet@@QAEJXZ 004482b0 f   spreadsheet.obj
 0001:00047310       ?SetMaxRows@CSpreadSheet@@QAEXJ@Z 00448310 f   spreadsheet.obj
 0001:00047370       ?GetMaxTextCellHeight@CSpreadSheet@@QAENXZ 00448370 f   spreadsheet.obj
 0001:000473d0       ?SetMaxTextCellHeight@CSpreadSheet@@QAEXN@Z 004483d0 f   spreadsheet.obj
 0001:00047430       ?GetMaxTextCellWidth@CSpreadSheet@@QAENXZ 00448430 f   spreadsheet.obj
 0001:00047490       ?SetMaxTextCellWidth@CSpreadSheet@@QAEXN@Z 00448490 f   spreadsheet.obj
 0001:000474f0       ?GetMoveActiveOnFocus@CSpreadSheet@@QAEHXZ 004484f0 f   spreadsheet.obj
 0001:00047550       ?SetMoveActiveOnFocus@CSpreadSheet@@QAEXH@Z 00448550 f   spreadsheet.obj
 0001:000475b0       ?GetMultiSelCount@CSpreadSheet@@QAEJXZ 004485b0 f   spreadsheet.obj
 0001:00047610       ?SetMultiSelCount@CSpreadSheet@@QAEXJ@Z 00448610 f   spreadsheet.obj
 0001:00047670       ?GetMultiSelIndex@CSpreadSheet@@QAEJXZ 00448670 f   spreadsheet.obj
 0001:000476d0       ?SetMultiSelIndex@CSpreadSheet@@QAEXJ@Z 004486d0 f   spreadsheet.obj
 0001:00047730       ?GetNoBeep@CSpreadSheet@@QAEHXZ 00448730 f   spreadsheet.obj
 0001:00047790       ?SetNoBeep@CSpreadSheet@@QAEXH@Z 00448790 f   spreadsheet.obj
 0001:000477f0       ?GetNoBorder@CSpreadSheet@@QAEHXZ 004487f0 f   spreadsheet.obj
 0001:00047850       ?SetNoBorder@CSpreadSheet@@QAEXH@Z 00448850 f   spreadsheet.obj
 0001:000478b0       ?GetOperationMode@CSpreadSheet@@QAEJXZ 004488b0 f   spreadsheet.obj
 0001:00047910       ?SetOperationMode@CSpreadSheet@@QAEXJ@Z 00448910 f   spreadsheet.obj
 0001:00047970       ?GetPosition@CSpreadSheet@@QAEJXZ 00448970 f   spreadsheet.obj
 0001:000479d0       ?SetPosition@CSpreadSheet@@QAEXJ@Z 004489d0 f   spreadsheet.obj
 0001:00047a30       ?GetPrintAbortMsg@CSpreadSheet@@QAE?AVCString@@XZ 00448a30 f   spreadsheet.obj
 0001:00047af0       ?SetPrintAbortMsg@CSpreadSheet@@QAEXPBD@Z 00448af0 f   spreadsheet.obj
 0001:00047b50       ?GetPrintBorder@CSpreadSheet@@QAEHXZ 00448b50 f   spreadsheet.obj
 0001:00047bb0       ?SetPrintBorder@CSpreadSheet@@QAEXH@Z 00448bb0 f   spreadsheet.obj
 0001:00047c10       ?GetPrintColHeaders@CSpreadSheet@@QAEHXZ 00448c10 f   spreadsheet.obj
 0001:00047c70       ?SetPrintColHeaders@CSpreadSheet@@QAEXH@Z 00448c70 f   spreadsheet.obj
 0001:00047cd0       ?GetPrintColor@CSpreadSheet@@QAEHXZ 00448cd0 f   spreadsheet.obj
 0001:00047d30       ?SetPrintColor@CSpreadSheet@@QAEXH@Z 00448d30 f   spreadsheet.obj
 0001:00047d90       ?GetPrintFooter@CSpreadSheet@@QAE?AVCString@@XZ 00448d90 f   spreadsheet.obj
 0001:00047e50       ?SetPrintFooter@CSpreadSheet@@QAEXPBD@Z 00448e50 f   spreadsheet.obj
 0001:00047eb0       ?GetPrintGrid@CSpreadSheet@@QAEHXZ 00448eb0 f   spreadsheet.obj
 0001:00047f10       ?SetPrintGrid@CSpreadSheet@@QAEXH@Z 00448f10 f   spreadsheet.obj
 0001:00047f70       ?GetPrintHeader@CSpreadSheet@@QAE?AVCString@@XZ 00448f70 f   spreadsheet.obj
 0001:00048030       ?SetPrintHeader@CSpreadSheet@@QAEXPBD@Z 00449030 f   spreadsheet.obj
 0001:00048090       ?GetPrintJobName@CSpreadSheet@@QAE?AVCString@@XZ 00449090 f   spreadsheet.obj
 0001:00048150       ?SetPrintJobName@CSpreadSheet@@QAEXPBD@Z 00449150 f   spreadsheet.obj
 0001:000481b0       ?GetPrintMarginBottom@CSpreadSheet@@QAEJXZ 004491b0 f   spreadsheet.obj
 0001:00048210       ?SetPrintMarginBottom@CSpreadSheet@@QAEXJ@Z 00449210 f   spreadsheet.obj
 0001:00048270       ?GetPrintMarginLeft@CSpreadSheet@@QAEJXZ 00449270 f   spreadsheet.obj
 0001:000482d0       ?SetPrintMarginLeft@CSpreadSheet@@QAEXJ@Z 004492d0 f   spreadsheet.obj
 0001:00048330       ?GetPrintMarginRight@CSpreadSheet@@QAEJXZ 00449330 f   spreadsheet.obj
 0001:00048390       ?SetPrintMarginRight@CSpreadSheet@@QAEXJ@Z 00449390 f   spreadsheet.obj
 0001:000483f0       ?GetPrintMarginTop@CSpreadSheet@@QAEJXZ 004493f0 f   spreadsheet.obj
 0001:00048450       ?SetPrintMarginTop@CSpreadSheet@@QAEXJ@Z 00449450 f   spreadsheet.obj
 0001:000484b0       ?GetPrintPageEnd@CSpreadSheet@@QAEFXZ 004494b0 f   spreadsheet.obj
 0001:00048510       ?SetPrintPageEnd@CSpreadSheet@@QAEXF@Z 00449510 f   spreadsheet.obj
 0001:00048570       ?GetPrintPageStart@CSpreadSheet@@QAEFXZ 00449570 f   spreadsheet.obj
 0001:000485d0       ?SetPrintPageStart@CSpreadSheet@@QAEXF@Z 004495d0 f   spreadsheet.obj
 0001:00048630       ?GetPrintRowHeaders@CSpreadSheet@@QAEHXZ 00449630 f   spreadsheet.obj
 0001:00048690       ?SetPrintRowHeaders@CSpreadSheet@@QAEXH@Z 00449690 f   spreadsheet.obj
 0001:000486f0       ?GetPrintShadows@CSpreadSheet@@QAEHXZ 004496f0 f   spreadsheet.obj
 0001:00048750       ?SetPrintShadows@CSpreadSheet@@QAEXH@Z 00449750 f   spreadsheet.obj
 0001:000487b0       ?GetPrintType@CSpreadSheet@@QAEJXZ 004497b0 f   spreadsheet.obj
 0001:00048810       ?SetPrintType@CSpreadSheet@@QAEXJ@Z 00449810 f   spreadsheet.obj
 0001:00048870       ?GetPrintUseDataMax@CSpreadSheet@@QAEHXZ 00449870 f   spreadsheet.obj
 0001:000488d0       ?SetPrintUseDataMax@CSpreadSheet@@QAEXH@Z 004498d0 f   spreadsheet.obj
 0001:00048930       ?GetProcessTab@CSpreadSheet@@QAEHXZ 00449930 f   spreadsheet.obj
 0001:00048990       ?SetProcessTab@CSpreadSheet@@QAEXH@Z 00449990 f   spreadsheet.obj
 0001:000489f0       ?GetProtect@CSpreadSheet@@QAEHXZ 004499f0 f   spreadsheet.obj
 0001:00048a50       ?SetProtect@CSpreadSheet@@QAEXH@Z 00449a50 f   spreadsheet.obj
 0001:00048ab0       ?GetReDraw@CSpreadSheet@@QAEHXZ 00449ab0 f   spreadsheet.obj
 0001:00048b10       ?SetReDraw@CSpreadSheet@@QAEXH@Z 00449b10 f   spreadsheet.obj
 0001:00048b70       ?GetRestrictCols@CSpreadSheet@@QAEHXZ 00449b70 f   spreadsheet.obj
 0001:00048bd0       ?SetRestrictCols@CSpreadSheet@@QAEXH@Z 00449bd0 f   spreadsheet.obj
 0001:00048c30       ?GetRestrictRows@CSpreadSheet@@QAEHXZ 00449c30 f   spreadsheet.obj
 0001:00048c90       ?SetRestrictRows@CSpreadSheet@@QAEXH@Z 00449c90 f   spreadsheet.obj
 0001:00048cf0       ?GetRetainSelBlock@CSpreadSheet@@QAEHXZ 00449cf0 f   spreadsheet.obj
 0001:00048d50       ?SetRetainSelBlock@CSpreadSheet@@QAEXH@Z 00449d50 f   spreadsheet.obj
 0001:00048db0       ?GetRow@CSpreadSheet@@QAEJXZ 00449db0 f   spreadsheet.obj
 0001:00048e10       ?SetRow@CSpreadSheet@@QAEXJ@Z 00449e10 f   spreadsheet.obj
 0001:00048e70       ?GetRow2@CSpreadSheet@@QAEJXZ 00449e70 f   spreadsheet.obj
 0001:00048ed0       ?SetRow2@CSpreadSheet@@QAEXJ@Z 00449ed0 f   spreadsheet.obj
 0001:00048f30       ?GetRowHeaderDisplay@CSpreadSheet@@QAEJXZ 00449f30 f   spreadsheet.obj
 0001:00048f90       ?SetRowHeaderDisplay@CSpreadSheet@@QAEXJ@Z 00449f90 f   spreadsheet.obj
 0001:00048ff0       ?GetRowHidden@CSpreadSheet@@QAEHXZ 00449ff0 f   spreadsheet.obj
 0001:00049050       ?SetRowHidden@CSpreadSheet@@QAEXH@Z 0044a050 f   spreadsheet.obj
 0001:000490b0       ?GetRowPageBreak@CSpreadSheet@@QAEHXZ 0044a0b0 f   spreadsheet.obj
 0001:00049110       ?SetRowPageBreak@CSpreadSheet@@QAEXH@Z 0044a110 f   spreadsheet.obj
 0001:00049170       ?GetRowsFrozen@CSpreadSheet@@QAEJXZ 0044a170 f   spreadsheet.obj
 0001:000491d0       ?SetRowsFrozen@CSpreadSheet@@QAEXJ@Z 0044a1d0 f   spreadsheet.obj
 0001:00049230       ?GetScrollBarExtMode@CSpreadSheet@@QAEHXZ 0044a230 f   spreadsheet.obj
 0001:00049290       ?SetScrollBarExtMode@CSpreadSheet@@QAEXH@Z 0044a290 f   spreadsheet.obj
 0001:000492f0       ?GetScrollBarMaxAlign@CSpreadSheet@@QAEHXZ 0044a2f0 f   spreadsheet.obj
 0001:00049350       ?SetScrollBarMaxAlign@CSpreadSheet@@QAEXH@Z 0044a350 f   spreadsheet.obj
 0001:000493b0       ?GetScrollBars@CSpreadSheet@@QAEJXZ 0044a3b0 f   spreadsheet.obj
 0001:00049410       ?SetScrollBars@CSpreadSheet@@QAEXJ@Z 0044a410 f   spreadsheet.obj
 0001:00049470       ?GetScrollBarShowMax@CSpreadSheet@@QAEHXZ 0044a470 f   spreadsheet.obj
 0001:000494d0       ?SetScrollBarShowMax@CSpreadSheet@@QAEXH@Z 0044a4d0 f   spreadsheet.obj
 0001:00049530       ?GetSelBlockCol@CSpreadSheet@@QAEJXZ 0044a530 f   spreadsheet.obj
 0001:00049590       ?SetSelBlockCol@CSpreadSheet@@QAEXJ@Z 0044a590 f   spreadsheet.obj
 0001:000495f0       ?GetSelBlockCol2@CSpreadSheet@@QAEJXZ 0044a5f0 f   spreadsheet.obj
 0001:00049650       ?SetSelBlockCol2@CSpreadSheet@@QAEXJ@Z 0044a650 f   spreadsheet.obj
 0001:000496b0       ?GetSelBlockRow@CSpreadSheet@@QAEJXZ 0044a6b0 f   spreadsheet.obj
 0001:00049710       ?SetSelBlockRow@CSpreadSheet@@QAEXJ@Z 0044a710 f   spreadsheet.obj
 0001:00049770       ?GetSelBlockRow2@CSpreadSheet@@QAEJXZ 0044a770 f   spreadsheet.obj
 0001:000497d0       ?SetSelBlockRow2@CSpreadSheet@@QAEXJ@Z 0044a7d0 f   spreadsheet.obj
 0001:00049830       ?GetSelectBlockOptions@CSpreadSheet@@QAEFXZ 0044a830 f   spreadsheet.obj
 0001:00049890       ?SetSelectBlockOptions@CSpreadSheet@@QAEXF@Z 0044a890 f   spreadsheet.obj
 0001:000498f0       ?GetSelLength@CSpreadSheet@@QAEJXZ 0044a8f0 f   spreadsheet.obj
 0001:00049950       ?SetSelLength@CSpreadSheet@@QAEXJ@Z 0044a950 f   spreadsheet.obj
 0001:000499b0       ?GetSelModeIndex@CSpreadSheet@@QAEJXZ 0044a9b0 f   spreadsheet.obj
 0001:00049a10       ?SetSelModeIndex@CSpreadSheet@@QAEXJ@Z 0044aa10 f   spreadsheet.obj
 0001:00049a70       ?GetSelModeSelCount@CSpreadSheet@@QAEJXZ 0044aa70 f   spreadsheet.obj
 0001:00049ad0       ?SetSelModeSelCount@CSpreadSheet@@QAEXJ@Z 0044aad0 f   spreadsheet.obj
 0001:00049b30       ?GetSelModeSelected@CSpreadSheet@@QAEHXZ 0044ab30 f   spreadsheet.obj
 0001:00049b90       ?SetSelModeSelected@CSpreadSheet@@QAEXH@Z 0044ab90 f   spreadsheet.obj
 0001:00049bf0       ?GetSelStart@CSpreadSheet@@QAEJXZ 0044abf0 f   spreadsheet.obj
 0001:00049c50       ?SetSelStart@CSpreadSheet@@QAEXJ@Z 0044ac50 f   spreadsheet.obj
 0001:00049cb0       ?GetSelText@CSpreadSheet@@QAE?AVCString@@XZ 0044acb0 f   spreadsheet.obj
 0001:00049d70       ?SetSelText@CSpreadSheet@@QAEXPBD@Z 0044ad70 f   spreadsheet.obj
 0001:00049dd0       ?GetShadowColor@CSpreadSheet@@QAEKXZ 0044add0 f   spreadsheet.obj
 0001:00049e30       ?SetShadowColor@CSpreadSheet@@QAEXK@Z 0044ae30 f   spreadsheet.obj
 0001:00049e90       ?GetShadowDark@CSpreadSheet@@QAEKXZ 0044ae90 f   spreadsheet.obj
 0001:00049ef0       ?SetShadowDark@CSpreadSheet@@QAEXK@Z 0044aef0 f   spreadsheet.obj
 0001:00049f50       ?GetShadowText@CSpreadSheet@@QAEKXZ 0044af50 f   spreadsheet.obj
 0001:00049fb0       ?SetShadowText@CSpreadSheet@@QAEXK@Z 0044afb0 f   spreadsheet.obj
 0001:0004a010       ?GetSortBy@CSpreadSheet@@QAEJXZ 0044b010 f   spreadsheet.obj
 0001:0004a070       ?SetSortBy@CSpreadSheet@@QAEXJ@Z 0044b070 f   spreadsheet.obj
 0001:0004a0d0       ?GetStartingColNumber@CSpreadSheet@@QAEJXZ 0044b0d0 f   spreadsheet.obj
 0001:0004a130       ?SetStartingColNumber@CSpreadSheet@@QAEXJ@Z 0044b130 f   spreadsheet.obj
 0001:0004a190       ?GetStartingRowNumber@CSpreadSheet@@QAEJXZ 0044b190 f   spreadsheet.obj
 0001:0004a1f0       ?SetStartingRowNumber@CSpreadSheet@@QAEXJ@Z 0044b1f0 f   spreadsheet.obj
 0001:0004a250       ?GetTopRow@CSpreadSheet@@QAEJXZ 0044b250 f   spreadsheet.obj
 0001:0004a2b0       ?SetTopRow@CSpreadSheet@@QAEXJ@Z 0044b2b0 f   spreadsheet.obj
 0001:0004a310       ?GetTypeButtonAlign@CSpreadSheet@@QAEJXZ 0044b310 f   spreadsheet.obj
 0001:0004a370       ?SetTypeButtonAlign@CSpreadSheet@@QAEXJ@Z 0044b370 f   spreadsheet.obj
 0001:0004a3d0       ?GetTypeButtonBorderColor@CSpreadSheet@@QAEKXZ 0044b3d0 f   spreadsheet.obj
 0001:0004a430       ?SetTypeButtonBorderColor@CSpreadSheet@@QAEXK@Z 0044b430 f   spreadsheet.obj
 0001:0004a490       ?GetTypeButtonColor@CSpreadSheet@@QAEKXZ 0044b490 f   spreadsheet.obj
 0001:0004a4f0       ?SetTypeButtonColor@CSpreadSheet@@QAEXK@Z 0044b4f0 f   spreadsheet.obj
 0001:0004a550       ?GetTypeButtonDarkColor@CSpreadSheet@@QAEKXZ 0044b550 f   spreadsheet.obj
 0001:0004a5b0       ?SetTypeButtonDarkColor@CSpreadSheet@@QAEXK@Z 0044b5b0 f   spreadsheet.obj
 0001:0004a610       ?GetTypeButtonLightColor@CSpreadSheet@@QAEKXZ 0044b610 f   spreadsheet.obj
 0001:0004a670       ?SetTypeButtonLightColor@CSpreadSheet@@QAEXK@Z 0044b670 f   spreadsheet.obj
 0001:0004a6d0       ?GetTypeButtonPicture@CSpreadSheet@@QAE?AVCPicture@@XZ 0044b6d0 f   spreadsheet.obj
 0001:0004a750       ??0CPicture@@QAE@PAUIDispatch@@@Z 0044b750 f i spreadsheet.obj
 0001:0004a7b0       ?SetTypeButtonPicture@CSpreadSheet@@QAEXPAUIDispatch@@@Z 0044b7b0 f   spreadsheet.obj
 0001:0004a810       ?GetTypeButtonPictureDown@CSpreadSheet@@QAE?AVCPicture@@XZ 0044b810 f   spreadsheet.obj
 0001:0004a890       ?SetTypeButtonPictureDown@CSpreadSheet@@QAEXPAUIDispatch@@@Z 0044b890 f   spreadsheet.obj
 0001:0004a8f0       ?GetTypeButtonShadowSize@CSpreadSheet@@QAEFXZ 0044b8f0 f   spreadsheet.obj
 0001:0004a950       ?SetTypeButtonShadowSize@CSpreadSheet@@QAEXF@Z 0044b950 f   spreadsheet.obj
 0001:0004a9b0       ?GetTypeButtonText@CSpreadSheet@@QAE?AVCString@@XZ 0044b9b0 f   spreadsheet.obj
 0001:0004aa80       ?SetTypeButtonText@CSpreadSheet@@QAEXPBD@Z 0044ba80 f   spreadsheet.obj
 0001:0004aae0       ?GetTypeButtonTextColor@CSpreadSheet@@QAEKXZ 0044bae0 f   spreadsheet.obj
 0001:0004ab40       ?SetTypeButtonTextColor@CSpreadSheet@@QAEXK@Z 0044bb40 f   spreadsheet.obj
 0001:0004aba0       ?GetTypeButtonType@CSpreadSheet@@QAEJXZ 0044bba0 f   spreadsheet.obj
 0001:0004ac00       ?SetTypeButtonType@CSpreadSheet@@QAEXJ@Z 0044bc00 f   spreadsheet.obj
 0001:0004ac60       ?GetTypeCheckCenter@CSpreadSheet@@QAEHXZ 0044bc60 f   spreadsheet.obj
 0001:0004acc0       ?SetTypeCheckCenter@CSpreadSheet@@QAEXH@Z 0044bcc0 f   spreadsheet.obj
 0001:0004ad20       ?GetTypeCheckText@CSpreadSheet@@QAE?AVCString@@XZ 0044bd20 f   spreadsheet.obj
 0001:0004adf0       ?SetTypeCheckText@CSpreadSheet@@QAEXPBD@Z 0044bdf0 f   spreadsheet.obj
 0001:0004ae50       ?GetTypeCheckTextAlign@CSpreadSheet@@QAEJXZ 0044be50 f   spreadsheet.obj
 0001:0004aeb0       ?SetTypeCheckTextAlign@CSpreadSheet@@QAEXJ@Z 0044beb0 f   spreadsheet.obj
 0001:0004af10       ?GetTypeComboBoxCount@CSpreadSheet@@QAEFXZ 0044bf10 f   spreadsheet.obj
 0001:0004af70       ?SetTypeComboBoxCount@CSpreadSheet@@QAEXF@Z 0044bf70 f   spreadsheet.obj
 0001:0004afd0       ?GetTypeComboBoxCurSel@CSpreadSheet@@QAEFXZ 0044bfd0 f   spreadsheet.obj
 0001:0004b030       ?SetTypeComboBoxCurSel@CSpreadSheet@@QAEXF@Z 0044c030 f   spreadsheet.obj
 0001:0004b090       ?GetTypeComboBoxEditable@CSpreadSheet@@QAEHXZ 0044c090 f   spreadsheet.obj
 0001:0004b0f0       ?SetTypeComboBoxEditable@CSpreadSheet@@QAEXH@Z 0044c0f0 f   spreadsheet.obj
 0001:0004b150       ?GetTypeComboBoxIndex@CSpreadSheet@@QAEFXZ 0044c150 f   spreadsheet.obj
 0001:0004b1b0       ?SetTypeComboBoxIndex@CSpreadSheet@@QAEXF@Z 0044c1b0 f   spreadsheet.obj
 0001:0004b210       ?GetTypeComboBoxList@CSpreadSheet@@QAE?AVCString@@XZ 0044c210 f   spreadsheet.obj
 0001:0004b2e0       ?SetTypeComboBoxList@CSpreadSheet@@QAEXPBD@Z 0044c2e0 f   spreadsheet.obj
 0001:0004b340       ?GetTypeComboBoxString@CSpreadSheet@@QAE?AVCString@@XZ 0044c340 f   spreadsheet.obj
 0001:0004b410       ?SetTypeComboBoxString@CSpreadSheet@@QAEXPBD@Z 0044c410 f   spreadsheet.obj
 0001:0004b470       ?GetTypeDateCentury@CSpreadSheet@@QAEHXZ 0044c470 f   spreadsheet.obj
 0001:0004b4d0       ?SetTypeDateCentury@CSpreadSheet@@QAEXH@Z 0044c4d0 f   spreadsheet.obj
 0001:0004b530       ?GetTypeDateFormat@CSpreadSheet@@QAEJXZ 0044c530 f   spreadsheet.obj
 0001:0004b590       ?SetTypeDateFormat@CSpreadSheet@@QAEXJ@Z 0044c590 f   spreadsheet.obj
 0001:0004b5f0       ?GetTypeDateMax@CSpreadSheet@@QAE?AVCString@@XZ 0044c5f0 f   spreadsheet.obj
 0001:0004b6c0       ?SetTypeDateMax@CSpreadSheet@@QAEXPBD@Z 0044c6c0 f   spreadsheet.obj
 0001:0004b720       ?GetTypeDateMin@CSpreadSheet@@QAE?AVCString@@XZ 0044c720 f   spreadsheet.obj
 0001:0004b7f0       ?SetTypeDateMin@CSpreadSheet@@QAEXPBD@Z 0044c7f0 f   spreadsheet.obj
 0001:0004b850       ?GetTypeDateSeparator@CSpreadSheet@@QAEFXZ 0044c850 f   spreadsheet.obj
 0001:0004b8b0       ?SetTypeDateSeparator@CSpreadSheet@@QAEXF@Z 0044c8b0 f   spreadsheet.obj
 0001:0004b910       ?GetTypeEditCharCase@CSpreadSheet@@QAEJXZ 0044c910 f   spreadsheet.obj
 0001:0004b970       ?SetTypeEditCharCase@CSpreadSheet@@QAEXJ@Z 0044c970 f   spreadsheet.obj
 0001:0004b9d0       ?GetTypeEditCharSet@CSpreadSheet@@QAEJXZ 0044c9d0 f   spreadsheet.obj
 0001:0004ba30       ?SetTypeEditCharSet@CSpreadSheet@@QAEXJ@Z 0044ca30 f   spreadsheet.obj
 0001:0004ba90       ?GetTypeEditMultiLine@CSpreadSheet@@QAEHXZ 0044ca90 f   spreadsheet.obj
 0001:0004baf0       ?SetTypeEditMultiLine@CSpreadSheet@@QAEXH@Z 0044caf0 f   spreadsheet.obj
 0001:0004bb50       ?GetTypeEditPassword@CSpreadSheet@@QAEHXZ 0044cb50 f   spreadsheet.obj
 0001:0004bbb0       ?SetTypeEditPassword@CSpreadSheet@@QAEXH@Z 0044cbb0 f   spreadsheet.obj
 0001:0004bc10       ?GetTypeFloatCurrencyChar@CSpreadSheet@@QAEFXZ 0044cc10 f   spreadsheet.obj
 0001:0004bc70       ?SetTypeFloatCurrencyChar@CSpreadSheet@@QAEXF@Z 0044cc70 f   spreadsheet.obj
 0001:0004bcd0       ?GetTypeFloatDecimalChar@CSpreadSheet@@QAEFXZ 0044ccd0 f   spreadsheet.obj
 0001:0004bd30       ?SetTypeFloatDecimalChar@CSpreadSheet@@QAEXF@Z 0044cd30 f   spreadsheet.obj
 0001:0004bd90       ?GetTypeFloatDecimalPlaces@CSpreadSheet@@QAEFXZ 0044cd90 f   spreadsheet.obj
 0001:0004bdf0       ?SetTypeFloatDecimalPlaces@CSpreadSheet@@QAEXF@Z 0044cdf0 f   spreadsheet.obj
 0001:0004be50       ?GetTypeFloatMax@CSpreadSheet@@QAENXZ 0044ce50 f   spreadsheet.obj
 0001:0004beb0       ?SetTypeFloatMax@CSpreadSheet@@QAEXN@Z 0044ceb0 f   spreadsheet.obj
 0001:0004bf10       ?GetTypeFloatMin@CSpreadSheet@@QAENXZ 0044cf10 f   spreadsheet.obj
 0001:0004bf70       ?SetTypeFloatMin@CSpreadSheet@@QAEXN@Z 0044cf70 f   spreadsheet.obj
 0001:0004bfd0       ?GetTypeFloatMoney@CSpreadSheet@@QAEHXZ 0044cfd0 f   spreadsheet.obj
 0001:0004c030       ?SetTypeFloatMoney@CSpreadSheet@@QAEXH@Z 0044d030 f   spreadsheet.obj
 0001:0004c090       ?GetTypeFloatSeparator@CSpreadSheet@@QAEHXZ 0044d090 f   spreadsheet.obj
 0001:0004c0f0       ?SetTypeFloatSeparator@CSpreadSheet@@QAEXH@Z 0044d0f0 f   spreadsheet.obj
 0001:0004c150       ?GetTypeFloatSepChar@CSpreadSheet@@QAEFXZ 0044d150 f   spreadsheet.obj
 0001:0004c1b0       ?SetTypeFloatSepChar@CSpreadSheet@@QAEXF@Z 0044d1b0 f   spreadsheet.obj
 0001:0004c210       ?GetTypeHAlign@CSpreadSheet@@QAEJXZ 0044d210 f   spreadsheet.obj
 0001:0004c270       ?SetTypeHAlign@CSpreadSheet@@QAEXJ@Z 0044d270 f   spreadsheet.obj
 0001:0004c2d0       ?GetTypeIntegerMax@CSpreadSheet@@QAEJXZ 0044d2d0 f   spreadsheet.obj
 0001:0004c330       ?SetTypeIntegerMax@CSpreadSheet@@QAEXJ@Z 0044d330 f   spreadsheet.obj
 0001:0004c390       ?GetTypeIntegerMin@CSpreadSheet@@QAEJXZ 0044d390 f   spreadsheet.obj
 0001:0004c3f0       ?SetTypeIntegerMin@CSpreadSheet@@QAEXJ@Z 0044d3f0 f   spreadsheet.obj
 0001:0004c450       ?GetTypeIntegerSpinInc@CSpreadSheet@@QAEJXZ 0044d450 f   spreadsheet.obj
 0001:0004c4b0       ?SetTypeIntegerSpinInc@CSpreadSheet@@QAEXJ@Z 0044d4b0 f   spreadsheet.obj
 0001:0004c510       ?GetTypeIntegerSpinWrap@CSpreadSheet@@QAEHXZ 0044d510 f   spreadsheet.obj
 0001:0004c570       ?SetTypeIntegerSpinWrap@CSpreadSheet@@QAEXH@Z 0044d570 f   spreadsheet.obj
 0001:0004c5d0       ?GetTypeOwnerDrawStyle@CSpreadSheet@@QAEJXZ 0044d5d0 f   spreadsheet.obj
 0001:0004c630       ?SetTypeOwnerDrawStyle@CSpreadSheet@@QAEXJ@Z 0044d630 f   spreadsheet.obj
 0001:0004c690       ?GetTypePicDefaultText@CSpreadSheet@@QAE?AVCString@@XZ 0044d690 f   spreadsheet.obj
 0001:0004c760       ?SetTypePicDefaultText@CSpreadSheet@@QAEXPBD@Z 0044d760 f   spreadsheet.obj
 0001:0004c7c0       ?GetTypePicMask@CSpreadSheet@@QAE?AVCString@@XZ 0044d7c0 f   spreadsheet.obj
 0001:0004c890       ?SetTypePicMask@CSpreadSheet@@QAEXPBD@Z 0044d890 f   spreadsheet.obj
 0001:0004c8f0       ?GetTypePictCenter@CSpreadSheet@@QAEHXZ 0044d8f0 f   spreadsheet.obj
 0001:0004c950       ?SetTypePictCenter@CSpreadSheet@@QAEXH@Z 0044d950 f   spreadsheet.obj
 0001:0004c9b0       ?GetTypePictMaintainScale@CSpreadSheet@@QAEHXZ 0044d9b0 f   spreadsheet.obj
 0001:0004ca10       ?SetTypePictMaintainScale@CSpreadSheet@@QAEXH@Z 0044da10 f   spreadsheet.obj
 0001:0004ca70       ?GetTypePictPicture@CSpreadSheet@@QAE?AVCPicture@@XZ 0044da70 f   spreadsheet.obj
 0001:0004caf0       ?SetTypePictPicture@CSpreadSheet@@QAEXPAUIDispatch@@@Z 0044daf0 f   spreadsheet.obj
 0001:0004cb50       ?GetTypePictStretch@CSpreadSheet@@QAEHXZ 0044db50 f   spreadsheet.obj
 0001:0004cbb0       ?SetTypePictStretch@CSpreadSheet@@QAEXH@Z 0044dbb0 f   spreadsheet.obj
 0001:0004cc10       ?GetTypeSpin@CSpreadSheet@@QAEHXZ 0044dc10 f   spreadsheet.obj
 0001:0004cc70       ?SetTypeSpin@CSpreadSheet@@QAEXH@Z 0044dc70 f   spreadsheet.obj
 0001:0004ccd0       ?GetTypeTextPrefix@CSpreadSheet@@QAEHXZ 0044dcd0 f   spreadsheet.obj
 0001:0004cd30       ?SetTypeTextPrefix@CSpreadSheet@@QAEXH@Z 0044dd30 f   spreadsheet.obj
 0001:0004cd90       ?GetTypeTextShadow@CSpreadSheet@@QAEHXZ 0044dd90 f   spreadsheet.obj
 0001:0004cdf0       ?SetTypeTextShadow@CSpreadSheet@@QAEXH@Z 0044ddf0 f   spreadsheet.obj
 0001:0004ce50       ?GetTypeTextShadowIn@CSpreadSheet@@QAEHXZ 0044de50 f   spreadsheet.obj
 0001:0004ceb0       ?SetTypeTextShadowIn@CSpreadSheet@@QAEXH@Z 0044deb0 f   spreadsheet.obj
 0001:0004cf10       ?GetTypeTextWordWrap@CSpreadSheet@@QAEHXZ 0044df10 f   spreadsheet.obj
 0001:0004cf70       ?SetTypeTextWordWrap@CSpreadSheet@@QAEXH@Z 0044df70 f   spreadsheet.obj
 0001:0004cfd0       ?GetTypeTime24Hour@CSpreadSheet@@QAEJXZ 0044dfd0 f   spreadsheet.obj
 0001:0004d030       ?SetTypeTime24Hour@CSpreadSheet@@QAEXJ@Z 0044e030 f   spreadsheet.obj
 0001:0004d090       ?GetTypeTimeMax@CSpreadSheet@@QAE?AVCString@@XZ 0044e090 f   spreadsheet.obj
 0001:0004d160       ?SetTypeTimeMax@CSpreadSheet@@QAEXPBD@Z 0044e160 f   spreadsheet.obj
 0001:0004d1c0       ?GetTypeTimeMin@CSpreadSheet@@QAE?AVCString@@XZ 0044e1c0 f   spreadsheet.obj
 0001:0004d290       ?SetTypeTimeMin@CSpreadSheet@@QAEXPBD@Z 0044e290 f   spreadsheet.obj
 0001:0004d2f0       ?GetTypeTimeSeconds@CSpreadSheet@@QAEHXZ 0044e2f0 f   spreadsheet.obj
 0001:0004d350       ?SetTypeTimeSeconds@CSpreadSheet@@QAEXH@Z 0044e350 f   spreadsheet.obj
 0001:0004d3b0       ?GetTypeTimeSeparator@CSpreadSheet@@QAEFXZ 0044e3b0 f   spreadsheet.obj
 0001:0004d410       ?SetTypeTimeSeparator@CSpreadSheet@@QAEXF@Z 0044e410 f   spreadsheet.obj
 0001:0004d470       ?GetUnitType@CSpreadSheet@@QAEJXZ 0044e470 f   spreadsheet.obj
 0001:0004d4d0       ?SetUnitType@CSpreadSheet@@QAEXJ@Z 0044e4d0 f   spreadsheet.obj
 0001:0004d530       ?GetUserResize@CSpreadSheet@@QAEJXZ 0044e530 f   spreadsheet.obj
 0001:0004d590       ?SetUserResize@CSpreadSheet@@QAEXJ@Z 0044e590 f   spreadsheet.obj
 0001:0004d5f0       ?GetUserResizeCol@CSpreadSheet@@QAEJXZ 0044e5f0 f   spreadsheet.obj
 0001:0004d650       ?SetUserResizeCol@CSpreadSheet@@QAEXJ@Z 0044e650 f   spreadsheet.obj
 0001:0004d6b0       ?GetUserResizeRow@CSpreadSheet@@QAEJXZ 0044e6b0 f   spreadsheet.obj
 0001:0004d710       ?SetUserResizeRow@CSpreadSheet@@QAEXJ@Z 0044e710 f   spreadsheet.obj
 0001:0004d770       ?GetValue@CSpreadSheet@@QAE?AVCString@@XZ 0044e770 f   spreadsheet.obj
 0001:0004d840       ?SetValue@CSpreadSheet@@QAEXPBD@Z 0044e840 f   spreadsheet.obj
 0001:0004d8a0       ?GetVirtualCurRowCount@CSpreadSheet@@QAEJXZ 0044e8a0 f   spreadsheet.obj
 0001:0004d900       ?SetVirtualCurRowCount@CSpreadSheet@@QAEXJ@Z 0044e900 f   spreadsheet.obj
 0001:0004d960       ?GetVirtualCurTop@CSpreadSheet@@QAEJXZ 0044e960 f   spreadsheet.obj
 0001:0004d9c0       ?SetVirtualCurTop@CSpreadSheet@@QAEXJ@Z 0044e9c0 f   spreadsheet.obj
 0001:0004da20       ?GetVirtualMaxRows@CSpreadSheet@@QAEJXZ 0044ea20 f   spreadsheet.obj
 0001:0004da80       ?SetVirtualMaxRows@CSpreadSheet@@QAEXJ@Z 0044ea80 f   spreadsheet.obj
 0001:0004dae0       ?GetVirtualMode@CSpreadSheet@@QAEHXZ 0044eae0 f   spreadsheet.obj
 0001:0004db40       ?SetVirtualMode@CSpreadSheet@@QAEXH@Z 0044eb40 f   spreadsheet.obj
 0001:0004dba0       ?GetVirtualOverlap@CSpreadSheet@@QAEJXZ 0044eba0 f   spreadsheet.obj
 0001:0004dc00       ?SetVirtualOverlap@CSpreadSheet@@QAEXJ@Z 0044ec00 f   spreadsheet.obj
 0001:0004dc60       ?GetVirtualRows@CSpreadSheet@@QAEJXZ 0044ec60 f   spreadsheet.obj
 0001:0004dcc0       ?SetVirtualRows@CSpreadSheet@@QAEXJ@Z 0044ecc0 f   spreadsheet.obj
 0001:0004dd20       ?GetVirtualScrollBuffer@CSpreadSheet@@QAEHXZ 0044ed20 f   spreadsheet.obj
 0001:0004dd80       ?SetVirtualScrollBuffer@CSpreadSheet@@QAEXH@Z 0044ed80 f   spreadsheet.obj
 0001:0004dde0       ?GetVisibleCols@CSpreadSheet@@QAEJXZ 0044ede0 f   spreadsheet.obj
 0001:0004de40       ?SetVisibleCols@CSpreadSheet@@QAEXJ@Z 0044ee40 f   spreadsheet.obj
 0001:0004dea0       ?GetVisibleRows@CSpreadSheet@@QAEJXZ 0044eea0 f   spreadsheet.obj
 0001:0004df00       ?SetVisibleRows@CSpreadSheet@@QAEXJ@Z 0044ef00 f   spreadsheet.obj
 0001:0004df60       ?GetVScrollSpecial@CSpreadSheet@@QAEHXZ 0044ef60 f   spreadsheet.obj
 0001:0004dfc0       ?SetVScrollSpecial@CSpreadSheet@@QAEXH@Z 0044efc0 f   spreadsheet.obj
 0001:0004e020       ?GetVScrollSpecialType@CSpreadSheet@@QAEFXZ 0044f020 f   spreadsheet.obj
 0001:0004e080       ?SetVScrollSpecialType@CSpreadSheet@@QAEXF@Z 0044f080 f   spreadsheet.obj
 0001:0004e0e0       ?GetFontBold@CSpreadSheet@@QAEHXZ 0044f0e0 f   spreadsheet.obj
 0001:0004e140       ?SetFontBold@CSpreadSheet@@QAEXH@Z 0044f140 f   spreadsheet.obj
 0001:0004e1a0       ?GetFontItalic@CSpreadSheet@@QAEHXZ 0044f1a0 f   spreadsheet.obj
 0001:0004e200       ?SetFontItalic@CSpreadSheet@@QAEXH@Z 0044f200 f   spreadsheet.obj
 0001:0004e260       ?GetFontName@CSpreadSheet@@QAE?AVCString@@XZ 0044f260 f   spreadsheet.obj
 0001:0004e330       ?SetFontName@CSpreadSheet@@QAEXPBD@Z 0044f330 f   spreadsheet.obj
 0001:0004e390       ?GetFontSize@CSpreadSheet@@QAEMXZ 0044f390 f   spreadsheet.obj
 0001:0004e3f0       ?SetFontSize@CSpreadSheet@@QAEXM@Z 0044f3f0 f   spreadsheet.obj
 0001:0004e450       ?GetFontStrikethru@CSpreadSheet@@QAEHXZ 0044f450 f   spreadsheet.obj
 0001:0004e4b0       ?SetFontStrikethru@CSpreadSheet@@QAEXH@Z 0044f4b0 f   spreadsheet.obj
 0001:0004e510       ?GetFontUnderline@CSpreadSheet@@QAEHXZ 0044f510 f   spreadsheet.obj
 0001:0004e570       ?SetFontUnderline@CSpreadSheet@@QAEXH@Z 0044f570 f   spreadsheet.obj
 0001:0004e5d0       ?GetCursorIcon@CSpreadSheet@@QAE?AVCPicture@@XZ 0044f5d0 f   spreadsheet.obj
 0001:0004e650       ?SetCursorIcon@CSpreadSheet@@QAEXPAUIDispatch@@@Z 0044f650 f   spreadsheet.obj
 0001:0004e6b0       ?GetPrintOrientation@CSpreadSheet@@QAEJXZ 0044f6b0 f   spreadsheet.obj
 0001:0004e710       ?SetPrintOrientation@CSpreadSheet@@QAEXJ@Z 0044f710 f   spreadsheet.obj
 0001:0004e770       ?GetBackColorStyle@CSpreadSheet@@QAEJXZ 0044f770 f   spreadsheet.obj
 0001:0004e7d0       ?SetBackColorStyle@CSpreadSheet@@QAEXJ@Z 0044f7d0 f   spreadsheet.obj
 0001:0004e830       ?GetFormulaSync@CSpreadSheet@@QAEHXZ 0044f830 f   spreadsheet.obj
 0001:0004e890       ?SetFormulaSync@CSpreadSheet@@QAEXH@Z 0044f890 f   spreadsheet.obj
 0001:0004e8f0       ?GetTypeCheckType@CSpreadSheet@@QAEJXZ 0044f8f0 f   spreadsheet.obj
 0001:0004e950       ?SetTypeCheckType@CSpreadSheet@@QAEXJ@Z 0044f950 f   spreadsheet.obj
 0001:0004e9b0       ?GetAppearance@CSpreadSheet@@QAEJXZ 0044f9b0 f   spreadsheet.obj
 0001:0004ea10       ?SetAppearance@CSpreadSheet@@QAEXJ@Z 0044fa10 f   spreadsheet.obj
 0001:0004ea70       ?GetTypeComboBoxMaxDrop@CSpreadSheet@@QAEFXZ 0044fa70 f   spreadsheet.obj
 0001:0004ead0       ?SetTypeComboBoxMaxDrop@CSpreadSheet@@QAEXF@Z 0044fad0 f   spreadsheet.obj
 0001:0004eb30       ?GetTypeMaxEditLen@CSpreadSheet@@QAEFXZ 0044fb30 f   spreadsheet.obj
 0001:0004eb90       ?SetTypeMaxEditLen@CSpreadSheet@@QAEXF@Z 0044fb90 f   spreadsheet.obj
 0001:0004ebf0       ?GetTypeComboBoxWidth@CSpreadSheet@@QAEFXZ 0044fbf0 f   spreadsheet.obj
 0001:0004ec50       ?SetTypeComboBoxWidth@CSpreadSheet@@QAEXF@Z 0044fc50 f   spreadsheet.obj
 0001:0004ecb0       ?GetTextTip@CSpreadSheet@@QAEJXZ 0044fcb0 f   spreadsheet.obj
 0001:0004ed10       ?SetTextTip@CSpreadSheet@@QAEXJ@Z 0044fd10 f   spreadsheet.obj
 0001:0004ed70       ?GetTextTipDelay@CSpreadSheet@@QAEJXZ 0044fd70 f   spreadsheet.obj
 0001:0004edd0       ?SetTextTipDelay@CSpreadSheet@@QAEXJ@Z 0044fdd0 f   spreadsheet.obj
 0001:0004ee30       ?GetScrollBarTrack@CSpreadSheet@@QAEJXZ 0044fe30 f   spreadsheet.obj
 0001:0004ee90       ?SetScrollBarTrack@CSpreadSheet@@QAEXJ@Z 0044fe90 f   spreadsheet.obj
 0001:0004eef0       ?GetTypeVAlign@CSpreadSheet@@QAEJXZ 0044fef0 f   spreadsheet.obj
 0001:0004ef50       ?SetTypeVAlign@CSpreadSheet@@QAEXJ@Z 0044ff50 f   spreadsheet.obj
 0001:0004efb0       ?GetClipboardOptions@CSpreadSheet@@QAEFXZ 0044ffb0 f   spreadsheet.obj
 0001:0004f010       ?SetClipboardOptions@CSpreadSheet@@QAEXF@Z 00450010 f   spreadsheet.obj
 0001:0004f070       ?GetPrintSmartPrint@CSpreadSheet@@QAEHXZ 00450070 f   spreadsheet.obj
 0001:0004f0d0       ?SetPrintSmartPrint@CSpreadSheet@@QAEXH@Z 004500d0 f   spreadsheet.obj
 0001:0004f130       ?GetPrintPageOrder@CSpreadSheet@@QAEJXZ 00450130 f   spreadsheet.obj
 0001:0004f190       ?SetPrintPageOrder@CSpreadSheet@@QAEXJ@Z 00450190 f   spreadsheet.obj
 0001:0004f1f0       ?GetPrintPageCount@CSpreadSheet@@QAEJXZ 004501f0 f   spreadsheet.obj
 0001:0004f250       ?SetPrintPageCount@CSpreadSheet@@QAEXJ@Z 00450250 f   spreadsheet.obj
 0001:0004f2b0       ?GetPrintFirstPageNumber@CSpreadSheet@@QAEJXZ 004502b0 f   spreadsheet.obj
 0001:0004f310       ?SetPrintFirstPageNumber@CSpreadSheet@@QAEXJ@Z 00450310 f   spreadsheet.obj
 0001:0004f370       ?GetPrintNextPageBreakCol@CSpreadSheet@@QAEJXZ 00450370 f   spreadsheet.obj
 0001:0004f3d0       ?SetPrintNextPageBreakCol@CSpreadSheet@@QAEXJ@Z 004503d0 f   spreadsheet.obj
 0001:0004f430       ?GetPrintNextPageBreakRow@CSpreadSheet@@QAEJXZ 00450430 f   spreadsheet.obj
 0001:0004f490       ?SetPrintNextPageBreakRow@CSpreadSheet@@QAEXJ@Z 00450490 f   spreadsheet.obj
 0001:0004f4f0       ?GetTypeComboBoxhWnd@CSpreadSheet@@QAEJXZ 004504f0 f   spreadsheet.obj
 0001:0004f550       ?SetTypeComboBoxhWnd@CSpreadSheet@@QAEXJ@Z 00450550 f   spreadsheet.obj
 0001:0004f5b0       ?GetSelBackColor@CSpreadSheet@@QAEKXZ 004505b0 f   spreadsheet.obj
 0001:0004f610       ?SetSelBackColor@CSpreadSheet@@QAEXK@Z 00450610 f   spreadsheet.obj
 0001:0004f670       ?GetSelForeColor@CSpreadSheet@@QAEKXZ 00450670 f   spreadsheet.obj
 0001:0004f6d0       ?SetSelForeColor@CSpreadSheet@@QAEXK@Z 004506d0 f   spreadsheet.obj
 0001:0004f730       ?GetTwoDigitYearMax@CSpreadSheet@@QAEFXZ 00450730 f   spreadsheet.obj
 0001:0004f790       ?SetTwoDigitYearMax@CSpreadSheet@@QAEXF@Z 00450790 f   spreadsheet.obj
 0001:0004f7f0       ?GetOLEDropMode@CSpreadSheet@@QAEJXZ 004507f0 f   spreadsheet.obj
 0001:0004f850       ?SetOLEDropMode@CSpreadSheet@@QAEXJ@Z 00450850 f   spreadsheet.obj
 0001:0004f8b0       ?GetBackColor@CSpreadSheet@@QAEKXZ 004508b0 f   spreadsheet.obj
 0001:0004f910       ?SetBackColor@CSpreadSheet@@QAEXK@Z 00450910 f   spreadsheet.obj
 0001:0004f970       ?GetBorderStyle@CSpreadSheet@@QAEFXZ 00450970 f   spreadsheet.obj
 0001:0004f9d0       ?SetBorderStyle@CSpreadSheet@@QAEXF@Z 004509d0 f   spreadsheet.obj
 0001:0004fa30       ?GetEnabled@CSpreadSheet@@QAEHXZ 00450a30 f   spreadsheet.obj
 0001:0004fa90       ?SetEnabled@CSpreadSheet@@QAEXH@Z 00450a90 f   spreadsheet.obj
 0001:0004faf0       ?GetFont@CSpreadSheet@@QAE?AVCOleFont@@XZ 00450af0 f   spreadsheet.obj
 0001:0004fb70       ??0COleFont@@QAE@PAUIDispatch@@@Z 00450b70 f i spreadsheet.obj
 0001:0004fbd0       ?SetFont@CSpreadSheet@@QAEXPAUIDispatch@@@Z 00450bd0 f   spreadsheet.obj
 0001:0004fc30       ?GetForeColor@CSpreadSheet@@QAEKXZ 00450c30 f   spreadsheet.obj
 0001:0004fc90       ?SetForeColor@CSpreadSheet@@QAEXK@Z 00450c90 f   spreadsheet.obj
 0001:0004fcf0       ?GetHWnd@CSpreadSheet@@QAEIXZ 00450cf0 f   spreadsheet.obj
 0001:0004fd50       ?SetHWnd@CSpreadSheet@@QAEXI@Z 00450d50 f   spreadsheet.obj
 0001:0004fdb0       ?GetText@CSpreadSheet@@QAE?AVCString@@XZ 00450db0 f   spreadsheet.obj
 0001:0004fe80       ?SetText@CSpreadSheet@@QAEXPBD@Z 00450e80 f   spreadsheet.obj
 0001:0004fee0       ?GetColWidth@CSpreadSheet@@QAENJ@Z 00450ee0 f   spreadsheet.obj
 0001:0004ff50       ?SetColWidth@CSpreadSheet@@QAEXJN@Z 00450f50 f   spreadsheet.obj
 0001:0004ffc0       ?GetMaxTextColWidth@CSpreadSheet@@QAENJ@Z 00450fc0 f   spreadsheet.obj
 0001:00050030       ?SetMaxTextColWidth@CSpreadSheet@@QAEXJN@Z 00451030 f   spreadsheet.obj
 0001:000500a0       ?GetMaxTextRowHeight@CSpreadSheet@@QAENJ@Z 004510a0 f   spreadsheet.obj
 0001:00050110       ?SetMaxTextRowHeight@CSpreadSheet@@QAEXJN@Z 00451110 f   spreadsheet.obj
 0001:00050180       ?GetRowHeight@CSpreadSheet@@QAENJ@Z 00451180 f   spreadsheet.obj
 0001:000501f0       ?SetRowHeight@CSpreadSheet@@QAEXJN@Z 004511f0 f   spreadsheet.obj
 0001:00050260       ?GetSortKey@CSpreadSheet@@QAEJF@Z 00451260 f   spreadsheet.obj
 0001:000502d0       ?SetSortKey@CSpreadSheet@@QAEXFJ@Z 004512d0 f   spreadsheet.obj
 0001:00050340       ?GetSortKeyOrder@CSpreadSheet@@QAEJF@Z 00451340 f   spreadsheet.obj
 0001:000503b0       ?SetSortKeyOrder@CSpreadSheet@@QAEXFJ@Z 004513b0 f   spreadsheet.obj
 0001:00050420       ?GetTypeCheckPicture@CSpreadSheet@@QAE?AVCPicture@@F@Z 00451420 f   spreadsheet.obj
 0001:000504b0       ?SetTypeCheckPicture@CSpreadSheet@@QAEXFPAUIDispatch@@@Z 004514b0 f   spreadsheet.obj
 0001:00050520       ?AddCustomFunction@CSpreadSheet@@QAEHPBDF@Z 00451520 f   spreadsheet.obj
 0001:00050590       ?AddCustomFunctionExt@CSpreadSheet@@QAEHPBDFFJ@Z 00451590 f   spreadsheet.obj
 0001:00050610       ?CFGetCellParam@CSpreadSheet@@QAEXFPAJ0@Z 00451610 f   spreadsheet.obj
 0001:00050680       ?CFGetDoubleParam@CSpreadSheet@@QAENF@Z 00451680 f   spreadsheet.obj
 0001:000506f0       ?CFGetDoubleParamExt@CSpreadSheet@@QAENFPAN@Z 004516f0 f   spreadsheet.obj
 0001:00050760       ?CFGetLongParam@CSpreadSheet@@QAEJF@Z 00451760 f   spreadsheet.obj
 0001:000507d0       ?CFGetParamInfo@CSpreadSheet@@QAEHFPAF0@Z 004517d0 f   spreadsheet.obj
 0001:00050850       ?CFGetRangeParam@CSpreadSheet@@QAEXFPAJ000@Z 00451850 f   spreadsheet.obj
 0001:000508d0       ?CFGetStringParam@CSpreadSheet@@QAE?AVCString@@F@Z 004518d0 f   spreadsheet.obj
 0001:000509b0       ?CFSetResult@CSpreadSheet@@QAEXABUtagVARIANT@@@Z 004519b0 f   spreadsheet.obj
 0001:00050a20       ?ColNumberToLetter@CSpreadSheet@@QAE?AVCString@@J@Z 00451a20 f   spreadsheet.obj
 0001:00050b00       ?ColWidthToTwips@CSpreadSheet@@QAEXMPAJ@Z 00451b00 f   spreadsheet.obj
 0001:00050b70       ?GetBottomRightCell@CSpreadSheet@@QAEXPAJ0@Z 00451b70 f   spreadsheet.obj
 0001:00050be0       ?GetCellDirtyFlag@CSpreadSheet@@QAEHJJ@Z 00451be0 f   spreadsheet.obj
 0001:00050c50       ?GetCellFromScreenCoord@CSpreadSheet@@QAEXPAJ0JJ@Z 00451c50 f   spreadsheet.obj
 0001:00050cd0       ?GetCellPos@CSpreadSheet@@QAEHJJPAJ000@Z 00451cd0 f   spreadsheet.obj
 0001:00050d60       ?GetClientArea@CSpreadSheet@@QAEXPAJ0@Z 00451d60 f   spreadsheet.obj
 0001:00050dd0       ?GetColItemData@CSpreadSheet@@QAEJJ@Z 00451dd0 f   spreadsheet.obj
 0001:00050e40       ?QueryCustomName@CSpreadSheet@@QAE?AVCString@@PBD@Z 00451e40 f   spreadsheet.obj
 0001:00050f20       ?GetCustomName@CSpreadSheet@@QAE?AVCString@@PBD@Z 00451f20 f   spreadsheet.obj
 0001:00051000       ?GetDataFillData@CSpreadSheet@@QAEHPAUtagVARIANT@@F@Z 00452000 f   spreadsheet.obj
 0001:00051070       ?GetFirstValidCell@CSpreadSheet@@QAEXPAJ0@Z 00452070 f   spreadsheet.obj
 0001:000510e0       ?GetItemData@CSpreadSheet@@QAEJXZ 004520e0 f   spreadsheet.obj
 0001:00051140       ?GetIteration@CSpreadSheet@@QAEHPAFPAN@Z 00452140 f   spreadsheet.obj
 0001:000511b0       ?GetLastValidCell@CSpreadSheet@@QAEXPAJ0@Z 004521b0 f   spreadsheet.obj
 0001:00051220       ?GetMultiSelItem@CSpreadSheet@@QAEJJ@Z 00452220 f   spreadsheet.obj
 0001:00051290       ?GetRefStyle@CSpreadSheet@@QAEFXZ 00452290 f   spreadsheet.obj
 0001:000512f0       ?GetRowItemData@CSpreadSheet@@QAEJJ@Z 004522f0 f   spreadsheet.obj
 0001:00051360       ?GetText@CSpreadSheet@@QAEHJJPAUtagVARIANT@@@Z 00452360 f   spreadsheet.obj
 0001:000513e0       ?IsCellSelected@CSpreadSheet@@QAEHJJ@Z 004523e0 f   spreadsheet.obj
 0001:00051450       ?IsFormulaValid@CSpreadSheet@@QAEHPBD@Z 00452450 f   spreadsheet.obj
 0001:000514c0       ?IsVisible@CSpreadSheet@@QAEHJJH@Z 004524c0 f   spreadsheet.obj
 0001:00051540       ?LoadFromFile@CSpreadSheet@@QAEHPBD@Z 00452540 f   spreadsheet.obj
 0001:000515b0       ?LoadTabFile@CSpreadSheet@@QAEHPBD@Z 004525b0 f   spreadsheet.obj
 0001:00051620       ?RowHeightToTwips@CSpreadSheet@@QAEXJMPAJ@Z 00452620 f   spreadsheet.obj
 0001:000516a0       ?SaveTabFile@CSpreadSheet@@QAEHPBD@Z 004526a0 f   spreadsheet.obj
 0001:00051710       ?SaveToFile@CSpreadSheet@@QAEHPBDH@Z 00452710 f   spreadsheet.obj
 0001:00051780       ?SetCellDirtyFlag@CSpreadSheet@@QAEHJJH@Z 00452780 f   spreadsheet.obj
 0001:00051800       ?SetColItemData@CSpreadSheet@@QAEXJJ@Z 00452800 f   spreadsheet.obj
 0001:00051870       ?SetCustomName@CSpreadSheet@@QAEHPBD0@Z 00452870 f   spreadsheet.obj
 0001:000518e0       ?SetDataFillData@CSpreadSheet@@QAEHABUtagVARIANT@@@Z 004528e0 f   spreadsheet.obj
 0001:00051950       ?SetItemData@CSpreadSheet@@QAEXJ@Z 00452950 f   spreadsheet.obj
 0001:000519c0       ?SetIteration@CSpreadSheet@@QAEXHFN@Z 004529c0 f   spreadsheet.obj
 0001:00051a40       ?SetRefStyle@CSpreadSheet@@QAEXF@Z 00452a40 f   spreadsheet.obj
 0001:00051ab0       ?SetRowItemData@CSpreadSheet@@QAEXJJ@Z 00452ab0 f   spreadsheet.obj
 0001:00051b20       ?SetText@CSpreadSheet@@QAEXJJABUtagVARIANT@@@Z 00452b20 f   spreadsheet.obj
 0001:00051b90       ?TwipsToColWidth@CSpreadSheet@@QAEXJPAM@Z 00452b90 f   spreadsheet.obj
 0001:00051c00       ?TwipsToRowHeight@CSpreadSheet@@QAEXJJPAM@Z 00452c00 f   spreadsheet.obj
 0001:00051c70       ?GetActionKey@CSpreadSheet@@QAEHFPAH0PAF@Z 00452c70 f   spreadsheet.obj
 0001:00051cf0       ?SetActionKey@CSpreadSheet@@QAEHFHHF@Z 00452cf0 f   spreadsheet.obj
 0001:00051d70       ?GetOddEvenRowColor@CSpreadSheet@@QAEHPAJ000@Z 00452d70 f   spreadsheet.obj
 0001:00051df0       ?SetOddEvenRowColor@CSpreadSheet@@QAEHJJJJ@Z 00452df0 f   spreadsheet.obj
 0001:00051e70       ?GetFloat@CSpreadSheet@@QAEHJJPAN@Z 00452e70 f   spreadsheet.obj
 0001:00051ef0       ?SetFloat@CSpreadSheet@@QAEHJJN@Z 00452ef0 f   spreadsheet.obj
 0001:00051f70       ?GetInteger@CSpreadSheet@@QAEHJJPAJ@Z 00452f70 f   spreadsheet.obj
 0001:00051ff0       ?SetInteger@CSpreadSheet@@QAEHJJJ@Z 00452ff0 f   spreadsheet.obj
 0001:00052070       ?SetCalText@CSpreadSheet@@QAEXPBD00000@Z 00453070 f   spreadsheet.obj
 0001:000520f0       ?GetTextTipAppearance@CSpreadSheet@@QAEHPAPAGPAFPAH2PAJ3@Z 004530f0 f   spreadsheet.obj
 0001:00052180       ?SetTextTipAppearance@CSpreadSheet@@QAEHPBDFHHJJ@Z 00453180 f   spreadsheet.obj
 0001:00052210       ?ExportToHTML@CSpreadSheet@@QAEHPBDH0@Z 00453210 f   spreadsheet.obj
 0001:00052290       ?ExportRangeToHTML@CSpreadSheet@@QAEHJJJJPBDH0@Z 00453290 f   spreadsheet.obj
 0001:00052320       ?GetArray@CSpreadSheet@@QAEHJJABUtagVARIANT@@@Z 00453320 f   spreadsheet.obj
 0001:000523a0       ?SetArray@CSpreadSheet@@QAEHJJABUtagVARIANT@@@Z 004533a0 f   spreadsheet.obj
 0001:00052420       ?IsExcelFile@CSpreadSheet@@QAEHPBD@Z 00453420 f   spreadsheet.obj
 0001:00052490       ?GetExcelSheetList@CSpreadSheet@@QAEHPBDABUtagVARIANT@@PAF02H@Z 00453490 f   spreadsheet.obj
 0001:00052520       ?ImportExcelSheet@CSpreadSheet@@QAEHFABUtagVARIANT@@@Z 00453520 f   spreadsheet.obj
 0001:00052590       ?ExportToExcel@CSpreadSheet@@QAEHPBD00@Z 00453590 f   spreadsheet.obj
 0001:00052610       ?EnumCustomFunction@CSpreadSheet@@QAEHPBDPAPAG@Z 00453610 f   spreadsheet.obj
 0001:00052680       ?GetCustomFunction@CSpreadSheet@@QAEHPBDPAF1PAJ@Z 00453680 f   spreadsheet.obj
 0001:00052700       ?RemoveCustomFunction@CSpreadSheet@@QAEHPBD@Z 00453700 f   spreadsheet.obj
 0001:00052770       ?ReCalcCell@CSpreadSheet@@QAEHJJ@Z 00453770 f   spreadsheet.obj
 0001:000527e0       ?OLEDrag@CSpreadSheet@@QAEXXZ 004537e0 f   spreadsheet.obj
 0001:00052840       ?Refresh@CSpreadSheet@@QAEXXZ 00453840 f   spreadsheet.obj
 0001:000528a0       ?AboutBox@CSpreadSheet@@QAEXXZ 004538a0 f   spreadsheet.obj
 0001:00052900       ??0CTileMapTool@@QAE@XZ    00453900 f   TileMapTool.obj
 0001:000529a0       ??_GCTileMapTool@@UAEPAXI@Z 004539a0 f i TileMapTool.obj
 0001:000529a0       ??_ECTileMapTool@@UAEPAXI@Z 004539a0 f i TileMapTool.obj
 0001:00052a10       ??1CTileMapTool@@UAE@XZ    00453a10 f   TileMapTool.obj
 0001:00052b10       ?ToolDataGet@CTileMapTool@@QAEPAU_TILE_MAP_DATA_TOOL@@HHH@Z 00453b10 f   TileMapTool.obj
 0001:00052bb0       ?New@CTileMapTool@@QAEXXZ  00453bb0 f   TileMapTool.obj
 0001:00052c00       ?LoadFromToolData@CTileMapTool@@QAEXPBD@Z 00453c00 f   TileMapTool.obj
 0001:00053400       ?SaveToToolData@CTileMapTool@@QAEXPBD@Z 00454400 f   TileMapTool.obj
 0001:00053c40       ?SaveToGameFormat@CTileMapTool@@QAEXPBDK@Z 00454c40 f   TileMapTool.obj
 0001:00054a30       ?Conv555PixelTo565Pixel@CDDEngine@@QAEXPAGPBGH@Z 00455a30 f i TileMapTool.obj
 0001:00054ad0       ??4_TILE_MAP_HEADER@@QAEABU0@ABU0@@Z 00455ad0 f i TileMapTool.obj
 0001:00054b30       ?ReAlloc@CTileMapTool@@QAEXHH@Z 00455b30 f   TileMapTool.obj
 0001:00054d90       ?ReleaseEx@CTileMapTool@@QAEXXZ 00455d90 f   TileMapTool.obj
 0001:00054e90       ?AllocTool@CTileMapTool@@QAEXHH@Z 00455e90 f   TileMapTool.obj
 0001:000550a0       ??0CTileSetTool@@QAE@XZ    004560a0 f   TileSetTool.obj
 0001:000551b0       ??_ECTileSetTool@@UAEPAXI@Z 004561b0 f i TileSetTool.obj
 0001:000551b0       ??_GCTileSetTool@@UAEPAXI@Z 004561b0 f i TileSetTool.obj
 0001:00055220       ??1CTileSetTool@@UAE@XZ    00456220 f   TileSetTool.obj
 0001:000552e0       ?ReAlloc@CTileSetTool@@QAEXHHHH@Z 004562e0 f   TileSetTool.obj
 0001:00055420       ?DataGetSafe@CTileSetTool@@QAEPAV_TILE_SUB_SET_DATA_TOOL@@HH@Z 00456420 f   TileSetTool.obj
 0001:000554a0       ?DataSetSafe@CTileSetTool@@QAEXHHPAV_TILE_SUB_SET_DATA_TOOL@@@Z 004564a0 f   TileSetTool.obj
 0001:00055540       ?DataGetPos@CTileSetTool@@QAEPAUtagPOINT@@HHHH@Z 00456540 f   TileSetTool.obj
 0001:000555c0       ?GetPos@_TILE_SUB_SET_DATA_TOOL@@QAEPAUtagPOINT@@HH@Z 004565c0 f i TileSetTool.obj
 0001:00055640       ?DataGetPosCur@CTileSetTool@@QAEPAUtagPOINT@@HHH@Z 00456640 f   TileSetTool.obj
 0001:000556b0       ?GetPosCur@_TILE_SUB_SET_DATA_TOOL@@QAEPAUtagPOINT@@H@Z 004566b0 f i TileSetTool.obj
 0001:00055740       ?DataGetFlagCur@CTileSetTool@@QAEPAHHHH@Z 00456740 f   TileSetTool.obj
 0001:000557b0       ?GetFlagCur@_TILE_SUB_SET_DATA_TOOL@@QAEPAHH@Z 004567b0 f i TileSetTool.obj
 0001:00055840       ?Save@CTileSetTool@@QAEXPBD@Z 00456840 f   TileSetTool.obj
 0001:00055a70       ?TileSetImport@CTileSetTool@@QAEXHPBD@Z 00456a70 f   TileSetTool.obj
 0001:00055c90       ?TileSetExport@CTileSetTool@@QAEXHPBD@Z 00456c90 f   TileSetTool.obj
 0001:00055de0       ?ReleaseAll@CTileSetTool@@QAEXXZ 00456de0 f   TileSetTool.obj
 0001:00055f60       ?Delete@CTileSetTool@@QAEHH@Z 00456f60 f   TileSetTool.obj
 0001:00056310       ?DeleteCore@CTileSetTool@@QAEXH@Z 00457310 f   TileSetTool.obj
 0001:000564a0       ?Release@CTileSetTool@@QAEXHH@Z 004574a0 f   TileSetTool.obj
 0001:00056560       ?Alloc@CTileSetTool@@QAEXHHHH@Z 00457560 f   TileSetTool.obj
 0001:00056610       ?Load@CTileSetTool@@QAEXPBD@Z 00457610 f   TileSetTool.obj
 0001:000569f0       ?DataGet@CTileSetTool@@QAEPAV_TILE_SUB_SET_DATA_TOOL@@HH@Z 004579f0 f   TileSetTool.obj
 0001:00056a70       ?ResetAni@CTileSetTool@@QAEXXZ 00457a70 f   TileSetTool.obj
 0001:00056b10       ?Increase@CTileSetTool@@QAEXXZ 00457b10 f   TileSetTool.obj
 0001:00056bc0       ?Decrease@CTileSetTool@@QAEXXZ 00457bc0 f   TileSetTool.obj
 0001:00056c70       ?OnSaveSplFromTileSet@CTileSetTool@@QAEXVCString@@H@Z 00457c70 f   TileSetTool.obj
 0001:00057270       ?OnCreate@CTileSetTool@@QAEXXZ 00458270 f   TileSetTool.obj
 0001:00057330       ?OnDestroy@CTileSetTool@@QAEXXZ 00458330 f   TileSetTool.obj
 0001:000573d0       ??0CWndAniObj@@QAE@XZ      004583d0 f   WndAniObj.obj
 0001:00057500       ??_ECWndAniObj@@UAEPAXI@Z  00458500 f i WndAniObj.obj
 0001:00057500       ??_GCWndAniObj@@UAEPAXI@Z  00458500 f i WndAniObj.obj
 0001:00057570       ??1CWndAniObj@@UAE@XZ      00458570 f   WndAniObj.obj
 0001:00057610       ?GetMessageMap@CWndAniObj@@MBEPBUAFX_MSGMAP@@XZ 00458610 f   WndAniObj.obj
 0001:00057650       ?OnPaint@CWndAniObj@@IAEXXZ 00458650 f   WndAniObj.obj
 0001:00058230       ?BltCenter@CDDEngine@@QAEXPAUIDirectDrawSurface@@HHPBUtagRECT@@PAUtagPOINT@@HHHK0@Z 00459230 f i WndAniObj.obj
 0001:000582e0       ?OnCreate@CWndAniObj@@IAEHPAUtagCREATESTRUCTA@@@Z 004592e0 f   WndAniObj.obj
 0001:000583c0       ?OnDestroy@CWndAniObj@@IAEXXZ 004593c0 f   WndAniObj.obj
 0001:00058430       ?OnLButtonDown@CWndAniObj@@IAEXIVCPoint@@@Z 00459430 f   WndAniObj.obj
 0001:00058630       ?OnLButtonUp@CWndAniObj@@IAEXIVCPoint@@@Z 00459630 f   WndAniObj.obj
 0001:00058b10       ?OnMouseMove@CWndAniObj@@IAEXIVCPoint@@@Z 00459b10 f   WndAniObj.obj
 0001:00058ef0       ?OnRButtonDown@CWndAniObj@@IAEXIVCPoint@@@Z 00459ef0 f   WndAniObj.obj
 0001:00059050       ?OnRButtonUp@CWndAniObj@@IAEXIVCPoint@@@Z 0045a050 f   WndAniObj.obj
 0001:000590f0       ?OnKeyDown@CWndAniObj@@IAEXIII@Z 0045a0f0 f   WndAniObj.obj
 0001:00059440       ?OnHScroll@CWndAniObj@@IAEXIIPAVCScrollBar@@@Z 0045a440 f   WndAniObj.obj
 0001:000595d0       ?OnVScroll@CWndAniObj@@IAEXIIPAVCScrollBar@@@Z 0045a5d0 f   WndAniObj.obj
 0001:00059760       ?OnSize@CWndAniObj@@IAEXIHH@Z 0045a760 f   WndAniObj.obj
 0001:000597c0       ?RecalcScrollBar@CWndAniObj@@QAEXXZ 0045a7c0 f   WndAniObj.obj
 0001:00059970       ?OnMouseWheel@CWndAniObj@@IAEHIFVCPoint@@@Z 0045a970 f   WndAniObj.obj
 0001:00059a70       ??0CWndAniTilePreview@@QAE@XZ 0045aa70 f   WndAniTilePreview.obj
 0001:00059ad0       ??_GCWndAniTilePreview@@UAEPAXI@Z 0045aad0 f i WndAniTilePreview.obj
 0001:00059ad0       ??_ECWndAniTilePreview@@UAEPAXI@Z 0045aad0 f i WndAniTilePreview.obj
 0001:00059b40       ??1CWndAniTilePreview@@UAE@XZ 0045ab40 f   WndAniTilePreview.obj
 0001:00059b90       ?GetMessageMap@CWndAniTilePreview@@MBEPBUAFX_MSGMAP@@XZ 0045ab90 f   WndAniTilePreview.obj
 0001:00059bd0       ?OnPaint@CWndAniTilePreview@@IAEXXZ 0045abd0 f   WndAniTilePreview.obj
 0001:0005a180       ?GetPos@_TILE_SUB_SET_DATA_TOOL@@QAEPAUtagPOINT@@U2@H@Z 0045b180 f i WndAniTilePreview.obj
 0001:0005a220       ?GetAniSubSetIndex@_TILE_SUB_SET_DATA_TOOL@@QAEHPAH@Z 0045b220 f i WndAniTilePreview.obj
 0001:0005a2a0       ?OnCreate@CWndAniTilePreview@@IAEHPAUtagCREATESTRUCTA@@@Z 0045b2a0 f   WndAniTilePreview.obj
 0001:0005a320       ?OnDestroy@CWndAniTilePreview@@IAEXXZ 0045b320 f   WndAniTilePreview.obj
 0001:0005a370       ?OnTimer@CWndAniTilePreview@@IAEXI@Z 0045b370 f   WndAniTilePreview.obj
 0001:0005a3d0       ?UpdateAniTilePreviewWindow@CWndAniTilePreview@@QAEXXZ 0045b3d0 f   WndAniTilePreview.obj
 0001:0005a4f0       ?TileSetCur@CWndAniTilePreview@@QAEXHH@Z 0045b4f0 f   WndAniTilePreview.obj
 0001:0005a570       ?ActiveAniTile@CWndAniTilePreview@@QAEXH@Z 0045b570 f   WndAniTilePreview.obj
 0001:0005a5e0       ?OnActivate@CWndAniTilePreview@@IAEXIPAVCWnd@@H@Z 0045b5e0 f   WndAniTilePreview.obj
 0001:0005a650       ??0CWndIntf@@QAE@XZ        0045b650 f   WndIntf.obj
 0001:0005a7b0       ??_ECWndIntf@@UAEPAXI@Z    0045b7b0 f i WndIntf.obj
 0001:0005a7b0       ??_GCWndIntf@@UAEPAXI@Z    0045b7b0 f i WndIntf.obj
 0001:0005a820       ??1CWndIntf@@UAE@XZ        0045b820 f   WndIntf.obj
 0001:0005a8c0       ?GetMessageMap@CWndIntf@@MBEPBUAFX_MSGMAP@@XZ 0045b8c0 f   WndIntf.obj
 0001:0005a900       ?OnPaint@CWndIntf@@IAEXXZ  0045b900 f   WndIntf.obj
 0001:0005b850       ?OnLButtonDown@CWndIntf@@IAEXIVCPoint@@@Z 0045c850 f   WndIntf.obj
 0001:0005bb80       ?OnMouseMove@CWndIntf@@IAEXIVCPoint@@@Z 0045cb80 f   WndIntf.obj
 0001:0005bfc0       ?OnRButtonDown@CWndIntf@@IAEXIVCPoint@@@Z 0045cfc0 f   WndIntf.obj
 0001:0005c080       ?OnRButtonUp@CWndIntf@@IAEXIVCPoint@@@Z 0045d080 f   WndIntf.obj
 0001:0005c110       ?OnKeyDown@CWndIntf@@IAEXIII@Z 0045d110 f   WndIntf.obj
 0001:0005c3f0       ?OnClose@CWndIntf@@IAEXXZ  0045d3f0 f   WndIntf.obj
 0001:0005c450       ?OnLButtonUp@CWndIntf@@IAEXIVCPoint@@@Z 0045d450 f   WndIntf.obj
 0001:0005c4e0       ?OnCreate@CWndIntf@@IAEHPAUtagCREATESTRUCTA@@@Z 0045d4e0 f   WndIntf.obj
 0001:0005c650       ?OnDestroy@CWndIntf@@IAEXXZ 0045d650 f   WndIntf.obj
 0001:0005c6f0       ??0CWndObjPreview@@QAE@PAVCDlgTileMapObj@@@Z 0045d6f0 f   WndObjPreview.obj
 0001:0005c750       ??_ECWndObjPreview@@UAEPAXI@Z 0045d750 f i WndObjPreview.obj
 0001:0005c750       ??_GCWndObjPreview@@UAEPAXI@Z 0045d750 f i WndObjPreview.obj
 0001:0005c7c0       ??1CWndObjPreview@@UAE@XZ  0045d7c0 f   WndObjPreview.obj
 0001:0005c810       ?GetMessageMap@CWndObjPreview@@MBEPBUAFX_MSGMAP@@XZ 0045d810 f   WndObjPreview.obj
 0001:0005c850       ?OnPaint@CWndObjPreview@@IAEXXZ 0045d850 f   WndObjPreview.obj
 0001:0005cc20       ?OnDestroy@CWndObjPreview@@IAEXXZ 0045dc20 f   WndObjPreview.obj
 0001:0005cc70       ??0CWndTileMap@@QAE@XZ     0045dc70 f   WndTileMap.obj
 0001:0005cf60       ?SetViewPtr@MouseSelectManager@@QAEXPAVCWnd@@@Z 0045df60 f i WndTileMap.obj
 0001:0005cfa0       ??_GCWndTileMap@@UAEPAXI@Z 0045dfa0 f i WndTileMap.obj
 0001:0005cfa0       ??_ECWndTileMap@@UAEPAXI@Z 0045dfa0 f i WndTileMap.obj
 0001:0005d010       ??1CWndTileMap@@UAE@XZ     0045e010 f   WndTileMap.obj
 0001:0005d190       ?GetMessageMap@CWndTileMap@@MBEPBUAFX_MSGMAP@@XZ 0045e190 f   WndTileMap.obj
 0001:0005d1d0       ?OnPaint@CWndTileMap@@IAEXXZ 0045e1d0 f   WndTileMap.obj
 0001:00060920       ?IsUsing@MouseSelectManager@@QAEHXZ 00461920 f i WndTileMap.obj
 0001:00060960       ?DataGet@CMapObj@@QAEFHH@Z 00461960 f i WndTileMap.obj
 0001:000609f0       ?DrawBitmap@CWndTileMap@@QAEXPAUIDirectDrawSurface@@VCRect@@@Z 004619f0 f   WndTileMap.obj
 0001:000616c0       ?OnLButtonDown@CWndTileMap@@IAEXIVCPoint@@@Z 004626c0 f   WndTileMap.obj
 0001:00061e20       ?DataSet@CMapObj@@QAEXHHF@Z 00462e20 f i WndTileMap.obj
 0001:00061eb0       ?OnLButtonUp@CWndTileMap@@IAEXIVCPoint@@@Z 00462eb0 f   WndTileMap.obj
 0001:00062430       ?OnMouseMove@CWndTileMap@@IAEXIVCPoint@@@Z 00463430 f   WndTileMap.obj
 0001:00062ec0       ?OnRButtonDown@CWndTileMap@@IAEXIVCPoint@@@Z 00463ec0 f   WndTileMap.obj
 0001:00063100       ?OnRButtonUp@CWndTileMap@@IAEXIVCPoint@@@Z 00464100 f   WndTileMap.obj
 0001:000634b0       ?TileMapSet@CWndTileMap@@QAEHHHH@Z 004644b0 f   WndTileMap.obj
 0001:000638b0       ?TileMapDelete@CWndTileMap@@QAEHHHH@Z 004648b0 f   WndTileMap.obj
 0001:00063a80       ?OnKeyDown@CWndTileMap@@IAEXIII@Z 00464a80 f   WndTileMap.obj
 0001:00063e80       ?RecalcScrollBar@CWndTileMap@@QAEXXZ 00464e80 f   WndTileMap.obj
 0001:00064160       ?OnSize@CWndTileMap@@IAEXIHH@Z 00465160 f   WndTileMap.obj
 0001:00064310       ?OnHScroll@CWndTileMap@@IAEXIIPAVCScrollBar@@@Z 00465310 f   WndTileMap.obj
 0001:00064470       ?OnVScroll@CWndTileMap@@IAEXIIPAVCScrollBar@@@Z 00465470 f   WndTileMap.obj
 0001:000645d0       ?OnCreate@CWndTileMap@@IAEHPAUtagCREATESTRUCTA@@@Z 004655d0 f   WndTileMap.obj
 0001:00064c70       ?OnDestroy@CWndTileMap@@IAEXXZ 00465c70 f   WndTileMap.obj
 0001:00064e40       ?OnMouseWheel@CWndTileMap@@IAEHIFVCPoint@@@Z 00465e40 f   WndTileMap.obj
 0001:00064f50       ?UndoPrepareData@CWndTileMap@@QAEXVCRect@@@Z 00465f50 f   WndTileMap.obj
 0001:00065210       ?Undo@CWndTileMap@@QAEXXZ  00466210 f   WndTileMap.obj
 0001:00065390       ?UnoClearData@CWndTileMap@@QAEXXZ 00466390 f   WndTileMap.obj
 0001:00065450       ?ActiveAni@CWndTileMap@@QAEXXZ 00466450 f   WndTileMap.obj
 0001:000654b0       ?DeactiveAni@CWndTileMap@@QAEXXZ 004664b0 f   WndTileMap.obj
 0001:00065520       ?PosToCell@@YA?AUtagPOINT@@U1@@Z 00466520 f   WndTileMap.obj
 0001:000656a0       ?CellToPos@@YA?AUtagPOINT@@U1@@Z 004666a0 f   WndTileMap.obj
 0001:000656f0       ?OnTimer@CWndTileMap@@IAEXI@Z 004666f0 f   WndTileMap.obj
 0001:00065750       ?AniPaint@CWndTileMap@@QAEXXZ 00466750 f   WndTileMap.obj
 0001:00065e00       ?GotoHouse@CWndTileMap@@QAEXH@Z 00466e00 f   WndTileMap.obj
 0001:00065f40       ??0CWndTileMapPreview@@QAE@XZ 00466f40 f   WndTileMapPreview.obj
 0001:00066010       ??_GCWndTileMapPreview@@UAEPAXI@Z 00467010 f i WndTileMapPreview.obj
 0001:00066010       ??_ECWndTileMapPreview@@UAEPAXI@Z 00467010 f i WndTileMapPreview.obj
 0001:00066080       ??1CWndTileMapPreview@@UAE@XZ 00467080 f   WndTileMapPreview.obj
 0001:000660d0       ?GetMessageMap@CWndTileMapPreview@@MBEPBUAFX_MSGMAP@@XZ 004670d0 f   WndTileMapPreview.obj
 0001:00066110       ?Alloc@CWndTileMapPreview@@QAEXHH@Z 00467110 f   WndTileMapPreview.obj
 0001:00066220       ?UpdateData@CWndTileMapPreview@@QAEXPAUtagRECT@@H@Z 00467220 f   WndTileMapPreview.obj
 0001:00066790       ?OnPaint@CWndTileMapPreview@@IAEXXZ 00467790 f   WndTileMapPreview.obj
 0001:00066a60       ?OnLButtonDown@CWndTileMapPreview@@IAEXIVCPoint@@@Z 00467a60 f   WndTileMapPreview.obj
 0001:00066b80       ?OnMouseMove@CWndTileMapPreview@@IAEXIVCPoint@@@Z 00467b80 f   WndTileMapPreview.obj
 0001:00066cb0       ?OnDestroy@CWndTileMapPreview@@IAEXXZ 00467cb0 f   WndTileMapPreview.obj
 0001:00066d70       ??0CWndTileSetPreview@@QAE@XZ 00467d70 f   WndTileSetPreview.obj
 0001:00066e70       ??_GCWndTileSetPreview@@UAEPAXI@Z 00467e70 f i WndTileSetPreview.obj
 0001:00066e70       ??_ECWndTileSetPreview@@UAEPAXI@Z 00467e70 f i WndTileSetPreview.obj
 0001:00066ee0       ??1CWndTileSetPreview@@UAE@XZ 00467ee0 f   WndTileSetPreview.obj
 0001:00066f90       ?GetMessageMap@CWndTileSetPreview@@MBEPBUAFX_MSGMAP@@XZ 00467f90 f   WndTileSetPreview.obj
 0001:00066fd0       ?OnLButtonDown@CWndTileSetPreview@@IAEXIVCPoint@@@Z 00467fd0 f   WndTileSetPreview.obj
 0001:000673b0       ?TileSetCur@CWndTileSetPreview@@QAEXHH@Z 004683b0 f   WndTileSetPreview.obj
 0001:00067460       ?OnPaint@CWndTileSetPreview@@IAEXXZ 00468460 f   WndTileSetPreview.obj
 0001:00068100       ?OnSize@CWndTileSetPreview@@IAEXIHH@Z 00469100 f   WndTileSetPreview.obj
 0001:00068160       ?OnRButtonDown@CWndTileSetPreview@@IAEXIVCPoint@@@Z 00469160 f   WndTileSetPreview.obj
 0001:00068230       ?OnCreate@CWndTileSetPreview@@IAEHPAUtagCREATESTRUCTA@@@Z 00469230 f   WndTileSetPreview.obj
 0001:000683a0       ?OnDestroy@CWndTileSetPreview@@IAEXXZ 004693a0 f   WndTileSetPreview.obj
 0001:00068410       ?OnLButtonUp@CWndTileSetPreview@@IAEXIVCPoint@@@Z 00469410 f   WndTileSetPreview.obj
 0001:000685d0       ?OnMouseMove@CWndTileSetPreview@@IAEXIVCPoint@@@Z 004695d0 f   WndTileSetPreview.obj
 0001:00068680       ??0CAniObjLSP@@QAE@XZ      00469680 f   IGObject_Debug:AniObjLSP.obj
 0001:00068700       ??_GCAniObjLSP@@UAEPAXI@Z  00469700 f i IGObject_Debug:AniObjLSP.obj
 0001:00068700       ??_ECAniObjLSP@@UAEPAXI@Z  00469700 f i IGObject_Debug:AniObjLSP.obj
 0001:00068760       ??1CAniObjLSP@@UAE@XZ      00469760 f   IGObject_Debug:AniObjLSP.obj
 0001:000687e0       ?SprRelease@CAniObjLSP@@QAEXXZ 004697e0 f   IGObject_Debug:AniObjLSP.obj
 0001:000688d0       ?SprLoad@CAniObjLSP@@UAEXPBDH@Z 004698d0 f   IGObject_Debug:AniObjLSP.obj
 0001:00068c10       ?SprAlloc@CAniObjLSP@@MAEXH@Z 00469c10 f   IGObject_Debug:AniObjLSP.obj
 0001:00068cd0       ?SprGet@CAniObjLSP@@QAEHHPAPBU_SPR_LSP@@@Z 00469cd0 f   IGObject_Debug:AniObjLSP.obj
 0001:00068d30       ?Decode2_555@CAniObjLSP@@QAEXPAU_SPR_LSP@@@Z 00469d30 f   IGObject_Debug:AniObjLSP.obj
 0001:00068e20       ?Decode2_565@CAniObjLSP@@QAEXPAU_SPR_LSP@@@Z 00469e20 f   IGObject_Debug:AniObjLSP.obj
 0001:00068f10       ?SprGetAnimated@CAniObjLSP@@QAEHPAPBU_SPR_LSP@@H@Z 00469f10 f   IGObject_Debug:AniObjLSP.obj
 0001:00068f90       ?Convert8PixelTo16Pixel@CAniObjLSP@@IAEHPAEPAGPAUtagRGBQUAD@@H@Z 00469f90 f   IGObject_Debug:AniObjLSP.obj
 0001:00069080       ?RGB16@CAniObjLSP@@IAEGGGG@Z 0046a080 f i IGObject_Debug:AniObjLSP.obj
 0001:000690e0       ??0CAniObj@@QAE@XZ         0046a0e0 f   IGObject_Debug:AniObj.obj
 0001:000691c0       ??_GCAniObj@@UAEPAXI@Z     0046a1c0 f i IGObject_Debug:AniObj.obj
 0001:000691c0       ??_ECAniObj@@UAEPAXI@Z     0046a1c0 f i IGObject_Debug:AniObj.obj
 0001:00069220       ??1CAniObj@@UAE@XZ         0046a220 f   IGObject_Debug:AniObj.obj
 0001:00069270       ?AniRelease@CAniObj@@QAEXXZ 0046a270 f   IGObject_Debug:AniObj.obj
 0001:00069370       ?AniCtrlRelease@CAniObj@@QAEXXZ 0046a370 f   IGObject_Debug:AniObj.obj
 0001:000694e0       ?AniLoad@CAniObj@@QAEXPBD@Z 0046a4e0 f   IGObject_Debug:AniObj.obj
 0001:00069760       ?AniAlloc@CAniObj@@QAEXH@Z 0046a760 f   IGObject_Debug:AniObj.obj
 0001:00069810       ?AniCtrlAlloc@CAniObj@@QAEXH@Z 0046a810 f   IGObject_Debug:AniObj.obj
 0001:000699c0       ?AniDataGet@CAniObj@@QAEPAU_ANI_DATA@@H@Z 0046a9c0 f   IGObject_Debug:AniObj.obj
 0001:00069a10       ?AniSet@CAniObj@@QAEXHHH@Z 0046aa10 f   IGObject_Debug:AniObj.obj
 0001:00069ad0       ?FrmSet@CAniObj@@QAEXHH@Z  0046aad0 f   IGObject_Debug:AniObj.obj
 0001:00069b30       ?DirSet@CAniObj@@QAEXHH@Z  0046ab30 f   IGObject_Debug:AniObj.obj
 0001:00069bc0       ?FrmGetMax@CAniObj@@QAEHH@Z 0046abc0 f   IGObject_Debug:AniObj.obj
 0001:00069c40       ?ActionSpeedSet@CAniObj@@QAEMM@Z 0046ac40 f   IGObject_Debug:AniObj.obj
 0001:00069ca0       ?FrmGetByAniAndDirAndSeq@CAniObj@@QAEHHHH@Z 0046aca0 f   IGObject_Debug:AniObj.obj
 0001:00069d50       ?FrmGetAnimated@CAniObj@@QAEHH@Z 0046ad50 f   IGObject_Debug:AniObj.obj
 0001:00069f80       ??0CDDEngine@@QAE@XZ       0046af80 f   IGObject_Debug:DDEngine.obj
 0001:0006a110       ??_ECDDEngine@@UAEPAXI@Z   0046b110 f i IGObject_Debug:DDEngine.obj
 0001:0006a110       ??_GCDDEngine@@UAEPAXI@Z   0046b110 f i IGObject_Debug:DDEngine.obj
 0001:0006a170       ??1CDDEngine@@UAE@XZ       0046b170 f   IGObject_Debug:DDEngine.obj
 0001:0006a2e0       ?Init@CDDEngine@@QAEXPAUHWND__@@HHH@Z 0046b2e0 f   IGObject_Debug:DDEngine.obj
 0001:0006a910       ?SurfaceCreate@CDDEngine@@QAEPAUIDirectDrawSurface@@HHHK@Z 0046b910 f   IGObject_Debug:DDEngine.obj
 0001:0006aa40       ?SurfaceColorKeySet@CDDEngine@@QAEXPAUIDirectDrawSurface@@K@Z 0046ba40 f   IGObject_Debug:DDEngine.obj
 0001:0006aac0       ?BltNormal@CDDEngine@@QAEXPAUIDirectDrawSurface@@HHPBUtagRECT@@HHHK0@Z 0046bac0 f   IGObject_Debug:DDEngine.obj
 0001:0006af90       ?PutPixelAlphaAdd@CDDEngine@@IAEXPBG0HKKK@Z 0046bf90 f i IGObject_Debug:DDEngine.obj
 0001:0006b030       ?PutPixelAlphaSoft@CDDEngine@@IAEXPBG0HKKK@Z 0046c030 f i IGObject_Debug:DDEngine.obj
 0001:0006b0c0       ?PutPixelTrans@CDDEngine@@IAEXPBG0HHHKK@Z 0046c0c0 f i IGObject_Debug:DDEngine.obj
 0001:0006b0f0       ?PutPixelDark@CDDEngine@@IAEXPBG0HHKK@Z 0046c0f0 f i IGObject_Debug:DDEngine.obj
 0001:0006b160       ?PutPixelShadow@CDDEngine@@IAEXPBG0HKK@Z 0046c160 f i IGObject_Debug:DDEngine.obj
 0001:0006b1e0       ?PutPixelColor@CDDEngine@@IAEXPBG0HHKKK@Z 0046c1e0 f i IGObject_Debug:DDEngine.obj
 0001:0006b260       ?BackBufferLock@CDDEngine@@QAEXXZ 0046c260 f   IGObject_Debug:DDEngine.obj
 0001:0006b2e0       ?BackBufferUnlock@CDDEngine@@QAEXXZ 0046c2e0 f   IGObject_Debug:DDEngine.obj
 0001:0006b350       ?SurfaceCreateWithBMP@CDDEngine@@QAEPAUIDirectDrawSurface@@PBDHK@Z 0046c350 f   IGObject_Debug:DDEngine.obj
 0001:0006b4d0       ?SurfaceCreateWithGenericBMP@CDDEngine@@IAEPAUIDirectDrawSurface@@PBDHK@Z 0046c4d0 f   IGObject_Debug:DDEngine.obj
 0001:0006b680       ?SurfaceCreateWith16BMP@CDDEngine@@IAEPAUIDirectDrawSurface@@PBDHK@Z 0046c680 f   IGObject_Debug:DDEngine.obj
 0001:0006b870       ?Conv565PixelTo555Pixel@CDDEngine@@QAEXPAGPBGH@Z 0046c870 f i IGObject_Debug:DDEngine.obj
 0001:0006b8f0       ?GetWidth@CDib16@@QAEHXZ   0046c8f0 f i IGObject_Debug:DDEngine.obj
 0001:0006b920       ?GetHeight@CDib16@@QAEHXZ  0046c920 f i IGObject_Debug:DDEngine.obj
 0001:0006b950       ?PathGetCur@CDDEngine@@QBEPBDPBDH@Z 0046c950 f   IGObject_Debug:DDEngine.obj
 0001:0006ba10       ?PathSetCur@CDDEngine@@QAEXPBD@Z 0046ca10 f   IGObject_Debug:DDEngine.obj
 0001:0006bab0       ?PathSetWork@CDDEngine@@QAEXPBD@Z 0046cab0 f   IGObject_Debug:DDEngine.obj
 0001:0006bb00       ?Flip@CDDEngine@@QAEXPBUtagRECT@@@Z 0046cb00 f   IGObject_Debug:DDEngine.obj
 0001:0006bec0       ?SurfaceFillRect@CDDEngine@@QAEXPAUIDirectDrawSurface@@PBUtagRECT@@KH@Z 0046cec0 f   IGObject_Debug:DDEngine.obj
 0001:0006c2b0       ?SurfaceGetSize@CDDEngine@@QAEXPAUIDirectDrawSurface@@PAUtagRECT@@@Z 0046d2b0 f   IGObject_Debug:DDEngine.obj
 0001:0006c360       ?DrawLine@CDDEngine@@QAEXPAUIDirectDrawSurface@@HHHHK@Z 0046d360 f   IGObject_Debug:DDEngine.obj
 0001:0006c480       ?DrawBox@CDDEngine@@QAEXPAUIDirectDrawSurface@@PBUtagRECT@@K@Z 0046d480 f   IGObject_Debug:DDEngine.obj
 0001:0006c5c0       ?DrawRhombus@CDDEngine@@QAEXPAUIDirectDrawSurface@@HHK@Z 0046d5c0 f   IGObject_Debug:DDEngine.obj
 0001:0006c730       ?DrawRhombus64@CDDEngine@@QAEXPAUIDirectDrawSurface@@HHK@Z 0046d730 f   IGObject_Debug:DDEngine.obj
 0001:0006c8a0       ?DrawPolygon@CDDEngine@@QAEXPAUIDirectDrawSurface@@PAUtagPOINT@@HK@Z 0046d8a0 f   IGObject_Debug:DDEngine.obj
 0001:0006c9c0       ?TextOutA@CDDEngine@@QAEXPAUIDirectDrawSurface@@HHPBDKI@Z 0046d9c0 f   IGObject_Debug:DDEngine.obj
 0001:0006cad0       ?SurfaceColorKeyGet@CDDEngine@@QAEKPAUIDirectDrawSurface@@@Z 0046dad0 f   IGObject_Debug:DDEngine.obj
 0001:0006cb40       ?Blt@CDDEngine@@QAEXPAUIDirectDrawSurface@@0PAUtagRECT@@1H@Z 0046db40 f   IGObject_Debug:DDEngine.obj
 0001:0006cbb0       ??0CDDEngineLSP@@QAE@XZ    0046dbb0 f   IGObject_Debug:DDEngineLSP.obj
 0001:0006cc00       ??_ECDDEngineLSP@@UAEPAXI@Z 0046dc00 f i IGObject_Debug:DDEngineLSP.obj
 0001:0006cc00       ??_GCDDEngineLSP@@UAEPAXI@Z 0046dc00 f i IGObject_Debug:DDEngineLSP.obj
 0001:0006cc60       ??1CDDEngineLSP@@UAE@XZ    0046dc60 f   IGObject_Debug:DDEngineLSP.obj
 0001:0006cca0       ?BltLSP@CDDEngineLSP@@QAEXPAUIDirectDrawSurface@@HHPBU_SPR_LSP@@HHK@Z 0046dca0 f   IGObject_Debug:DDEngineLSP.obj
 0001:0006d6b0       ?PutPixelNormal@CDDEngine@@IAEXPBG0H@Z 0046e6b0 f i IGObject_Debug:DDEngineLSP.obj
 0001:0006d6f0       ?GetClippedRect@CDDEngineLSP@@QAEHPAUtagRECT@@0@Z 0046e6f0 f   IGObject_Debug:DDEngineLSP.obj
 0001:0006d7a0       ?BltLSPOff@CDDEngineLSP@@QAEXPAUIDirectDrawSurface@@HHUtagSIZE@@PBU_SPR_LSP@@HHK@Z 0046e7a0 f   IGObject_Debug:DDEngineLSP.obj
 0001:0006e1e0       ??0CDib16@@QAE@XZ          0046f1e0 f   IGObject_Debug:Dib16.obj
 0001:0006e240       ??_ECDib16@@UAEPAXI@Z      0046f240 f i IGObject_Debug:Dib16.obj
 0001:0006e240       ??_GCDib16@@UAEPAXI@Z      0046f240 f i IGObject_Debug:Dib16.obj
 0001:0006e2a0       ??1CDib16@@UAE@XZ          0046f2a0 f   IGObject_Debug:Dib16.obj
 0001:0006e2e0       ?Release@CDib16@@QAEXXZ    0046f2e0 f   IGObject_Debug:Dib16.obj
 0001:0006e350       ?ImportGenericBMP@CDib16@@QAEHPBD@Z 0046f350 f   IGObject_Debug:Dib16.obj
 0001:0006e7c0       ?RGB16@CDib16@@QAEGGGG@Z   0046f7c0 f i IGObject_Debug:Dib16.obj
 0001:0006e820       ?ExportTo24BMP@CDib16@@QAEHPBD@Z 0046f820 f   IGObject_Debug:Dib16.obj
 0001:0006eba0       ?RGB24@CDib16@@QAEKG@Z     0046fba0 f i IGObject_Debug:Dib16.obj
 0001:0006ec10       ?New@CDib16@@QAEHHH@Z      0046fc10 f   IGObject_Debug:Dib16.obj
 0001:0006ed50       ?Load@CDib16@@QAEHPBD@Z    0046fd50 f   IGObject_Debug:Dib16.obj
 0001:0006eed0       ?Save@CDib16@@QAEHPBD@Z    0046fed0 f   IGObject_Debug:Dib16.obj
 0001:0006f010       ?FillColor@CDib16@@QAEXPAUtagRECT@@K@Z 00470010 f   IGObject_Debug:Dib16.obj
 0001:0006f140       ?RGB16@CDib16@@QAEGK@Z     00470140 f i IGObject_Debug:Dib16.obj
 0001:0006f1a0       ??0CIntf@@QAE@XZ           004701a0 f   IGObject_Debug:Intf.obj
 0001:0006f280       ??_GCIntf@@UAEPAXI@Z       00470280 f i IGObject_Debug:Intf.obj
 0001:0006f280       ??_ECIntf@@UAEPAXI@Z       00470280 f i IGObject_Debug:Intf.obj
 0001:0006f2e0       ??1CIntf@@UAE@XZ           004702e0 f   IGObject_Debug:Intf.obj
 0001:0006f380       ?IntfRelease@CIntf@@IAEXXZ 00470380 f   IGObject_Debug:Intf.obj
 0001:0006f490       ?IntfAlloc@CIntf@@IAEXH@Z  00470490 f   IGObject_Debug:Intf.obj
 0001:0006f5e0       ?IntfGet@CIntf@@QAEPAU_INTF_DATA@@H@Z 004705e0 f   IGObject_Debug:Intf.obj
 0001:0006f630       ?IntfGet@CIntf@@QAEPAU_INTF_DATA@@HH@Z 00470630 f   IGObject_Debug:Intf.obj
 0001:0006f6d0       ?Load@CIntf@@QAEXPBD00H@Z  004706d0 f   IGObject_Debug:Intf.obj
 0001:0006f9c0       ?HitTest@CIntf@@QAEHHUtagPOINT@@@Z 004709c0 f   IGObject_Debug:Intf.obj
 0001:0006fa70       ??0CItem@@QAE@XZ           00470a70 f   IGObject_Debug:Item.obj
 0001:0006fb40       ??_GCItem@@UAEPAXI@Z       00470b40 f i IGObject_Debug:Item.obj
 0001:0006fb40       ??_ECItem@@UAEPAXI@Z       00470b40 f i IGObject_Debug:Item.obj
 0001:0006fba0       ??1CItem@@UAE@XZ           00470ba0 f   IGObject_Debug:Item.obj
 0001:0006fc30       ?Alloc@CItem@@QAEXH@Z      00470c30 f   IGObject_Debug:Item.obj
 0001:0006fce0       ?Release@CItem@@QAEXXZ     00470ce0 f   IGObject_Debug:Item.obj
 0001:0006fe40       ?DataGet@CItem@@QAEPAU_ITEM_DATA@@H@Z 00470e40 f   IGObject_Debug:Item.obj
 0001:0006fe90       ?Load@CItem@@QAEXPBD00H@Z  00470e90 f   IGObject_Debug:Item.obj
 0001:00070210       ??0CObjLook@@QAE@XZ        00471210 f   IGObject_Debug:ObjLook.obj
 0001:000702d0       ??_ECObjLook@@UAEPAXI@Z    004712d0 f i IGObject_Debug:ObjLook.obj
 0001:000702d0       ??_GCObjLook@@UAEPAXI@Z    004712d0 f i IGObject_Debug:ObjLook.obj
 0001:00070330       ??1CObjLook@@UAE@XZ        00471330 f   IGObject_Debug:ObjLook.obj
 0001:000703b0       ?Release@CObjLook@@QAEXXZ  004713b0 f   IGObject_Debug:ObjLook.obj
 0001:00070460       ?DataGet@CObjLook@@QAEPAU_LOOK_DATA@@H@Z 00471460 f   IGObject_Debug:ObjLook.obj
 0001:000704a0       ?Load@CObjLook@@QAEXPBD00H@Z 004714a0 f   IGObject_Debug:ObjLook.obj
 0001:000706e0       ?Alloc@CObjLook@@QAEXH@Z   004716e0 f   IGObject_Debug:ObjLook.obj
 0001:000707c0       ??0CGameResrc@@QAE@XZ      004717c0 f   IGObject_Debug:GameResrc.obj
 0001:00070880       ??_GCGameResrc@@UAEPAXI@Z  00471880 f i IGObject_Debug:GameResrc.obj
 0001:00070880       ??_ECGameResrc@@UAEPAXI@Z  00471880 f i IGObject_Debug:GameResrc.obj
 0001:000708e0       ??1CGameResrc@@UAE@XZ      004718e0 f   IGObject_Debug:GameResrc.obj
 0001:00070910       ?FileNameGet@CGameResrc@@QAEPBDHH@Z 00471910 f   IGObject_Debug:GameResrc.obj
 0001:00070a20       ?FileNameSet@CGameResrc@@QAEXHHPBD@Z 00471a20 f   IGObject_Debug:GameResrc.obj
 0001:00070bb0       ??0CScript@@QAE@XZ         00471bb0 f   IGObject_Debug:Script.obj
 0001:00070c50       ??_ECScript@@UAEPAXI@Z     00471c50 f i IGObject_Debug:Script.obj
 0001:00070c50       ??_GCScript@@UAEPAXI@Z     00471c50 f i IGObject_Debug:Script.obj
 0001:00070cb0       ??1CScript@@UAE@XZ         00471cb0 f   IGObject_Debug:Script.obj
 0001:00070cf0       ?Get@CScript@@QAEPBU_SCT_DATA@@XZ 00471cf0 f   IGObject_Debug:Script.obj
 0001:00070d30       ?Get@CScript@@QAEPBU_SCT_DATA@@H@Z 00471d30 f   IGObject_Debug:Script.obj
 0001:00070d80       ?Load@CScript@@QAEXPBD@Z   00471d80 f   IGObject_Debug:Script.obj
 0001:00070f70       ?Release@CScript@@QAEXXZ   00471f70 f   IGObject_Debug:Script.obj
 0001:00071050       ?Alloc@CScript@@AAEXH@Z    00472050 f   IGObject_Debug:Script.obj
 0001:00071170       ??0CTileMap@@QAE@XZ        00472170 f   IGObject_Debug:TileMap.obj
 0001:00071210       ??_ECTileMap@@UAEPAXI@Z    00472210 f i IGObject_Debug:TileMap.obj
 0001:00071210       ??_GCTileMap@@UAEPAXI@Z    00472210 f i IGObject_Debug:TileMap.obj
 0001:00071270       ??1CTileMap@@UAE@XZ        00472270 f   IGObject_Debug:TileMap.obj
 0001:000712b0       ?Release@CTileMap@@QAEXXZ  004722b0 f   IGObject_Debug:TileMap.obj
 0001:000713d0       ?Alloc@CTileMap@@QAEXHH@Z  004723d0 f   IGObject_Debug:TileMap.obj
 0001:000715b0       ?Load@CTileMap@@QAEXPBD@Z  004725b0 f   IGObject_Debug:TileMap.obj
 0001:00071720       ??0CMapObj@@QAE@XZ         00472720 f   IGObject_Debug:MapObj.obj
 0001:000717a0       ??_GCMapObj@@UAEPAXI@Z     004727a0 f i IGObject_Debug:MapObj.obj
 0001:000717a0       ??_ECMapObj@@UAEPAXI@Z     004727a0 f i IGObject_Debug:MapObj.obj
 0001:00071800       ??1CMapObj@@UAE@XZ         00472800 f   IGObject_Debug:MapObj.obj
 0001:00071870       ?Release@CMapObj@@QAEXXZ   00472870 f   IGObject_Debug:MapObj.obj
 0001:00071910       ?Alloc@CMapObj@@QAEXHH@Z   00472910 f   IGObject_Debug:MapObj.obj
 0001:000719e0       ?Load@CMapObj@@QAEXPBD@Z   004729e0 f   IGObject_Debug:MapObj.obj
 0001:00071bd0       ?Load@CMapObj@@QAEXAAPAX@Z 00472bd0 f   IGObject_Debug:MapObj.obj
 0001:00071d40       ??0CObjBasic@@QAE@XZ       00472d40 f   IGObject_Debug:ObjBasic.obj
 0001:00071de0       ??_GCObjBasic@@UAEPAXI@Z   00472de0 f i IGObject_Debug:ObjBasic.obj
 0001:00071de0       ??_ECObjBasic@@UAEPAXI@Z   00472de0 f i IGObject_Debug:ObjBasic.obj
 0001:00071e40       ??1CObjBasic@@UAE@XZ       00472e40 f   IGObject_Debug:ObjBasic.obj
 0001:00071e80       ?SetReferenceAniObj@CObjBasic@@QAEXH@Z 00472e80 f   IGObject_Debug:ObjBasic.obj
 0001:00071ed0       ?AniObjSet@CObjBasic@@QAEXHHPAVCAniObjLSP@@@Z 00472ed0 f   IGObject_Debug:ObjBasic.obj
 0001:00071f40       ?Release@CObjBasic@@QAEXXZ 00472f40 f   IGObject_Debug:ObjBasic.obj
 0001:00071fd0       ?Load@CObjBasic@@QAEXPBD00HH@Z 00472fd0 f   IGObject_Debug:ObjBasic.obj
 0001:00072210       ?ReleaseAniObjs@CObjBasic@@IAEXXZ 00473210 f   IGObject_Debug:ObjBasic.obj
 0001:000722b0       ?Render@CObjBasic@@QAEXPAVCDDEngineLSP@@UtagPOINT@@@Z 004732b0 f   IGObject_Debug:ObjBasic.obj
 0001:000723c0       ?IsBBLocked@CDDEngine@@QAEHXZ 004733c0 f i IGObject_Debug:ObjBasic.obj
 0001:000723ee       _DirectDrawCreateClipper@12 004733ee f   DDraw:DDRAW.dll
 0001:000723f4       _DirectDrawCreate@12       004733f4 f   DDraw:DDRAW.dll
 0001:00072400       ?AtlA2WHelper@@YGPAGPAGPBDH@Z 00473400 f i nafxcwd:filecore.obj
 0001:00072420       ?AtlA2WHelper@@YGPAGPAGPBDHI@Z 00473420 f i nafxcwd:filecore.obj
 0001:000724b0       __tcsinc                   004734b0 f i nafxcwd:filecore.obj
 0001:000724d0       ?GetFileTitle@@YGFPBDPADG@Z 004734d0 f i nafxcwd:filecore.obj
 0001:000724f0       ?data@CStringData@@QAEPADXZ 004734f0 f i nafxcwd:strcore.obj
 0001:00072510       __tcschr                   00473510 f i nafxcwd:strcore.obj
 0001:00072530       __tcspbrk                  00473530 f i nafxcwd:strcore.obj
 0001:00072550       __tcsupr                   00473550 f i nafxcwd:strcore.obj
 0001:00072570       __tcslwr                   00473570 f i nafxcwd:strcore.obj
 0001:00072590       __tcsrev                   00473590 f i nafxcwd:strcore.obj
 0001:000725b0       __tcscmp                   004735b0 f i nafxcwd:afxinl1.obj
 0001:000725d0       __tcsicmp                  004735d0 f i nafxcwd:afxinl1.obj
 0001:000725f0       __tcscoll                  004735f0 f i nafxcwd:afxinl1.obj
 0001:00072610       __tcsicoll                 00473610 f i nafxcwd:afxinl1.obj
 0001:00072630       ?DrawState@@YGHPAUHDC__@@PAUHBRUSH__@@P6GH0JIHH@ZJIHHHHI@Z 00473630 f i nafxcwd:afxinl2.obj
 0001:00072670       ?LookupPermanent@CHandleMap@@QAEPAVCObject@@PAX@Z 00473670 f i nafxcwd:winctrl2.obj
 0001:00072690       ?LookupTemporary@CHandleMap@@QAEPAVCObject@@PAX@Z 00473690 f i nafxcwd:winctrl2.obj
 0001:000726b0       _InitMultipleMonitorStubs  004736b0 f   nafxcwd:wincore.obj
 0001:000727f9       _xGetSystemMetrics@4       004737f9 f   nafxcwd:wincore.obj
 0001:00072874       _xMonitorFromPoint@12      00473874 f   nafxcwd:wincore.obj
 0001:000728d1       _xMonitorFromRect@8        004738d1 f   nafxcwd:wincore.obj
 0001:00072935       _xMonitorFromWindow@8      00473935 f   nafxcwd:wincore.obj
 0001:000729b4       _xGetMonitorInfo@8         004739b4 f   nafxcwd:wincore.obj
 0001:00072a8d       _xEnumDisplayMonitors@16   00473a8d f   nafxcwd:wincore.obj
 0001:00072bc0       ?GetNextWindow@@YAPAUHWND__@@PAU1@I@Z 00473bc0 f i nafxcwd:wincore.obj
 0001:00072be0       ?UnlockResource@@YGHPAX@Z  00473be0 f i nafxcwd:wincore.obj
 0001:00072bf0       ?A2T@@YAPADPAD@Z           00473bf0 f i nafxcwd:wincore.obj
 0001:00072c00       ??_ECNoTrackObject@@UAEPAXI@Z 00473c00 f i nafxcwd:wincore.obj
 0001:00072c00       ??_GCNoTrackObject@@UAEPAXI@Z 00473c00 f i nafxcwd:wincore.obj
 0001:00072c30       ??1CNoTrackObject@@UAE@XZ  00473c30 f i nafxcwd:wincore.obj
 0001:00072c50       ?IsEqualGUID@@YAHABU_GUID@@0@Z 00473c50 f i nafxcwd:cmdtarg.obj
 0001:00072c70       ??0CFileFind@@QAE@XZ       00473c70 f   nafxcwd:filefind.obj
 0001:00072cec       ??1CFileFind@@UAE@XZ       00473cec f   nafxcwd:filefind.obj
 0001:00072d4c       ?Close@CFileFind@@QAEXXZ   00473d4c f   nafxcwd:filefind.obj
 0001:00072dd0       ?CloseContext@CFileFind@@MAEXXZ 00473dd0 f   nafxcwd:filefind.obj
 0001:00072de8       ?FindFile@CFileFind@@UAEHPBDK@Z 00473de8 f   nafxcwd:filefind.obj
 0001:00072f68       ?MatchesMask@CFileFind@@UBEHK@Z 00473f68 f   nafxcwd:filefind.obj
 0001:00072fc9       ?GetLastAccessTime@CFileFind@@UBEHPAU_FILETIME@@@Z 00473fc9 f   nafxcwd:filefind.obj
 0001:0007305e       ?GetLastWriteTime@CFileFind@@UBEHPAU_FILETIME@@@Z 0047405e f   nafxcwd:filefind.obj
 0001:000730f3       ?GetCreationTime@CFileFind@@UBEHPAU_FILETIME@@@Z 004740f3 f   nafxcwd:filefind.obj
 0001:00073168       ?GetLastAccessTime@CFileFind@@UBEHAAVCTime@@@Z 00474168 f   nafxcwd:filefind.obj
 0001:000731e2       ?GetLastWriteTime@CFileFind@@UBEHAAVCTime@@@Z 004741e2 f   nafxcwd:filefind.obj
 0001:0007325c       ?GetCreationTime@CFileFind@@UBEHAAVCTime@@@Z 0047425c f   nafxcwd:filefind.obj
 0001:000732d6       ?IsDots@CFileFind@@UBEHXZ  004742d6 f   nafxcwd:filefind.obj
 0001:0007337c       ?FindNextFileA@CFileFind@@UAEHXZ 0047437c f   nafxcwd:filefind.obj
 0001:00073426       ?GetFileURL@CFileFind@@UBE?AVCString@@XZ 00474426 f   nafxcwd:filefind.obj
 0001:00073502       ?GetRoot@CFileFind@@UBE?AVCString@@XZ 00474502 f   nafxcwd:filefind.obj
 0001:0007356f       ?GetFilePath@CFileFind@@UBE?AVCString@@XZ 0047456f f   nafxcwd:filefind.obj
 0001:00073694       ?GetFileTitle@CFileFind@@UBE?AVCString@@XZ 00474694 f   nafxcwd:filefind.obj
 0001:00073786       ?GetFileName@CFileFind@@UBE?AVCString@@XZ 00474786 f   nafxcwd:filefind.obj
 0001:00073845       ?GetLength@CFileFind@@QBEKXZ 00474845 f   nafxcwd:filefind.obj
 0001:000738a2       ?GetLength64@CFileFind@@QBE_JXZ 004748a2 f   nafxcwd:filefind.obj
 0001:00073911       ?Dump@CFileFind@@MBEXAAVCDumpContext@@@Z 00474911 f   nafxcwd:filefind.obj
 0001:00073945       ?AssertValid@CFileFind@@MBEXXZ 00474945 f   nafxcwd:filefind.obj
 0001:000739c0       ??_ECFileFind@@UAEPAXI@Z   004749c0 f i nafxcwd:filefind.obj
 0001:000739c0       ??_GCFileFind@@UAEPAXI@Z   004749c0 f i nafxcwd:filefind.obj
 0001:000739f0       __tcsrchr                  004749f0 f i nafxcwd:filefind.obj
 0001:00073a10       __tcsstr                   00474a10 f i nafxcwd:strex.obj
 0001:00073a30       __tcsspn                   00474a30 f i nafxcwd:strex.obj
 0001:00073a50       __tcscspn                  00474a50 f i nafxcwd:strex.obj
 0001:00073a70       __tcsncmp                  00474a70 f i nafxcwd:strex.obj
 0001:00073a90       __tclen                    00474a90 f i nafxcwd:strex.obj
 0001:00073ab0       ??_9@$BMM@AE               00474ab0 f i nafxcwd:dlgcore.obj
 0001:00073ac0       ??_9@$BNA@AE               00474ac0 f i nafxcwd:dlgcore.obj
 0001:00073ad0       ??0AFX_CLASSINIT@@QAE@PAUCRuntimeClass@@@Z 00474ad0 f i nafxcwd:array_s.obj
 0001:00073af0       ?GetHead@CSimpleList@@QBEPAXXZ 00474af0 f i nafxcwd:objcore.obj
 0001:00073b00       ?CreateControl@CWnd@@QAEHPBD0KABUtagRECT@@PAV1@IPAVCFile@@HPAG@Z 00474b00 f   nafxcwd:occcont.obj
 0001:00073b78       ?CreateControl@CWnd@@QAEHABU_GUID@@PBDKABUtagRECT@@PAV1@IPAVCFile@@HPAG@Z 00474b78 f   nafxcwd:occcont.obj
 0001:00073bfd       ?CreateControl@CWnd@@QAEHABU_GUID@@PBDKPBUtagPOINT@@PBUtagSIZE@@PAV1@IPAVCFile@@HPAG@Z 00474bfd f   nafxcwd:occcont.obj
 0001:00073caa       ?InitControlContainer@CWnd@@IAEHXZ 00474caa f   nafxcwd:occcont.obj
 0001:00073dc7       ?GetInterfaceMap@COleControlContainer@@MBEPBUAFX_INTERFACEMAP@@XZ 00474dc7 f   nafxcwd:occcont.obj
 0001:00073dd7       ?GetDispatchMap@COleControlContainer@@MBEPBUAFX_DISPMAP@@XZ 00474dd7 f   nafxcwd:occcont.obj
 0001:00073de7       ??0COleControlContainer@@QAE@PAVCWnd@@@Z 00474de7 f   nafxcwd:occcont.obj
 0001:00073e8d       ??1COleControlContainer@@UAE@XZ 00474e8d f   nafxcwd:occcont.obj
 0001:00073fe8       ?CreateControl@COleControlContainer@@QAEHPAVCWnd@@ABU_GUID@@PBDKABUtagRECT@@IPAVCFile@@HPAGPAPAVCOleControlSite@@@Z 00474fe8 f   nafxcwd:occcont.obj
 0001:00074071       ?CreateControl@COleControlContainer@@QAEHPAVCWnd@@ABU_GUID@@PBDKPBUtagPOINT@@PBUtagSIZE@@IPAVCFile@@HPAGPAPAVCOleControlSite@@@Z 00475071 f   nafxcwd:occcont.obj
 0001:000741e9       ?FindItem@COleControlContainer@@UBEPAVCOleControlSite@@I@Z 004751e9 f   nafxcwd:occcont.obj
 0001:00074239       ?GetAmbientProp@COleControlContainer@@UAEHPAVCOleControlSite@@JPAUtagVARIANT@@@Z 00475239 f   nafxcwd:occcont.obj
 0001:0007452b       ?CreateOleFont@COleControlContainer@@QAEXPAVCFont@@@Z 0047552b f   nafxcwd:occcont.obj
 0001:00074779       ?FreezeAllEvents@COleControlContainer@@QAEXH@Z 00475779 f   nafxcwd:occcont.obj
 0001:000747c1       ?ScrollChildren@COleControlContainer@@UAEXHH@Z 004757c1 f   nafxcwd:occcont.obj
 0001:0007488d       ?OnUIActivate@COleControlContainer@@UAEXPAVCOleControlSite@@@Z 0047588d f   nafxcwd:occcont.obj
 0001:000748ed       ?OnUIDeactivate@COleControlContainer@@UAEXPAVCOleControlSite@@@Z 004758ed f   nafxcwd:occcont.obj
 0001:0007490f       ?CheckDlgButton@COleControlContainer@@UAEXHI@Z 0047590f f   nafxcwd:occcont.obj
 0001:00074973       ?CheckRadioButton@COleControlContainer@@UAEXHHH@Z 00475973 f   nafxcwd:occcont.obj
 0001:00074a02       ?GetDlgItem@COleControlContainer@@UBEPAVCWnd@@H@Z 00475a02 f   nafxcwd:occcont.obj
 0001:00074a2d       ?GetDlgItem@COleControlContainer@@UBEXHPAPAUHWND__@@@Z 00475a2d f   nafxcwd:occcont.obj
 0001:00074a84       ?GetDlgItemInt@COleControlContainer@@UBEIHPAHH@Z 00475a84 f   nafxcwd:occcont.obj
 0001:00074b7d       ?GetDlgItemTextA@COleControlContainer@@UBEHHPADH@Z 00475b7d f   nafxcwd:occcont.obj
 0001:00074bb8       ?SendDlgItemMessageA@COleControlContainer@@UAEJHIIJ@Z 00475bb8 f   nafxcwd:occcont.obj
 0001:00074bf7       ?SetDlgItemInt@COleControlContainer@@UAEXHIH@Z 00475bf7 f   nafxcwd:occcont.obj
 0001:00074c48       ?SetDlgItemTextA@COleControlContainer@@UAEXHPBD@Z 00475c48 f   nafxcwd:occcont.obj
 0001:00074c7d       ?IsDlgButtonChecked@COleControlContainer@@UBEIH@Z 00475c7d f   nafxcwd:occcont.obj
 0001:00074d69       ?QueryInterface@XOleIPFrame@COleControlContainer@@UAGJABU_GUID@@PAPAX@Z 00475d69 f   nafxcwd:occcont.obj
 0001:00074d8c       ?AddRef@XOleIPFrame@COleControlContainer@@UAGKXZ 00475d8c f   nafxcwd:occcont.obj
 0001:00074da7       ?Release@XOleIPFrame@COleControlContainer@@UAGKXZ 00475da7 f   nafxcwd:occcont.obj
 0001:00074dc2       ?GetWindow@XOleIPFrame@COleControlContainer@@UAGJPAPAUHWND__@@@Z 00475dc2 f   nafxcwd:occcont.obj
 0001:00074de5       ?ContextSensitiveHelp@XOleIPFrame@COleControlContainer@@UAGJH@Z 00475de5 f   nafxcwd:occcont.obj
 0001:00074df1       ?GetBorder@XOleIPFrame@COleControlContainer@@UAGJPAUtagRECT@@@Z 00475df1 f   nafxcwd:occcont.obj
 0001:00074dfd       ?RequestBorderSpace@XOleIPFrame@COleControlContainer@@UAGJPBUtagRECT@@@Z 00475dfd f   nafxcwd:occcont.obj
 0001:00074e09       ?SetBorderSpace@XOleIPFrame@COleControlContainer@@UAGJPBUtagRECT@@@Z 00475e09 f   nafxcwd:occcont.obj
 0001:00074e15       ?SetActiveObject@XOleIPFrame@COleControlContainer@@UAGJPAUIOleInPlaceActiveObject@@PBG@Z 00475e15 f   nafxcwd:occcont.obj
 0001:00074e71       ?InsertMenus@XOleIPFrame@COleControlContainer@@UAGJPAUHMENU__@@PAUtagOleMenuGroupWidths@@@Z 00475e71 f   nafxcwd:occcont.obj
 0001:00074e7d       ?SetMenu@XOleIPFrame@COleControlContainer@@UAGJPAUHMENU__@@PAXPAUHWND__@@@Z 00475e7d f   nafxcwd:occcont.obj
 0001:00074e89       ?RemoveMenus@XOleIPFrame@COleControlContainer@@UAGJPAUHMENU__@@@Z 00475e89 f   nafxcwd:occcont.obj
 0001:00074e95       ?SetStatusText@XOleIPFrame@COleControlContainer@@UAGJPBG@Z 00475e95 f   nafxcwd:occcont.obj
 0001:00074ea1       ?EnableModeless@XOleIPFrame@COleControlContainer@@UAGJH@Z 00475ea1 f   nafxcwd:occcont.obj
 0001:00074eaa       ?TranslateAcceleratorA@XOleIPFrame@COleControlContainer@@UAGJPAUtagMSG@@G@Z 00475eaa f   nafxcwd:occcont.obj
 0001:00074eb6       ?GetInterfaceMap@CEnumUnknown@@MBEPBUAFX_INTERFACEMAP@@XZ 00475eb6 f   nafxcwd:occcont.obj
 0001:00074ec6       ??1CEnumUnknown@@UAE@XZ    00475ec6 f   nafxcwd:occcont.obj
 0001:00074f86       ?OnNext@CEnumUnknown@@MAEHPAX@Z 00475f86 f   nafxcwd:occcont.obj
 0001:00074fe4       ?QueryInterface@XOleContainer@COleControlContainer@@UAGJABU_GUID@@PAPAX@Z 00475fe4 f   nafxcwd:occcont.obj
 0001:00075007       ?Release@XOleContainer@COleControlContainer@@UAGKXZ 00476007 f   nafxcwd:occcont.obj
 0001:00075022       ?AddRef@XOleContainer@COleControlContainer@@UAGKXZ 00476022 f   nafxcwd:occcont.obj
 0001:0007503d       ?ParseDisplayName@XOleContainer@COleControlContainer@@UAGJPAUIBindCtx@@PAGPAKPAPAUIMoniker@@@Z 0047603d f   nafxcwd:occcont.obj
 0001:00075049       ?EnumObjects@XOleContainer@COleControlContainer@@UAGJKPAPAUIEnumUnknown@@@Z 00476049 f   nafxcwd:occcont.obj
 0001:00075322       ?LockContainer@XOleContainer@COleControlContainer@@UAGJH@Z 00476322 f   nafxcwd:occcont.obj
 0001:00075330       ??_GCOleControlContainer@@UAEPAXI@Z 00476330 f i nafxcwd:occcont.obj
 0001:00075330       ??_ECOleControlContainer@@UAEPAXI@Z 00476330 f i nafxcwd:occcont.obj
 0001:00075360       ??0XOleIPFrame@COleControlContainer@@QAE@XZ 00476360 f i nafxcwd:occcont.obj
 0001:00075380       ??0XOleContainer@COleControlContainer@@QAE@XZ 00476380 f i nafxcwd:occcont.obj
 0001:000753a0       ??0IOleInPlaceFrame@@QAE@XZ 004763a0 f i nafxcwd:occcont.obj
 0001:000753c0       ??0IOleContainer@@QAE@XZ   004763c0 f i nafxcwd:occcont.obj
 0001:000753e0       ??0IOleInPlaceUIWindow@@QAE@XZ 004763e0 f i nafxcwd:occcont.obj
 0001:00075400       ??0IParseDisplayName@@QAE@XZ 00476400 f i nafxcwd:occcont.obj
 0001:00075420       ??0IOleWindow@@QAE@XZ      00476420 f i nafxcwd:occcont.obj
 0001:00075440       ??0IUnknown@@QAE@XZ        00476440 f i nafxcwd:occcont.obj
 0001:00075450       ??_ECEnumUnknown@@UAEPAXI@Z 00476450 f i nafxcwd:occcont.obj
 0001:00075450       ??_GCEnumUnknown@@UAEPAXI@Z 00476450 f i nafxcwd:occcont.obj
 0001:00075480       ??0CEnumUnknown@@QAE@PBXI@Z 00476480 f i nafxcwd:occcont.obj
 0001:000754b0       ??9@YAHABU_GUID@@0@Z       004764b0 f i nafxcwd:oledisp1.obj
 0001:000754d0       ??8@YAHABU_GUID@@0@Z       004764d0 f i nafxcwd:oledisp1.obj
 0001:000754f0       ?AtlW2AHelper@@YGPADPADPBGH@Z 004764f0 f i nafxcwd:oledisp1.obj
 0001:00075510       ?AtlW2AHelper@@YGPADPADPBGHI@Z 00476510 f i nafxcwd:oledisp1.obj
 0001:000755a0       ?T2CA@@YAPBDPBD@Z          004765a0 f i nafxcwd:appcore.obj
 0001:000755b0       ?GetSize@CRecentFileList@@QBEHXZ 004765b0 f i nafxcwd:appcore.obj
 0001:000755d0       ??ACRecentFileList@@QAEAAVCString@@H@Z 004765d0 f i nafxcwd:appcore.obj
 0001:00075655       ?AfxEnableControlContainer@@YAXPAVCOccManager@@@Z 00476655 f   nafxcwd:occmgr.obj
 0001:00075689       ?_AfxFindFirstDlgItem@@YGPAUDLGITEMTEMPLATE@@PBUDLGTEMPLATE@@@Z 00476689 f   nafxcwd:occmgr.obj
 0001:000757a2       ?_AfxFindNextDlgItem@@YGPAUDLGITEMTEMPLATE@@PAU1@H@Z 004767a2 f   nafxcwd:occmgr.obj
 0001:0007584f       ?OnEvent@COccManager@@UAEHPAVCCmdTarget@@IPAUAFX_EVENT@@PAUAFX_CMDHANDLERINFO@@@Z 0047684f f   nafxcwd:occmgr.obj
 0001:00075870       ?CreateContainer@COccManager@@UAEPAVCOleControlContainer@@PAVCWnd@@@Z 00476870 f   nafxcwd:occmgr.obj
 0001:000758e7       ?CreateSite@COccManager@@UAEPAVCOleControlSite@@PAVCOleControlContainer@@@Z 004768e7 f   nafxcwd:occmgr.obj
 0001:00075961       ?PreCreateDialog@COccManager@@UAEPBUDLGTEMPLATE@@PAU_AFX_OCC_DIALOG_INFO@@PBU2@@Z 00476961 f   nafxcwd:occmgr.obj
 0001:00075a25       ?PostCreateDialog@COccManager@@UAEXPAU_AFX_OCC_DIALOG_INFO@@@Z 00476a25 f   nafxcwd:occmgr.obj
 0001:00075a5e       ?SplitDialogTemplate@COccManager@@UAEPAUDLGTEMPLATE@@PBU2@PAPAUDLGITEMTEMPLATE@@@Z 00476a5e f   nafxcwd:occmgr.obj
 0001:00075cc4       ?CreateDlgControls@COccManager@@UAEHPAVCWnd@@PBDPAU_AFX_OCC_DIALOG_INFO@@@Z 00476cc4 f   nafxcwd:occmgr.obj
 0001:00075e15       ?CreateDlgControls@COccManager@@UAEHPAVCWnd@@PAXPAU_AFX_OCC_DIALOG_INFO@@@Z 00476e15 f   nafxcwd:occmgr.obj
 0001:000761d1       ?BindControls@COccManager@@IAEXPAVCWnd@@@Z 004771d1 f   nafxcwd:occmgr.obj
 0001:00076417       ?CreateDlgControl@COccManager@@IAEPAUHWND__@@PAVCWnd@@PAU2@HPAUDLGITEMTEMPLATE@@GPAEK@Z 00477417 f   nafxcwd:occmgr.obj
 0001:00076a91       ?PrepareOleCtrl@CDataExchange@@QAEPAVCWnd@@H@Z 00477a91 f   nafxcwd:occmgr.obj
 0001:00076b60       ??1?$CProcessLocal@VCOccManager@@@@QAE@XZ 00477b60 f i nafxcwd:occmgr.obj
 0001:00076b80       ?GetData@?$CProcessLocal@VCOccManager@@@@QAEPAVCOccManager@@XZ 00477b80 f i nafxcwd:occmgr.obj
 0001:00076bd0       ?CreateObject@?$CProcessLocal@VCOccManager@@@@SGPAVCNoTrackObject@@XZ 00477bd0 f i nafxcwd:occmgr.obj
 0001:00076c40       ??0COccManager@@QAE@XZ     00477c40 f i nafxcwd:occmgr.obj
 0001:00076c60       ??_ECOccManager@@UAEPAXI@Z 00477c60 f i nafxcwd:occmgr.obj
 0001:00076c60       ??_GCOccManager@@UAEPAXI@Z 00477c60 f i nafxcwd:occmgr.obj
 0001:00076c90       ??1COccManager@@UAE@XZ     00477c90 f i nafxcwd:occmgr.obj
 0001:00076cb0       ??0CSimpleList@@QAE@H@Z    00477cb0 f i nafxcwd:afxstate.obj
 0001:00076ce0       ?Construct@CSimpleList@@QAEXH@Z 00477ce0 f i nafxcwd:afxstate.obj
 0001:00076d20       ??0CTypeLibCache@@QAE@XZ   00477d20 f i nafxcwd:afxstate.obj
 0001:00076d60       ??_GCHandleMap@@UAEPAXI@Z  00477d60 f i nafxcwd:winhand.obj
 0001:00076d60       ??_ECHandleMap@@UAEPAXI@Z  00477d60 f i nafxcwd:winhand.obj
 0001:00076d90       ??1CHandleMap@@UAE@XZ      00477d90 f i nafxcwd:winhand.obj
 0001:00076e00       ?GetNextPtr@CSimpleList@@QBEPAPAXPAX@Z 00477e00 f i nafxcwd:afxtls.obj
 0001:00076e40       ??2CThreadSlotData@@SGPAXIPAX@Z 00477e40 f i nafxcwd:afxtls.obj
 0001:00076e50       ??0CPushRoutingFrame@@QAE@PAVCFrameWnd@@@Z 00477e50 f i nafxcwd:winfrm.obj
 0001:00076e90       ??1CPushRoutingFrame@@QAE@XZ 00477e90 f i nafxcwd:winfrm.obj
 0001:00076eb0       ?GetInterfaceMap@COleControlSite@@MBEPBUAFX_INTERFACEMAP@@XZ 00477eb0 f   nafxcwd:occsite.obj
 0001:00076ec0       ??0COleControlSite@@QAE@PAVCOleControlContainer@@@Z 00477ec0 f   nafxcwd:occsite.obj
 0001:0007709b       ??1COleControlSite@@UAE@XZ 0047809b f   nafxcwd:occsite.obj
 0001:00077296       ?SetExtent@COleControlSite@@IAEHXZ 00478296 f   nafxcwd:occsite.obj
 0001:00077373       ?CreateControl@COleControlSite@@QAEJPAVCWnd@@ABU_GUID@@PBDKABUtagRECT@@IPAVCFile@@HPAG@Z 00478373 f   nafxcwd:occsite.obj
 0001:000773f8       ?CreateControl@COleControlSite@@QAEJPAVCWnd@@ABU_GUID@@PBDKPBUtagPOINT@@PBUtagSIZE@@IPAVCFile@@HPAG@Z 004783f8 f   nafxcwd:occsite.obj
 0001:0007789e       ?DestroyControl@COleControlSite@@UAEHXZ 0047889e f   nafxcwd:occsite.obj
 0001:00077929       ?_AfxCoCreateInstanceLic@@YGJABU_GUID@@PAUIUnknown@@K0PAPAXPAG@Z 00478929 f   nafxcwd:occsite.obj
 0001:00077a2c       ?QuickActivate@COleControlSite@@UAEHXZ 00478a2c f   nafxcwd:occsite.obj
 0001:00077ccf       ?CreateOrLoad@COleControlSite@@IAEJABU_GUID@@PAVCFile@@HPAG@Z 00478ccf f   nafxcwd:occsite.obj
 0001:00078485       ?GetID@COleControlSite@@QAEIXZ 00479485 f   nafxcwd:occsite.obj
 0001:00078496       ?DoVerb@COleControlSite@@UAEJJPAUtagMSG@@@Z 00479496 f   nafxcwd:occsite.obj
 0001:000784e2       ?IsDefaultButton@COleControlSite@@QAEHXZ 004794e2 f   nafxcwd:occsite.obj
 0001:0007851f       ?GetDefBtnCode@COleControlSite@@QAEKXZ 0047951f f   nafxcwd:occsite.obj
 0001:00078550       ?SetDefaultButton@COleControlSite@@QAEXH@Z 00479550 f   nafxcwd:occsite.obj
 0001:00078601       ?ConnectSink@COleControlSite@@IAEKABU_GUID@@PAUIUnknown@@@Z 00479601 f   nafxcwd:occsite.obj
 0001:00078701       ?DisconnectSink@COleControlSite@@IAEXABU_GUID@@K@Z 00479701 f   nafxcwd:occsite.obj
 0001:000787d3       ?GetEventIID@COleControlSite@@QAEHPAU_GUID@@@Z 004797d3 f   nafxcwd:occsite.obj
 0001:00078b57       ?GetControlInfo@COleControlSite@@QAEXXZ 00479b57 f   nafxcwd:occsite.obj
 0001:00078beb       ?IsMatchingMnemonic@COleControlSite@@QAEHPAUtagMSG@@@Z 00479beb f   nafxcwd:occsite.obj
 0001:00078d20       ?SendMnemonic@COleControlSite@@QAEXPAUtagMSG@@@Z 00479d20 f   nafxcwd:occsite.obj
 0001:00078db4       ?FreezeEvents@COleControlSite@@QAEXH@Z 00479db4 f   nafxcwd:occsite.obj
 0001:00078e2a       ?AttachWindow@COleControlSite@@IAEXXZ 00479e2a f   nafxcwd:occsite.obj
 0001:00078f1b       ?DetachWindow@COleControlSite@@IAEXXZ 00479f1b f   nafxcwd:occsite.obj
 0001:00078fc7       ?OnEvent@COleControlSite@@IAEHPAUAFX_EVENT@@@Z 00479fc7 f   nafxcwd:occsite.obj
 0001:0007902e       ?InvokeHelperV@COleControlSite@@UAEXJGGPAXPBEPAD@Z 0047a02e f   nafxcwd:occsite.obj
 0001:000790e6       ?SetPropertyV@COleControlSite@@UAEXJGPAD@Z 0047a0e6 f   nafxcwd:occsite.obj
 0001:0007919e       ?InvokeHelper@COleControlSite@@UAAXJGGPAXPBEZZ 0047a19e f   nafxcwd:occsite.obj
 0001:000791d8       ?GetProperty@COleControlSite@@UBEXJGPAX@Z 0047a1d8 f   nafxcwd:occsite.obj
 0001:00079205       ?SetProperty@COleControlSite@@UAAXJGZZ 0047a205 f   nafxcwd:occsite.obj
 0001:00079232       ?SafeSetProperty@COleControlSite@@UAAHJGZZ 0047a232 f   nafxcwd:occsite.obj
 0001:000792ea       ?GetStyle@COleControlSite@@UBEKXZ 0047a2ea f   nafxcwd:occsite.obj
 0001:00079433       ?GetExStyle@COleControlSite@@UBEKXZ 0047a433 f   nafxcwd:occsite.obj
 0001:000794f5       ?ModifyStyle@COleControlSite@@UAEHKKI@Z 0047a4f5 f   nafxcwd:occsite.obj
 0001:000795e1       ?ModifyStyleEx@COleControlSite@@UAEHKKI@Z 0047a5e1 f   nafxcwd:occsite.obj
 0001:00079655       ?SetWindowTextA@COleControlSite@@UAEXPBD@Z 0047a655 f   nafxcwd:occsite.obj
 0001:000796cb       ?GetWindowTextA@COleControlSite@@UBEXAAVCString@@@Z 0047a6cb f   nafxcwd:occsite.obj
 0001:000797f5       ?GetWindowTextA@COleControlSite@@UBEHPADH@Z 0047a7f5 f   nafxcwd:occsite.obj
 0001:000798a0       ?GetWindowTextLengthA@COleControlSite@@UBEHXZ 0047a8a0 f   nafxcwd:occsite.obj
 0001:0007990a       ?GetDlgCtrlID@COleControlSite@@UBEHXZ 0047a90a f   nafxcwd:occsite.obj
 0001:0007991b       ?SetDlgCtrlID@COleControlSite@@UAEHH@Z 0047a91b f   nafxcwd:occsite.obj
 0001:0007993f       ?MoveWindow@COleControlSite@@UAEXHHHHH@Z 0047a93f f   nafxcwd:occsite.obj
 0001:00079a62       ?SetWindowPos@COleControlSite@@UAEHPBVCWnd@@HHHHI@Z 0047aa62 f   nafxcwd:occsite.obj
 0001:00079b79       ?ShowWindow@COleControlSite@@UAEHH@Z 0047ab79 f   nafxcwd:occsite.obj
 0001:00079bf7       ?IsWindowEnabled@COleControlSite@@UBEHXZ 0047abf7 f   nafxcwd:occsite.obj
 0001:00079c96       ?EnableWindow@COleControlSite@@UAEHH@Z 0047ac96 f   nafxcwd:occsite.obj
 0001:00079d5d       ?SetFocus@COleControlSite@@UAEPAVCWnd@@XZ 0047ad5d f   nafxcwd:occsite.obj
 0001:00079da9       ?EnableDSC@COleControlSite@@UAEXXZ 0047ada9 f   nafxcwd:occsite.obj
 0001:00079e44       ?BindDefaultProperty@COleControlSite@@UAEXJGPBDPAVCWnd@@@Z 0047ae44 f   nafxcwd:occsite.obj
 0001:00079f94       ?BindProperty@COleControlSite@@UAEXJPAVCWnd@@@Z 0047af94 f   nafxcwd:occsite.obj
 0001:0007a1d1       ?AddRef@XOleClientSite@COleControlSite@@UAGKXZ 0047b1d1 f   nafxcwd:occsite.obj
 0001:0007a1ee       ?Release@XOleClientSite@COleControlSite@@UAGKXZ 0047b1ee f   nafxcwd:occsite.obj
 0001:0007a20b       ?QueryInterface@XOleClientSite@COleControlSite@@UAGJABU_GUID@@PAPAX@Z 0047b20b f   nafxcwd:occsite.obj
 0001:0007a230       ?SaveObject@XOleClientSite@COleControlSite@@UAGJXZ 0047b230 f   nafxcwd:occsite.obj
 0001:0007a23c       ?GetMoniker@XOleClientSite@COleControlSite@@UAGJKKPAPAUIMoniker@@@Z 0047b23c f   nafxcwd:occsite.obj
 0001:0007a248       ?GetContainer@XOleClientSite@COleControlSite@@UAGJPAPAUIOleContainer@@@Z 0047b248 f   nafxcwd:occsite.obj
 0001:0007a271       ?ShowObject@XOleClientSite@COleControlSite@@UAGJXZ 0047b271 f   nafxcwd:occsite.obj
 0001:0007a290       ?OnShowWindow@XOleClientSite@COleControlSite@@UAGJH@Z 0047b290 f   nafxcwd:occsite.obj
 0001:0007a299       ?RequestNewObjectLayout@XOleClientSite@COleControlSite@@UAGJXZ 0047b299 f   nafxcwd:occsite.obj
 0001:0007a2a5       ?AddRef@XOleIPSite@COleControlSite@@UAGKXZ 0047b2a5 f   nafxcwd:occsite.obj
 0001:0007a2c2       ?Release@XOleIPSite@COleControlSite@@UAGKXZ 0047b2c2 f   nafxcwd:occsite.obj
 0001:0007a2df       ?QueryInterface@XOleIPSite@COleControlSite@@UAGJABU_GUID@@PAPAX@Z 0047b2df f   nafxcwd:occsite.obj
 0001:0007a304       ?GetWindow@XOleIPSite@COleControlSite@@UAGJPAPAUHWND__@@@Z 0047b304 f   nafxcwd:occsite.obj
 0001:0007a33f       ?ContextSensitiveHelp@XOleIPSite@COleControlSite@@UAGJH@Z 0047b33f f   nafxcwd:occsite.obj
 0001:0007a34b       ?CanInPlaceActivate@XOleIPSite@COleControlSite@@UAGJXZ 0047b34b f   nafxcwd:occsite.obj
 0001:0007a354       ?OnInPlaceActivate@XOleIPSite@COleControlSite@@UAGJXZ 0047b354 f   nafxcwd:occsite.obj
 0001:0007a35d       ?OnUIActivate@XOleIPSite@COleControlSite@@UAGJXZ 0047b35d f   nafxcwd:occsite.obj
 0001:0007a389       ?GetWindowContext@XOleIPSite@COleControlSite@@UAGJPAPAUIOleInPlaceFrame@@PAPAUIOleInPlaceUIWindow@@PAUtagRECT@@2PAUtagOIFI@@@Z 0047b389 f   nafxcwd:occsite.obj
 0001:0007a540       ?Scroll@XOleIPSite@COleControlSite@@UAGJUtagSIZE@@@Z 0047b540 f   nafxcwd:occsite.obj
 0001:0007a54c       ?OnUIDeactivate@XOleIPSite@COleControlSite@@UAGJH@Z 0047b54c f   nafxcwd:occsite.obj
 0001:0007a578       ?OnInPlaceDeactivate@XOleIPSite@COleControlSite@@UAGJXZ 0047b578 f   nafxcwd:occsite.obj
 0001:0007a597       ?DiscardUndoState@XOleIPSite@COleControlSite@@UAGJXZ 0047b597 f   nafxcwd:occsite.obj
 0001:0007a5a0       ?DeactivateAndUndo@XOleIPSite@COleControlSite@@UAGJXZ 0047b5a0 f   nafxcwd:occsite.obj
 0001:0007a5c9       ?OnPosRectChange@XOleIPSite@COleControlSite@@UAGJPBUtagRECT@@@Z 0047b5c9 f   nafxcwd:occsite.obj
 0001:0007a64f       ?AddRef@XOleControlSite@COleControlSite@@UAGKXZ 0047b64f f   nafxcwd:occsite.obj
 0001:0007a66c       ?Release@XOleControlSite@COleControlSite@@UAGKXZ 0047b66c f   nafxcwd:occsite.obj
 0001:0007a689       ?QueryInterface@XOleControlSite@COleControlSite@@UAGJABU_GUID@@PAPAX@Z 0047b689 f   nafxcwd:occsite.obj
 0001:0007a6ae       ?OnControlInfoChanged@XOleControlSite@COleControlSite@@UAGJXZ 0047b6ae f   nafxcwd:occsite.obj
 0001:0007a6cd       ?LockInPlaceActive@XOleControlSite@COleControlSite@@UAGJH@Z 0047b6cd f   nafxcwd:occsite.obj
 0001:0007a6d9       ?GetExtendedControl@XOleControlSite@COleControlSite@@UAGJPAPAUIDispatch@@@Z 0047b6d9 f   nafxcwd:occsite.obj
 0001:0007a6e5       ?TransformCoords@XOleControlSite@COleControlSite@@UAGJPAU_POINTL@@PAUtagPOINTF@@K@Z 0047b6e5 f   nafxcwd:occsite.obj
 0001:0007a849       ?TranslateAcceleratorA@XOleControlSite@COleControlSite@@UAGJPAUtagMSG@@K@Z 0047b849 f   nafxcwd:occsite.obj
 0001:0007a855       ?OnFocus@XOleControlSite@COleControlSite@@UAGJH@Z 0047b855 f   nafxcwd:occsite.obj
 0001:0007a85e       ?ShowPropertyFrame@XOleControlSite@COleControlSite@@UAGJXZ 0047b85e f   nafxcwd:occsite.obj
 0001:0007a86a       ?AddRef@XAmbientProps@COleControlSite@@UAGKXZ 0047b86a f   nafxcwd:occsite.obj
 0001:0007a887       ?Release@XAmbientProps@COleControlSite@@UAGKXZ 0047b887 f   nafxcwd:occsite.obj
 0001:0007a8a4       ?QueryInterface@XAmbientProps@COleControlSite@@UAGJABU_GUID@@PAPAX@Z 0047b8a4 f   nafxcwd:occsite.obj
 0001:0007a8c9       ?GetTypeInfoCount@XAmbientProps@COleControlSite@@UAGJPAI@Z 0047b8c9 f   nafxcwd:occsite.obj
 0001:0007a8d5       ?GetTypeInfo@XAmbientProps@COleControlSite@@UAGJIKPAPAUITypeInfo@@@Z 0047b8d5 f   nafxcwd:occsite.obj
 0001:0007a8e1       ?GetIDsOfNames@XAmbientProps@COleControlSite@@UAGJABU_GUID@@PAPAGIKPAJ@Z 0047b8e1 f   nafxcwd:occsite.obj
 0001:0007a8ed       ?Invoke@XAmbientProps@COleControlSite@@UAGJJABU_GUID@@KGPAUtagDISPPARAMS@@PAUtagVARIANT@@PAUtagEXCEPINFO@@PAI@Z 0047b8ed f   nafxcwd:occsite.obj
 0001:0007a9d2       ?QueryInterface@XPropertyNotifySink@COleControlSite@@UAGJABU_GUID@@PAPAX@Z 0047b9d2 f   nafxcwd:occsite.obj
 0001:0007aa2e       ?AddRef@XPropertyNotifySink@COleControlSite@@UAGKXZ 0047ba2e f   nafxcwd:occsite.obj
 0001:0007aa3a       ?Release@XPropertyNotifySink@COleControlSite@@UAGKXZ 0047ba3a f   nafxcwd:occsite.obj
 0001:0007aa43       ?OnChanged@XPropertyNotifySink@COleControlSite@@UAGJJ@Z 0047ba43 f   nafxcwd:occsite.obj
 0001:0007aba1       ?OnRequestEdit@XPropertyNotifySink@COleControlSite@@UAGJJ@Z 0047bba1 f   nafxcwd:occsite.obj
 0001:0007ac01       ?AddRef@XEventSink@COleControlSite@@UAGKXZ 0047bc01 f   nafxcwd:occsite.obj
 0001:0007ac0d       ?Release@XEventSink@COleControlSite@@UAGKXZ 0047bc0d f   nafxcwd:occsite.obj
 0001:0007ac16       ?QueryInterface@XEventSink@COleControlSite@@UAGJABU_GUID@@PAPAX@Z 0047bc16 f   nafxcwd:occsite.obj
 0001:0007ac89       ?GetTypeInfoCount@XEventSink@COleControlSite@@UAGJPAI@Z 0047bc89 f   nafxcwd:occsite.obj
 0001:0007ac95       ?GetTypeInfo@XEventSink@COleControlSite@@UAGJIKPAPAUITypeInfo@@@Z 0047bc95 f   nafxcwd:occsite.obj
 0001:0007aca1       ?GetIDsOfNames@XEventSink@COleControlSite@@UAGJABU_GUID@@PAPAGIKPAJ@Z 0047bca1 f   nafxcwd:occsite.obj
 0001:0007acad       ?Invoke@XEventSink@COleControlSite@@UAGJJABU_GUID@@KGPAUtagDISPPARAMS@@PAUtagVARIANT@@PAUtagEXCEPINFO@@PAI@Z 0047bcad f   nafxcwd:occsite.obj
 0001:0007ad73       ??0CDataSourceControl@@QAE@PAVCOleControlSite@@@Z 0047bd73 f   nafxcwd:occsite.obj
 0001:0007ae81       ??1CDataSourceControl@@QAE@XZ 0047be81 f   nafxcwd:occsite.obj
 0001:0007b245       ?Initialize@CDataSourceControl@@QAEJXZ 0047c245 f   nafxcwd:occsite.obj
 0001:0007b463       ?GetCursor@CDataSourceControl@@UAEPAUIUnknown@@XZ 0047c463 f   nafxcwd:occsite.obj
 0001:0007b566       ?GetMetaData@CDataSourceControl@@QAEJXZ 0047c566 f   nafxcwd:occsite.obj
 0001:0007bc21       ?CopyColumnID@CDataSourceControl@@QAEHPAUtagDBCOLUMNID@@PBU2@@Z 0047cc21 f   nafxcwd:occsite.obj
 0001:0007bcea       ?BindProp@CDataSourceControl@@UAEXPAVCOleControlSite@@H@Z 0047ccea f   nafxcwd:occsite.obj
 0001:0007bf44       ?BindProp@CDataSourceControl@@UAEXPAVCDataBoundProperty@@H@Z 0047cf44 f   nafxcwd:occsite.obj
 0001:0007bfd5       ?BindColumns@CDataSourceControl@@UAEXXZ 0047cfd5 f   nafxcwd:occsite.obj
 0001:0007c2d6       ?GetBoundClientRow@CDataSourceControl@@QAEJXZ 0047d2d6 f   nafxcwd:occsite.obj
 0001:0007c37e       ?ToVariant@CDataSourceControl@@QAE?AVCOleVariant@@H@Z 0047d37e f   nafxcwd:occsite.obj
 0001:0007ccfc       ?UpdateControls@CDataSourceControl@@UAEJXZ 0047dcfc f   nafxcwd:occsite.obj
 0001:0007cf4a       ?UpdateCursor@CDataSourceControl@@UAEJXZ 0047df4a f   nafxcwd:occsite.obj
 0001:0007db32       ??0CDataBoundProperty@@QAE@PAV0@JG@Z 0047eb32 f   nafxcwd:occsite.obj
 0001:0007db7c       ?SetClientSite@CDataBoundProperty@@QAEXPAVCOleControlSite@@@Z 0047eb7c f   nafxcwd:occsite.obj
 0001:0007db91       ?SetDSCSite@CDataBoundProperty@@QAEXPAVCOleControlSite@@@Z 0047eb91 f   nafxcwd:occsite.obj
 0001:0007dbbc       ?GetNext@CDataBoundProperty@@QAEPAV1@XZ 0047ebbc f   nafxcwd:occsite.obj
 0001:0007dbcd       ?RemoveSource@CDataBoundProperty@@QAEXXZ 0047ebcd f   nafxcwd:occsite.obj
 0001:0007dbea       ?Notify@CDataBoundProperty@@QAEXXZ 0047ebea f   nafxcwd:occsite.obj
 0001:0007dcbe       ?GetCursor@CDataBoundProperty@@QAEPAUIUnknown@@XZ 0047ecbe f   nafxcwd:occsite.obj
 0001:0007dd58       ?GetCursor@COleControlSite@@IAEJJPAPAUIUnknown@@PAPAX@Z 0047ed58 f   nafxcwd:occsite.obj
 0001:0007ddb3       ?AddRef@XBoundObjectSite@COleControlSite@@UAGKXZ 0047edb3 f   nafxcwd:occsite.obj
 0001:0007ddd0       ?Release@XBoundObjectSite@COleControlSite@@UAGKXZ 0047edd0 f   nafxcwd:occsite.obj
 0001:0007dded       ?QueryInterface@XBoundObjectSite@COleControlSite@@UAGJABU_GUID@@PAPAX@Z 0047eded f   nafxcwd:occsite.obj
 0001:0007de12       ?GetCursor@XBoundObjectSite@COleControlSite@@UAGJJPAPAUICursor@@PAPAX@Z 0047ee12 f   nafxcwd:occsite.obj
 0001:0007de3b       ?AddRef@XNotifyDBEvents@COleControlSite@@UAGKXZ 0047ee3b f   nafxcwd:occsite.obj
 0001:0007de47       ?Release@XNotifyDBEvents@COleControlSite@@UAGKXZ 0047ee47 f   nafxcwd:occsite.obj
 0001:0007de50       ?QueryInterface@XNotifyDBEvents@COleControlSite@@UAGJABU_GUID@@PAPAX@Z 0047ee50 f   nafxcwd:occsite.obj
 0001:0007deac       ?OKToDo@XNotifyDBEvents@COleControlSite@@UAGJKKQAUtagDBNOTIFYREASON@@@Z 0047eeac f   nafxcwd:occsite.obj
 0001:0007df5a       ?Cancelled@XNotifyDBEvents@COleControlSite@@UAGJKKQAUtagDBNOTIFYREASON@@@Z 0047ef5a f   nafxcwd:occsite.obj
 0001:0007df97       ?SyncBefore@XNotifyDBEvents@COleControlSite@@UAGJKKQAUtagDBNOTIFYREASON@@@Z 0047ef97 f   nafxcwd:occsite.obj
 0001:0007e020       ?AboutToDo@XNotifyDBEvents@COleControlSite@@UAGJKKQAUtagDBNOTIFYREASON@@@Z 0047f020 f   nafxcwd:occsite.obj
 0001:0007e05d       ?FailedToDo@XNotifyDBEvents@COleControlSite@@UAGJKKQAUtagDBNOTIFYREASON@@@Z 0047f05d f   nafxcwd:occsite.obj
 0001:0007e09a       ?SyncAfter@XNotifyDBEvents@COleControlSite@@UAGJKKQAUtagDBNOTIFYREASON@@@Z 0047f09a f   nafxcwd:occsite.obj
 0001:0007e15a       ?DidEvent@XNotifyDBEvents@COleControlSite@@UAGJKKQAUtagDBNOTIFYREASON@@@Z 0047f15a f   nafxcwd:occsite.obj
 0001:0007e1e8       ?FireEvent@XNotifyDBEvents@COleControlSite@@QAEJKKQAUtagDBNOTIFYREASON@@W4DSCSTATE@@@Z 0047f1e8 f   nafxcwd:occsite.obj
 0001:0007e323       ?AddRef@XRowsetNotify@COleControlSite@@UAGKXZ 0047f323 f   nafxcwd:occsite.obj
 0001:0007e32f       ?Release@XRowsetNotify@COleControlSite@@UAGKXZ 0047f32f f   nafxcwd:occsite.obj
 0001:0007e338       ?QueryInterface@XRowsetNotify@COleControlSite@@UAGJABU_GUID@@PAPAX@Z 0047f338 f   nafxcwd:occsite.obj
 0001:0007e394       ?OnFieldChange@XRowsetNotify@COleControlSite@@UAGJPAUIRowset@@KKQAKKKH@Z 0047f394 f   nafxcwd:occsite.obj
 0001:0007e4ad       ?OnRowChange@XRowsetNotify@COleControlSite@@UAGJPAUIRowset@@KQBKKKH@Z 0047f4ad f   nafxcwd:occsite.obj
 0001:0007e694       ?OnRowsetChange@XRowsetNotify@COleControlSite@@UAGJPAUIRowset@@KKH@Z 0047f694 f   nafxcwd:occsite.obj
 0001:0007e7e0       ??_ECOleControlSite@@UAEPAXI@Z 0047f7e0 f i nafxcwd:occsite.obj
 0001:0007e7e0       ??_GCOleControlSite@@UAEPAXI@Z 0047f7e0 f i nafxcwd:occsite.obj
 0001:0007e810       ??0XOleClientSite@COleControlSite@@QAE@XZ 0047f810 f i nafxcwd:occsite.obj
 0001:0007e830       ??0XOleIPSite@COleControlSite@@QAE@XZ 0047f830 f i nafxcwd:occsite.obj
 0001:0007e850       ??0XOleControlSite@COleControlSite@@QAE@XZ 0047f850 f i nafxcwd:occsite.obj
 0001:0007e870       ??0XAmbientProps@COleControlSite@@QAE@XZ 0047f870 f i nafxcwd:occsite.obj
 0001:0007e890       ??0XPropertyNotifySink@COleControlSite@@QAE@XZ 0047f890 f i nafxcwd:occsite.obj
 0001:0007e8b0       ??0XEventSink@COleControlSite@@QAE@XZ 0047f8b0 f i nafxcwd:occsite.obj
 0001:0007e8d0       ??0XBoundObjectSite@COleControlSite@@QAE@XZ 0047f8d0 f i nafxcwd:occsite.obj
 0001:0007e8f0       ??0XNotifyDBEvents@COleControlSite@@QAE@XZ 0047f8f0 f i nafxcwd:occsite.obj
 0001:0007e910       ??0XRowsetNotify@COleControlSite@@QAE@XZ 0047f910 f i nafxcwd:occsite.obj
 0001:0007e930       ??0IOleClientSite@@QAE@XZ  0047f930 f i nafxcwd:occsite.obj
 0001:0007e950       ??0IOleInPlaceSite@@QAE@XZ 0047f950 f i nafxcwd:occsite.obj
 0001:0007e970       ??0IOleControlSite@@QAE@XZ 0047f970 f i nafxcwd:occsite.obj
 0001:0007e990       ??0IPropertyNotifySink@@QAE@XZ 0047f990 f i nafxcwd:occsite.obj
 0001:0007e9b0       ??0IBoundObjectSite@@QAE@XZ 0047f9b0 f i nafxcwd:occsite.obj
 0001:0007e9d0       ??0INotifyDBEvents@@QAE@XZ 0047f9d0 f i nafxcwd:occsite.obj
 0001:0007e9f0       ??0IRowsetNotify@@QAE@XZ   0047f9f0 f i nafxcwd:occsite.obj
 0001:0007ea10       ??_GCDataSourceControl@@QAEPAXI@Z 0047fa10 f i nafxcwd:occsite.obj
 0001:0007ea40       ??_GCDataBoundProperty@@QAEPAXI@Z 0047fa40 f i nafxcwd:occsite.obj
 0001:0007ea70       ??1CDataBoundProperty@@QAE@XZ 0047fa70 f i nafxcwd:occsite.obj
 0001:0007ea80       ??0AFX_EVENT@@QAE@HJPAUtagDISPPARAMS@@PAUtagEXCEPINFO@@PAI@Z 0047fa80 f i nafxcwd:occsite.obj
 0001:0007eae0       ?ReleaseAccessors@CAccessorBase@ATL@@QAEJPAUIUnknown@@@Z 0047fae0 f i nafxcwd:occsite.obj
 0001:0007ec40       ?Close@CDynamicAccessor@ATL@@QAEXXZ 0047fc40 f i nafxcwd:occsite.obj
 0001:0007ecc0       ?Close@CAccessorBase@ATL@@QAEXXZ 0047fcc0 f i nafxcwd:occsite.obj
 0001:0007ed30       ??_GCDynamicAccessor@ATL@@QAEPAXI@Z 0047fd30 f i nafxcwd:occsite.obj
 0001:0007ed60       ??1CDynamicAccessor@ATL@@QAE@XZ 0047fd60 f i nafxcwd:occsite.obj
 0001:0007ed80       ??_GCRowset@ATL@@QAEPAXI@Z 0047fd80 f i nafxcwd:occsite.obj
 0001:0007edb0       ??1CRowset@ATL@@QAE@XZ     0047fdb0 f i nafxcwd:occsite.obj
 0001:0007ee10       ?Close@CRowset@ATL@@QAEXXZ 0047fe10 f i nafxcwd:occsite.obj
 0001:0007ee50       ?ReleaseRows@CRowset@ATL@@QAEJXZ 0047fe50 f i nafxcwd:occsite.obj
 0001:0007eee0       ??0CRowset@ATL@@QAE@PAUIRowset@@@Z 0047fee0 f i nafxcwd:occsite.obj
 0001:0007ef60       ??0CRowset@ATL@@QAE@XZ     0047ff60 f i nafxcwd:occsite.obj
 0001:0007efd0       ?MoveFirst@CRowset@ATL@@QAEJXZ 0047ffd0 f i nafxcwd:occsite.obj
 0001:0007f080       ?MoveNext@CRowset@ATL@@QAEJXZ 00480080 f i nafxcwd:occsite.obj
 0001:0007f0a0       ?MoveNext@CRowset@ATL@@QAEJJ_N@Z 004800a0 f i nafxcwd:occsite.obj
 0001:0007f1b0       ?AtlTrace2@ATL@@YAXKIPBDZZ 004801b0 f i nafxcwd:occsite.obj
 0001:0007f260       ?GetData@CRowset@ATL@@QAEJXZ 00480260 f i nafxcwd:occsite.obj
 0001:0007f310       ?GetNumAccessors@CAccessorBase@ATL@@QBEKXZ 00480310 f i nafxcwd:occsite.obj
 0001:0007f330       ?IsAutoAccessor@CAccessorBase@ATL@@QBE_NK@Z 00480330 f i nafxcwd:occsite.obj
 0001:0007f3b0       ?GetData@CRowset@ATL@@QAEJH@Z 004803b0 f i nafxcwd:occsite.obj
 0001:0007f4a0       ?GetHAccessor@CAccessorBase@ATL@@QBEKK@Z 004804a0 f i nafxcwd:occsite.obj
 0001:0007f4f0       ?GetBuffer@CAccessorBase@ATL@@QBEPAEXZ 004804f0 f i nafxcwd:occsite.obj
 0001:0007f510       ?SetupOptionalRowsetInterfaces@CRowset@ATL@@QAEXXZ 00480510 f i nafxcwd:occsite.obj
 0001:0007f550       ?SetAccessor@CRowset@ATL@@QAEXPAVCAccessorBase@2@@Z 00480550 f i nafxcwd:occsite.obj
 0001:0007f570       ??0CDynamicAccessor@ATL@@QAE@XZ 00480570 f i nafxcwd:occsite.obj
 0001:0007f5b0       ??0CAccessorBase@ATL@@QAE@XZ 004805b0 f i nafxcwd:occsite.obj
 0001:0007f5e0       ?GetColumnCount@CDynamicAccessor@ATL@@QBEKXZ 004805e0 f i nafxcwd:occsite.obj
 0001:0007f600       ?BindColumns@CDynamicAccessor@ATL@@QAEJPAUIUnknown@@@Z 00480600 f i nafxcwd:occsite.obj
 0001:0007fb50       ?AllocateAccessorMemory@CAccessorBase@ATL@@QAEJH@Z 00480b50 f i nafxcwd:occsite.obj
 0001:0007fc10       ?BindEntries@CAccessorBase@ATL@@SAJPAUtagDBBINDING@@HPAKKPAUIAccessor@@@Z 00480c10 f i nafxcwd:occsite.obj
 0001:0007fdf0       ?Bind@CAccessorBase@ATL@@SAXPAUtagDBBINDING@@KGKEEKKKKPAUtagDBOBJECT@@@Z 00480df0 f i nafxcwd:occsite.obj
 0001:0007ff20       ?AddOffset@CDynamicAccessor@ATL@@SAKKK@Z 00480f20 f i nafxcwd:occsite.obj
 0001:0007ff50       ?GetColumnName@CDynamicAccessor@ATL@@QBEPAGK@Z 00480f50 f i nafxcwd:occsite.obj
 0001:0007ff90       ?TranslateColumnNo@CDynamicAccessor@ATL@@QBE_NAAK@Z 00480f90 f i nafxcwd:occsite.obj
 0001:00080060       ?GetColumnType@CDynamicAccessor@ATL@@QBE_NKPAG@Z 00481060 f i nafxcwd:occsite.obj
 0001:000800a0       ?GetValue@CDynamicAccessor@ATL@@QBEPAXK@Z 004810a0 f i nafxcwd:occsite.obj
 0001:000800e0       ?GetStatus@CDynamicAccessor@ATL@@QBE_NKPAK@Z 004810e0 f i nafxcwd:occsite.obj
 0001:00080180       ?_GetDataPtr@CDynamicAccessor@ATL@@QBEPAXK@Z 00481180 f i nafxcwd:occsite.obj
 0001:000801b0       ?SetData@CRowset@ATL@@QBEJXZ 004811b0 f i nafxcwd:occsite.obj
 0001:00080250       ?SetData@CRowset@ATL@@QBEJH@Z 00481250 f i nafxcwd:occsite.obj
 0001:000802f0       ??0CManualAccessor@ATL@@QAE@XZ 004812f0 f i nafxcwd:occsite.obj
 0001:00080330       ??1CManualAccessor@ATL@@QAE@XZ 00481330 f i nafxcwd:occsite.obj
 0001:00080370       ?CreateAccessor@CManualAccessor@ATL@@QAEJHPAXK@Z 00481370 f i nafxcwd:occsite.obj
 0001:00080440       ?AddBindEntry@CManualAccessor@ATL@@QAEXKGKPAX00@Z 00481440 f i nafxcwd:occsite.obj
 0001:00080510       ?BindColumns@CManualAccessor@ATL@@QAEJPAUIUnknown@@@Z 00481510 f i nafxcwd:occsite.obj
 0001:00080640       ??0AFX_EVENT@@QAE@H@Z      00481640 f i nafxcwd:occsite.obj
 0001:000806a0       ??0?$CComPtr@UIAccessor@@@ATL@@QAE@XZ 004816a0 f i nafxcwd:occsite.obj
 0001:000806c0       ??1?$CComPtr@UIAccessor@@@ATL@@QAE@XZ 004816c0 f i nafxcwd:occsite.obj
 0001:000806f0       ??B?$CComPtr@UIAccessor@@@ATL@@QBEPAUIAccessor@@XZ 004816f0 f i nafxcwd:occsite.obj
 0001:00080700       ??I?$CComPtr@UIAccessor@@@ATL@@QAEPAPAUIAccessor@@XZ 00481700 f i nafxcwd:occsite.obj
 0001:00080750       ??C?$CComPtr@UIAccessor@@@ATL@@QBEPAV?$_NoAddRefReleaseOnCComPtr@UIAccessor@@@1@XZ 00481750 f i nafxcwd:occsite.obj
 0001:000807a0       ??0?$CComPtr@UIRowset@@@ATL@@QAE@XZ 004817a0 f i nafxcwd:occsite.obj
 0001:000807c0       ??1?$CComPtr@UIRowset@@@ATL@@QAE@XZ 004817c0 f i nafxcwd:occsite.obj
 0001:000807f0       ?Release@?$CComPtr@UIRowset@@@ATL@@QAEXXZ 004817f0 f i nafxcwd:occsite.obj
 0001:00080820       ??B?$CComPtr@UIRowset@@@ATL@@QBEPAUIRowset@@XZ 00481820 f i nafxcwd:occsite.obj
 0001:00080830       ??C?$CComPtr@UIRowset@@@ATL@@QBEPAV?$_NoAddRefReleaseOnCComPtr@UIRowset@@@1@XZ 00481830 f i nafxcwd:occsite.obj
 0001:00080880       ??4?$CComPtr@UIRowset@@@ATL@@QAEPAUIRowset@@PAU2@@Z 00481880 f i nafxcwd:occsite.obj
 0001:000808a0       ?AtlComPtrAssign@ATL@@YGPAUIUnknown@@PAPAU2@PAU2@@Z 004818a0 f i nafxcwd:occsite.obj
 0001:000808e0       ??0?$CComPtr@UIRowsetChange@@@ATL@@QAE@XZ 004818e0 f i nafxcwd:occsite.obj
 0001:00080900       ??1?$CComPtr@UIRowsetChange@@@ATL@@QAE@XZ 00481900 f i nafxcwd:occsite.obj
 0001:00080930       ?Release@?$CComPtr@UIRowsetChange@@@ATL@@QAEXXZ 00481930 f i nafxcwd:occsite.obj
 0001:00080960       ??B?$CComPtr@UIRowsetChange@@@ATL@@QBEPAUIRowsetChange@@XZ 00481960 f i nafxcwd:occsite.obj
 0001:00080970       ??I?$CComPtr@UIRowsetChange@@@ATL@@QAEPAPAUIRowsetChange@@XZ 00481970 f i nafxcwd:occsite.obj
 0001:000809c0       ??C?$CComPtr@UIRowsetChange@@@ATL@@QBEPAV?$_NoAddRefReleaseOnCComPtr@UIRowsetChange@@@1@XZ 004819c0 f i nafxcwd:occsite.obj
 0001:00080a10       ??0?$CComPtr@UIColumnsInfo@@@ATL@@QAE@XZ 00481a10 f i nafxcwd:occsite.obj
 0001:00080a30       ??1?$CComPtr@UIColumnsInfo@@@ATL@@QAE@XZ 00481a30 f i nafxcwd:occsite.obj
 0001:00080a60       ??I?$CComPtr@UIColumnsInfo@@@ATL@@QAEPAPAUIColumnsInfo@@XZ 00481a60 f i nafxcwd:occsite.obj
 0001:00080ab0       ??C?$CComPtr@UIColumnsInfo@@@ATL@@QBEPAV?$_NoAddRefReleaseOnCComPtr@UIColumnsInfo@@@1@XZ 00481ab0 f i nafxcwd:occsite.obj
 0001:00080b00       ?QueryInterface@IUnknown@@QAGJPAPAUIRowsetChange@@@Z 00481b00 f i nafxcwd:occsite.obj
 0001:00080b20       ?QueryInterface@IUnknown@@QAGJPAPAUIColumnsInfo@@@Z 00481b20 f i nafxcwd:occsite.obj
 0001:00080b40       ?QueryInterface@IUnknown@@QAGJPAPAUIAccessor@@@Z 00481b40 f i nafxcwd:occsite.obj
 0001:00080b60       ?GetValue@CDynamicAccessor@ATL@@QBE_NKPAUtagDB_NUMERIC@@@Z 00481b60 f i nafxcwd:occsite.obj
 0001:00080ba0       ?GetValue@CDynamicAccessor@ATL@@QBE_NKPAUtagDBDATE@@@Z 00481ba0 f i nafxcwd:occsite.obj
 0001:00080be0       ?GetValue@CDynamicAccessor@ATL@@QBE_NKPAUtagDBTIME@@@Z 00481be0 f i nafxcwd:occsite.obj
 0001:00080c20       ?GetValue@CDynamicAccessor@ATL@@QBE_NKPAUtagDBTIMESTAMP@@@Z 00481c20 f i nafxcwd:occsite.obj
 0001:00080c60       ?SetValue@CDynamicAccessor@ATL@@QAE_NKABF@Z 00481c60 f i nafxcwd:occsite.obj
 0001:00080ca0       ?SetValue@CDynamicAccessor@ATL@@QAE_NKABJ@Z 00481ca0 f i nafxcwd:occsite.obj
 0001:00080ce0       ?SetValue@CDynamicAccessor@ATL@@QAE_NKABM@Z 00481ce0 f i nafxcwd:occsite.obj
 0001:00080d20       ?SetValue@CDynamicAccessor@ATL@@QAE_NKABN@Z 00481d20 f i nafxcwd:occsite.obj
 0001:00080d60       ?SetValue@CDynamicAccessor@ATL@@QAE_NKABUtagDEC@@@Z 00481d60 f i nafxcwd:occsite.obj
 0001:00080da0       ?SetValue@CDynamicAccessor@ATL@@QAE_NKABE@Z 00481da0 f i nafxcwd:occsite.obj
 0001:00080de0       ?SetValue@CDynamicAccessor@ATL@@QAE_NKABC@Z 00481de0 f i nafxcwd:occsite.obj
 0001:00080e20       ?SetValue@CDynamicAccessor@ATL@@QAE_NKABG@Z 00481e20 f i nafxcwd:occsite.obj
 0001:00080e60       ?SetValue@CDynamicAccessor@ATL@@QAE_NKABK@Z 00481e60 f i nafxcwd:occsite.obj
 0001:00080ea0       ?SetValue@CDynamicAccessor@ATL@@QAE_NKABUtagDBTIMESTAMP@@@Z 00481ea0 f i nafxcwd:occsite.obj
 0001:00080ee0       ?_GetValue@CDynamicAccessor@ATL@@QBEXKPAUtagDB_NUMERIC@@@Z 00481ee0 f i nafxcwd:occsite.obj
 0001:00080fa0       ?_GetValue@CDynamicAccessor@ATL@@QBEXKPAUtagDBDATE@@@Z 00481fa0 f i nafxcwd:occsite.obj
 0001:00081040       ?_GetValue@CDynamicAccessor@ATL@@QBEXKPAUtagDBTIME@@@Z 00482040 f i nafxcwd:occsite.obj
 0001:000810e0       ?_GetValue@CDynamicAccessor@ATL@@QBEXKPAUtagDBTIMESTAMP@@@Z 004820e0 f i nafxcwd:occsite.obj
 0001:00081190       ?_SetValue@CDynamicAccessor@ATL@@QAEXKABF@Z 00482190 f i nafxcwd:occsite.obj
 0001:00081200       ?_SetValue@CDynamicAccessor@ATL@@QAEXKABJ@Z 00482200 f i nafxcwd:occsite.obj
 0001:00081270       ?_SetValue@CDynamicAccessor@ATL@@QAEXKABM@Z 00482270 f i nafxcwd:occsite.obj
 0001:000812e0       ?_SetValue@CDynamicAccessor@ATL@@QAEXKABN@Z 004822e0 f i nafxcwd:occsite.obj
 0001:00081350       ?_SetValue@CDynamicAccessor@ATL@@QAEXKABUtagDEC@@@Z 00482350 f i nafxcwd:occsite.obj
 0001:000813f0       ?_SetValue@CDynamicAccessor@ATL@@QAEXKABE@Z 004823f0 f i nafxcwd:occsite.obj
 0001:00081460       ?_SetValue@CDynamicAccessor@ATL@@QAEXKABC@Z 00482460 f i nafxcwd:occsite.obj
 0001:000814d0       ?_SetValue@CDynamicAccessor@ATL@@QAEXKABG@Z 004824d0 f i nafxcwd:occsite.obj
 0001:00081540       ?_SetValue@CDynamicAccessor@ATL@@QAEXKABK@Z 00482540 f i nafxcwd:occsite.obj
 0001:000815b0       ?_SetValue@CDynamicAccessor@ATL@@QAEXKABUtagDBTIMESTAMP@@@Z 004825b0 f i nafxcwd:occsite.obj
 0001:00081650       ?AfxCheckError@@YGXJ@Z     00482650 f   nafxcwd:olevar.obj
 0001:00081676       ?_AfxCompareSafeArrays@@YGHPAUtagSAFEARRAY@@0@Z 00482676 f   nafxcwd:olevar.obj
 0001:00081ac2       ?_AfxCreateOneDimArray@@YGXAAUtagVARIANT@@K@Z 00482ac2 f   nafxcwd:olevar.obj
 0001:00081bf4       ?_AfxCopyBinaryData@@YGXPAUtagSAFEARRAY@@PBXK@Z 00482bf4 f   nafxcwd:olevar.obj
 0001:00081c36       ??0COleVariant@@QAE@ABUtagVARIANT@@@Z 00482c36 f   nafxcwd:olevar.obj
 0001:00081c63       ??0COleVariant@@QAE@PBUtagVARIANT@@@Z 00482c63 f   nafxcwd:olevar.obj
 0001:00081c90       ??0COleVariant@@QAE@ABV0@@Z 00482c90 f   nafxcwd:olevar.obj
 0001:00081cbd       ??0COleVariant@@QAE@PBDG@Z 00482cbd f   nafxcwd:olevar.obj
 0001:00081ddf       ?SetString@COleVariant@@QAEXPBDG@Z 00482ddf f   nafxcwd:olevar.obj
 0001:00081f06       ??0COleVariant@@QAE@FG@Z   00482f06 f   nafxcwd:olevar.obj
 0001:00081f97       ??0COleVariant@@QAE@JG@Z   00482f97 f   nafxcwd:olevar.obj
 0001:00082054       ?_ClearCompat@COleVariant@@QAEXXZ 00483054 f   nafxcwd:olevar.obj
 0001:00082067       ?ChangeType@COleVariant@@QAEXGPAUtagVARIANT@@@Z 00483067 f   nafxcwd:olevar.obj
 0001:000820b8       ?Attach@COleVariant@@QAEXAAUtagVARIANT@@@Z 004830b8 f   nafxcwd:olevar.obj
 0001:000820e7       ?Detach@COleVariant@@QAE?AUtagVARIANT@@XZ 004830e7 f   nafxcwd:olevar.obj
 0001:00082135       ??8COleVariant@@QBEHABUtagVARIANT@@@Z 00483135 f   nafxcwd:olevar.obj
 0001:000823f2       ??4COleVariant@@QAEABV0@ABUtagVARIANT@@@Z 004833f2 f   nafxcwd:olevar.obj
 0001:00082416       ??4COleVariant@@QAEABV0@PBUtagVARIANT@@@Z 00483416 f   nafxcwd:olevar.obj
 0001:0008243a       ??4COleVariant@@QAEABV0@ABV0@@Z 0048343a f   nafxcwd:olevar.obj
 0001:0008245e       ??4COleVariant@@QAEABV0@QBD@Z 0048345e f   nafxcwd:olevar.obj
 0001:0008251a       ??4COleVariant@@QAEABV0@ABVCString@@@Z 0048351a f   nafxcwd:olevar.obj
 0001:000825c9       ??4COleVariant@@QAEABV0@E@Z 004835c9 f   nafxcwd:olevar.obj
 0001:000825ff       ??4COleVariant@@QAEABV0@F@Z 004835ff f   nafxcwd:olevar.obj
 0001:0008266f       ??4COleVariant@@QAEABV0@J@Z 0048366f f   nafxcwd:olevar.obj
 0001:000826f1       ??4COleVariant@@QAEABV0@ABVCOleCurrency@@@Z 004836f1 f   nafxcwd:olevar.obj
 0001:0008272f       ??4COleVariant@@QAEABV0@M@Z 0048372f f   nafxcwd:olevar.obj
 0001:00082765       ??4COleVariant@@QAEABV0@N@Z 00483765 f   nafxcwd:olevar.obj
 0001:000827a1       ??4COleVariant@@QAEABV0@ABVCOleDateTime@@@Z 004837a1 f   nafxcwd:olevar.obj
 0001:000827df       ??4COleVariant@@QAEABV0@ABVCByteArray@@@Z 004837df f   nafxcwd:olevar.obj
 0001:00082822       ??4COleVariant@@QAEABV0@ABVCLongBinary@@@Z 00483822 f   nafxcwd:olevar.obj
 0001:00082878       ?AfxVariantInit@@YGXPAUtagVARIANT@@@Z 00483878 f   nafxcwd:olevar.obj
 0001:0008288f       ??6@YGAAVCDumpContext@@AAV0@VCOleVariant@@@Z 0048388f f   nafxcwd:olevar.obj
 0001:00082c8a       ??6@YGAAVCArchive@@AAV0@VCOleVariant@@@Z 00483c8a f   nafxcwd:olevar.obj
 0001:000830ee       ??5@YGAAVCArchive@@AAV0@AAVCOleVariant@@@Z 004840ee f   nafxcwd:olevar.obj
 0001:000834e3       ?ConstructElements@@YGXPAVCOleVariant@@H@Z 004844e3 f   nafxcwd:olevar.obj
 0001:000835a6       ?DestructElements@@YGXPAVCOleVariant@@H@Z 004845a6 f   nafxcwd:olevar.obj
 0001:00083610       ?CopyElements@@YGXPAVCOleVariant@@PBV1@H@Z 00484610 f   nafxcwd:olevar.obj
 0001:000836bb       ?SerializeElements@@YGXAAVCArchive@@PAVCOleVariant@@H@Z 004846bb f   nafxcwd:olevar.obj
 0001:00083775       ?DumpElements@@YGXAAVCDumpContext@@PBVCOleVariant@@H@Z 00484775 f   nafxcwd:olevar.obj
 0001:000837bb       ?HashKey@@YGIABUtagVARIANT@@@Z 004847bb f   nafxcwd:olevar.obj
 0001:000838e6       ??0COleCurrency@@QAE@JJ@Z  004848e6 f   nafxcwd:olevar.obj
 0001:00083910       ??4COleCurrency@@QAEABV0@TtagCY@@@Z 00484910 f   nafxcwd:olevar.obj
 0001:00083938       ??4COleCurrency@@QAEABV0@ABV0@@Z 00484938 f   nafxcwd:olevar.obj
 0001:00083964       ??4COleCurrency@@QAEABV0@ABUtagVARIANT@@@Z 00484964 f   nafxcwd:olevar.obj
 0001:00083a7c       ??MCOleCurrency@@QBEHABV0@@Z 00484a7c f   nafxcwd:olevar.obj
 0001:00083b15       ??OCOleCurrency@@QBEHABV0@@Z 00484b15 f   nafxcwd:olevar.obj
 0001:00083bae       ??NCOleCurrency@@QBEHABV0@@Z 00484bae f   nafxcwd:olevar.obj
 0001:00083c46       ??PCOleCurrency@@QBEHABV0@@Z 00484c46 f   nafxcwd:olevar.obj
 0001:00083cde       ??HCOleCurrency@@QBE?AV0@ABV0@@Z 00484cde f   nafxcwd:olevar.obj
 0001:00083dd2       ??GCOleCurrency@@QBE?AV0@ABV0@@Z 00484dd2 f   nafxcwd:olevar.obj
 0001:00083ec6       ??GCOleCurrency@@QBE?AV0@XZ 00484ec6 f   nafxcwd:olevar.obj
 0001:00083f55       ??DCOleCurrency@@QBE?AV0@J@Z 00484f55 f   nafxcwd:olevar.obj
 0001:000842a8       ??KCOleCurrency@@QBE?AV0@J@Z 004852a8 f   nafxcwd:olevar.obj
 0001:00084610       ?SetCurrency@COleCurrency@@QAEXJJ@Z 00485610 f   nafxcwd:olevar.obj
 0001:000846c0       ?ParseCurrency@COleCurrency@@QAEHPBDKK@Z 004856c0 f   nafxcwd:olevar.obj
 0001:00084866       ?Format@COleCurrency@@QBE?AVCString@@KK@Z 00485866 f   nafxcwd:olevar.obj
 0001:00084a13       ??6@YGAAVCDumpContext@@AAV0@VCOleCurrency@@@Z 00485a13 f   nafxcwd:olevar.obj
 0001:00084aaf       ??6@YGAAVCArchive@@AAV0@VCOleCurrency@@@Z 00485aaf f   nafxcwd:olevar.obj
 0001:00084ada       ??5@YGAAVCArchive@@AAV0@AAVCOleCurrency@@@Z 00485ada f   nafxcwd:olevar.obj
 0001:00084b0b       ?_AfxOleDateFromTm@@YGHGGGGGGAAN@Z 00485b0b f   nafxcwd:olevar.obj
 0001:00084d26       ?_AfxTmFromOleDate@@YGHNAAUtm@@@Z 00485d26 f   nafxcwd:olevar.obj
 0001:00085012       ?_AfxTmConvertToStandardFormat@@YGXAAUtm@@@Z 00486012 f   nafxcwd:olevar.obj
 0001:00085058       ?_AfxDoubleFromDate@@YGNN@Z 00486058 f   nafxcwd:olevar.obj
 0001:00085095       ?_AfxDateFromDouble@@YGNN@Z 00486095 f   nafxcwd:olevar.obj
 0001:000850cf       ?GetTickCount@COleDateTime@@SG?AV1@XZ 004860cf f   nafxcwd:olevar.obj
 0001:000850ec       ?GetAsSystemTime@COleDateTime@@QBEHAAU_SYSTEMTIME@@@Z 004860ec f   nafxcwd:olevar.obj
 0001:00085186       ?GetYear@COleDateTime@@QBEHXZ 00486186 f   nafxcwd:olevar.obj
 0001:000851be       ?GetMonth@COleDateTime@@QBEHXZ 004861be f   nafxcwd:olevar.obj
 0001:000851f6       ?GetDay@COleDateTime@@QBEHXZ 004861f6 f   nafxcwd:olevar.obj
 0001:0008522e       ?GetHour@COleDateTime@@QBEHXZ 0048622e f   nafxcwd:olevar.obj
 0001:00085266       ?GetMinute@COleDateTime@@QBEHXZ 00486266 f   nafxcwd:olevar.obj
 0001:0008529e       ?GetSecond@COleDateTime@@QBEHXZ 0048629e f   nafxcwd:olevar.obj
 0001:000852d6       ?GetDayOfWeek@COleDateTime@@QBEHXZ 004862d6 f   nafxcwd:olevar.obj
 0001:0008530e       ?GetDayOfYear@COleDateTime@@QBEHXZ 0048630e f   nafxcwd:olevar.obj
 0001:00085346       ??4COleDateTime@@QAEABV0@ABUtagVARIANT@@@Z 00486346 f   nafxcwd:olevar.obj
 0001:0008545b       ??4COleDateTime@@QAEABV0@N@Z 0048645b f   nafxcwd:olevar.obj
 0001:00085483       ??4COleDateTime@@QAEABV0@ABJ@Z 00486483 f   nafxcwd:olevar.obj
 0001:00085529       ??4COleDateTime@@QAEABV0@ABU_SYSTEMTIME@@@Z 00486529 f   nafxcwd:olevar.obj
 0001:0008557c       ??4COleDateTime@@QAEABV0@ABU_FILETIME@@@Z 0048657c f   nafxcwd:olevar.obj
 0001:0008561d       ??MCOleDateTime@@QBEHABV0@@Z 0048661d f   nafxcwd:olevar.obj
 0001:000856bc       ??OCOleDateTime@@QBEHABV0@@Z 004866bc f   nafxcwd:olevar.obj
 0001:0008575b       ??NCOleDateTime@@QBEHABV0@@Z 0048675b f   nafxcwd:olevar.obj
 0001:000857fa       ??PCOleDateTime@@QBEHABV0@@Z 004867fa f   nafxcwd:olevar.obj
 0001:00085899       ??HCOleDateTime@@QBE?AV0@ABVCOleDateTimeSpan@@@Z 00486899 f   nafxcwd:olevar.obj
 0001:0008595e       ??GCOleDateTime@@QBE?AV0@ABVCOleDateTimeSpan@@@Z 0048695e f   nafxcwd:olevar.obj
 0001:00085a23       ??GCOleDateTime@@QBE?AVCOleDateTimeSpan@@ABV0@@Z 00486a23 f   nafxcwd:olevar.obj
 0001:00085ad9       ?SetDateTime@COleDateTime@@QAEHHHHHHH@Z 00486ad9 f   nafxcwd:olevar.obj
 0001:00085b1e       ?ParseDateTime@COleDateTime@@QAEHPBDKK@Z 00486b1e f   nafxcwd:olevar.obj
 0001:00085cbe       ?Format@COleDateTime@@QBE?AVCString@@KK@Z 00486cbe f   nafxcwd:olevar.obj
 0001:00085e6b       ?Format@COleDateTime@@QBE?AVCString@@PBD@Z 00486e6b f   nafxcwd:olevar.obj
 0001:00085fc4       ?Format@COleDateTime@@QBE?AVCString@@I@Z 00486fc4 f   nafxcwd:olevar.obj
 0001:00086064       ?CheckRange@COleDateTime@@IAEXXZ 00487064 f   nafxcwd:olevar.obj
 0001:0008609d       ??6@YGAAVCDumpContext@@AAV0@VCOleDateTime@@@Z 0048709d f   nafxcwd:olevar.obj
 0001:00086139       ??6@YGAAVCArchive@@AAV0@VCOleDateTime@@@Z 00487139 f   nafxcwd:olevar.obj
 0001:0008615c       ??5@YGAAVCArchive@@AAV0@AAVCOleDateTime@@@Z 0048715c f   nafxcwd:olevar.obj
 0001:0008617e       ?GetHours@COleDateTimeSpan@@QBEJXZ 0048717e f   nafxcwd:olevar.obj
 0001:000861f6       ?GetMinutes@COleDateTimeSpan@@QBEJXZ 004871f6 f   nafxcwd:olevar.obj
 0001:00086275       ?GetSeconds@COleDateTimeSpan@@QBEJXZ 00487275 f   nafxcwd:olevar.obj
 0001:000862fa       ??4COleDateTimeSpan@@QAEABV0@N@Z 004872fa f   nafxcwd:olevar.obj
 0001:00086322       ??4COleDateTimeSpan@@QAEABV0@ABV0@@Z 00487322 f   nafxcwd:olevar.obj
 0001:0008634e       ??HCOleDateTimeSpan@@QBE?AV0@ABV0@@Z 0048734e f   nafxcwd:olevar.obj
 0001:000863f3       ??GCOleDateTimeSpan@@QBE?AV0@ABV0@@Z 004873f3 f   nafxcwd:olevar.obj
 0001:00086498       ?SetDateTimeSpan@COleDateTimeSpan@@QAEXJHHH@Z 00487498 f   nafxcwd:olevar.obj
 0001:000864d8       ?Format@COleDateTimeSpan@@QBE?AVCString@@PBD@Z 004874d8 f   nafxcwd:olevar.obj
 0001:00086763       ?Format@COleDateTimeSpan@@QBE?AVCString@@I@Z 00487763 f   nafxcwd:olevar.obj
 0001:00086803       ?CheckRange@COleDateTimeSpan@@QAEXXZ 00487803 f   nafxcwd:olevar.obj
 0001:0008683c       ??6@YGAAVCDumpContext@@AAV0@VCOleDateTimeSpan@@@Z 0048783c f   nafxcwd:olevar.obj
 0001:000868dc       ??6@YGAAVCArchive@@AAV0@VCOleDateTimeSpan@@@Z 004878dc f   nafxcwd:olevar.obj
 0001:000868ff       ??5@YGAAVCArchive@@AAV0@AAVCOleDateTimeSpan@@@Z 004878ff f   nafxcwd:olevar.obj
 0001:00086921       ??0COleSafeArray@@QAE@ABUtagSAFEARRAY@@G@Z 00487921 f   nafxcwd:olevar.obj
 0001:0008697f       ??0COleSafeArray@@QAE@PBUtagSAFEARRAY@@G@Z 0048797f f   nafxcwd:olevar.obj
 0001:000869dd       ??0COleSafeArray@@QAE@ABV0@@Z 004879dd f   nafxcwd:olevar.obj
 0001:00086a1e       ??0COleSafeArray@@QAE@ABUtagVARIANT@@@Z 00487a1e f   nafxcwd:olevar.obj
 0001:00086a5f       ??0COleSafeArray@@QAE@PBUtagVARIANT@@@Z 00487a5f f   nafxcwd:olevar.obj
 0001:00086aa0       ?Attach@COleSafeArray@@QAEXAAUtagVARIANT@@@Z 00487aa0 f   nafxcwd:olevar.obj
 0001:00086b01       ?Detach@COleSafeArray@@QAE?AUtagVARIANT@@XZ 00487b01 f   nafxcwd:olevar.obj
 0001:00086b4f       ??4COleSafeArray@@QAEAAV0@ABV0@@Z 00487b4f f   nafxcwd:olevar.obj
 0001:00086ba5       ??4COleSafeArray@@QAEAAV0@ABUtagVARIANT@@@Z 00487ba5 f   nafxcwd:olevar.obj
 0001:00086bfb       ??4COleSafeArray@@QAEAAV0@PBUtagVARIANT@@@Z 00487bfb f   nafxcwd:olevar.obj
 0001:00086c51       ??4COleSafeArray@@QAEAAV0@ABVCOleVariant@@@Z 00487c51 f   nafxcwd:olevar.obj
 0001:00086ca7       ??8COleSafeArray@@QBEHABUtagSAFEARRAY@@@Z 00487ca7 f   nafxcwd:olevar.obj
 0001:00086cc4       ??8COleSafeArray@@QBEHPBUtagSAFEARRAY@@@Z 00487cc4 f   nafxcwd:olevar.obj
 0001:00086ce1       ??8COleSafeArray@@QBEHABV0@@Z 00487ce1 f   nafxcwd:olevar.obj
 0001:00086d19       ??8COleSafeArray@@QBEHABUtagVARIANT@@@Z 00487d19 f   nafxcwd:olevar.obj
 0001:00086d51       ??8COleSafeArray@@QBEHPBUtagVARIANT@@@Z 00487d51 f   nafxcwd:olevar.obj
 0001:00086d89       ??8COleSafeArray@@QBEHABVCOleVariant@@@Z 00487d89 f   nafxcwd:olevar.obj
 0001:00086dc1       ?_AfxDumpSafeArrayElement@@YAXAAVCDumpContext@@AAVCOleSafeArray@@PAJ@Z 00487dc1 f   nafxcwd:olevar.obj
 0001:0008707c       ??6@YGAAVCDumpContext@@AAV0@AAVCOleSafeArray@@@Z 0048807c f   nafxcwd:olevar.obj
 0001:000872ee       ?CreateOneDim@COleSafeArray@@QAEXGKPBXJ@Z 004882ee f   nafxcwd:olevar.obj
 0001:00087379       ?GetOneDimSize@COleSafeArray@@QAEKXZ 00488379 f   nafxcwd:olevar.obj
 0001:000873d8       ?ResizeOneDim@COleSafeArray@@QAEXK@Z 004883d8 f   nafxcwd:olevar.obj
 0001:0008742d       ?Create@COleSafeArray@@QAEXGKPAK@Z 0048842d f   nafxcwd:olevar.obj
 0001:00087556       ?Create@COleSafeArray@@QAEXGKPAUtagSAFEARRAYBOUND@@@Z 00488556 f   nafxcwd:olevar.obj
 0001:000876d4       ?AccessData@COleSafeArray@@QAEXPAPAX@Z 004886d4 f   nafxcwd:olevar.obj
 0001:000876f8       ?UnaccessData@COleSafeArray@@QAEXXZ 004886f8 f   nafxcwd:olevar.obj
 0001:00087716       ?AllocData@COleSafeArray@@QAEXXZ 00488716 f   nafxcwd:olevar.obj
 0001:00087734       ?AllocDescriptor@COleSafeArray@@QAEXK@Z 00488734 f   nafxcwd:olevar.obj
 0001:00087758       ?Copy@COleSafeArray@@QAEXPAPAUtagSAFEARRAY@@@Z 00488758 f   nafxcwd:olevar.obj
 0001:0008777c       ?GetLBound@COleSafeArray@@QAEXKPAJ@Z 0048877c f   nafxcwd:olevar.obj
 0001:000877a4       ?GetUBound@COleSafeArray@@QAEXKPAJ@Z 004887a4 f   nafxcwd:olevar.obj
 0001:000877cc       ?GetElement@COleSafeArray@@QAEXPAJPAX@Z 004887cc f   nafxcwd:olevar.obj
 0001:000877f4       ?PtrOfIndex@COleSafeArray@@QAEXPAJPAPAX@Z 004887f4 f   nafxcwd:olevar.obj
 0001:0008781c       ?PutElement@COleSafeArray@@QAEXPAJPAX@Z 0048881c f   nafxcwd:olevar.obj
 0001:00087844       ?Redim@COleSafeArray@@QAEXPAUtagSAFEARRAYBOUND@@@Z 00488844 f   nafxcwd:olevar.obj
 0001:00087868       ?Lock@COleSafeArray@@QAEXXZ 00488868 f   nafxcwd:olevar.obj
 0001:00087886       ?Unlock@COleSafeArray@@QAEXXZ 00488886 f   nafxcwd:olevar.obj
 0001:000878a4       ?Destroy@COleSafeArray@@QAEXXZ 004888a4 f   nafxcwd:olevar.obj
 0001:000878c2       ?DestroyData@COleSafeArray@@QAEXXZ 004888c2 f   nafxcwd:olevar.obj
 0001:000878e0       ?DestroyDescriptor@COleSafeArray@@QAEXXZ 004888e0 f   nafxcwd:olevar.obj
 0001:000878fe       ?AfxSafeArrayInit@@YGXPAVCOleSafeArray@@@Z 004888fe f   nafxcwd:olevar.obj
 0001:00087915       ?DDX_Text@@YGXPAVCDataExchange@@HAAVCOleDateTime@@@Z 00488915 f   nafxcwd:olevar.obj
 0001:00087a1d       ?DDX_Text@@YGXPAVCDataExchange@@HAAVCOleCurrency@@@Z 00488a1d f   nafxcwd:olevar.obj
 0001:00087b30       ??_GCOleVariant@@QAEPAXI@Z 00488b30 f i nafxcwd:olevar.obj
 0001:00087b60       ?HashKey@@YGIK@Z           00488b60 f i nafxcwd:olevar.obj
 0001:00087b70       ??3@YAXPAX0@Z              00488b70 f i nafxcwd:olevar.obj
 0001:00087b80       ?EnableTypeLib@CCmdTarget@@QAEXXZ 00488b80 f   nafxcwd:oletyplb.obj
 0001:00087bda       ?GetTypeInfoOfGuid@CCmdTarget@@QAEJKABU_GUID@@PAPAUITypeInfo@@@Z 00488bda f   nafxcwd:oletyplb.obj
 0001:00087d7e       ?AfxGetTypeLibCache@@YGPAVCTypeLibCache@@PBU_GUID@@@Z 00488d7e f   nafxcwd:oletyplb.obj
 0001:00087f81       ?Lock@CTypeLibCache@@QAEXXZ 00488f81 f   nafxcwd:oletyplb.obj
 0001:00087fd5       ?Lookup@CTypeLibCache@@QAEHKPAPAUITypeLib@@@Z 00488fd5 f   nafxcwd:oletyplb.obj
 0001:0008804e       ?Cache@CTypeLibCache@@QAEXKPAUITypeLib@@@Z 0048904e f   nafxcwd:oletyplb.obj
 0001:00088106       ?LookupTypeInfo@CTypeLibCache@@QAEHKABU_GUID@@PAPAUITypeInfo@@@Z 00489106 f   nafxcwd:oletyplb.obj
 0001:000881ce       ?CacheTypeInfo@CTypeLibCache@@QAEXKABU_GUID@@PAUITypeInfo@@@Z 004891ce f   nafxcwd:oletyplb.obj
 0001:00088260       ??0CTypeLibCacheMap@@QAE@XZ 00489260 f i nafxcwd:oletyplb.obj
 0001:00088290       ??_GCTypeLibCacheMap@@UAEPAXI@Z 00489290 f i nafxcwd:oletyplb.obj
 0001:00088290       ??_ECTypeLibCacheMap@@UAEPAXI@Z 00489290 f i nafxcwd:oletyplb.obj
 0001:000882c0       ??1CTypeLibCacheMap@@UAE@XZ 004892c0 f i nafxcwd:oletyplb.obj
 0001:000882e0       ?ocslen@@YAIPBG@Z          004892e0 f i nafxcwd:olemisc.obj
 0001:000882f0       ?ocscpy@@YAPAGPAGPBG@Z     004892f0 f i nafxcwd:olemisc.obj
 0001:00088320       ?AtlDevModeA2W@@YAPAU_devicemodeW@@PAU1@PAU_devicemodeA@@@Z 00489320 f i nafxcwd:olemisc.obj
 0001:00088430       ?AtlDevModeW2A@@YGPAU_devicemodeA@@PAU1@PAU_devicemodeW@@@Z 00489430 f i nafxcwd:olemisc.obj
 0001:00088540       ?GetWindowTask@@YAPAUHTASK__@@PAUHWND__@@@Z 00489540 f i nafxcwd:winfrmx.obj
 0001:00088560       ?OnEvent@CCmdTarget@@QAEHIPAUAFX_EVENT@@PAUAFX_CMDHANDLERINFO@@@Z 00489560 f   nafxcwd:occevent.obj
 0001:000889d1       ?GetEventSinkEntry@CCmdTarget@@IAGPBUAFX_EVENTSINKMAP_ENTRY@@IPAUAFX_EVENT@@@Z 004899d1 f   nafxcwd:occevent.obj
 0001:00088a90       ?_AfxGetDlgCode@@YGKPAVCWnd@@PAUtagMSG@@@Z 00489a90 f   nafxcwd:occdlg.obj
 0001:00088ade       ?_AfxDlgSetFocus@@YGXPAVCWnd@@@Z 00489ade f   nafxcwd:occdlg.obj
 0001:00088b10       ?_AfxGetChildControl@@YGPAVCWnd@@PAV1@0@Z 00489b10 f   nafxcwd:occdlg.obj
 0001:00088bcd       ?_AfxNextControl@@YGPAVCWnd@@PAV1@0I@Z 00489bcd f   nafxcwd:occdlg.obj
 0001:00088ce7       ?IsMatchingMnemonic@COccManager@@SAHPAVCWnd@@PAUtagMSG@@@Z 00489ce7 f   nafxcwd:occdlg.obj
 0001:00088d1e       ?_AfxFindNextMnem@@YGPAVCWnd@@PAV1@0PAUtagMSG@@@Z 00489d1e f   nafxcwd:occdlg.obj
 0001:00088dea       ?IsLabelControl@COccManager@@SAHPAVCWnd@@@Z 00489dea f   nafxcwd:occdlg.obj
 0001:00088e2c       ?_AfxGetNextMnem@@YGPAVCWnd@@PAV1@0PAUtagMSG@@@Z 00489e2c f   nafxcwd:occdlg.obj
 0001:00088ed3       ?UIActivateControl@COccManager@@KAXPAVCWnd@@@Z 00489ed3 f   nafxcwd:occdlg.obj
 0001:00088f58       ?UIDeactivateIfNecessary@COccManager@@KAXPAVCWnd@@0@Z 00489f58 f   nafxcwd:occdlg.obj
 0001:00089021       ?_AfxFindDlgItem@@YGPAVCWnd@@PAV1@K@Z 0048a021 f   nafxcwd:occdlg.obj
 0001:0008909d       ?SetDefaultButton@COccManager@@SAXPAVCWnd@@H@Z 0048a09d f   nafxcwd:occdlg.obj
 0001:000890fc       ?GetDefBtnCode@COccManager@@SAKPAVCWnd@@@Z 0048a0fc f   nafxcwd:occdlg.obj
 0001:0008912f       ?_AfxRemoveDefaultButton@@YGXPAVCWnd@@0@Z 0048a12f f   nafxcwd:occdlg.obj
 0001:000891b5       ?_AfxOriginalDefButton@@YGHPAVCWnd@@@Z 0048a1b5 f   nafxcwd:occdlg.obj
 0001:00089204       ?_AfxCheckDefPushButton@@YGXPAVCWnd@@00@Z 0048a204 f   nafxcwd:occdlg.obj
 0001:0008935a       ?IsDialogMessageA@COccManager@@UAEHPAVCWnd@@PAUtagMSG@@@Z 0048a35a f   nafxcwd:occdlg.obj
 0001:000898b0       ??_9@$BOI@AE               0048a8b0 f i nafxcwd:viewcore.obj
 0001:000898c0       ??0CPushRoutingView@@QAE@PAVCView@@@Z 0048a8c0 f i nafxcwd:viewcore.obj
 0001:00089900       ??1CPushRoutingView@@QAE@XZ 0048a900 f i nafxcwd:viewcore.obj
 0001:00089920       __tcsdec                   0048a920 f i nafxcwd:docmgr.obj
 0001:00089940       ??0COleControlLock@@QAE@ABU_GUID@@@Z 0048a940 f   nafxcwd:occlock.obj
 0001:00089a25       ??1COleControlLock@@UAE@XZ 0048aa25 f   nafxcwd:occlock.obj
 0001:00089a72       ?AfxOleLockControl@@YGHABU_GUID@@@Z 0048aa72 f   nafxcwd:occlock.obj
 0001:00089bbe       ?AfxOleLockControl@@YGHPBD@Z 0048abbe f   nafxcwd:occlock.obj
 0001:00089bed       ?AfxOleUnlockControl@@YGHPBD@Z 0048abed f   nafxcwd:occlock.obj
 0001:00089c1c       ?AfxOleUnlockControl@@YGHABU_GUID@@@Z 0048ac1c f   nafxcwd:occlock.obj
 0001:00089cca       ?AfxOleUnlockAllControls@@YGXXZ 0048acca f   nafxcwd:occlock.obj
 0001:00089d80       ??_ECOleControlLock@@UAEPAXI@Z 0048ad80 f i nafxcwd:occlock.obj
 0001:00089d80       ??_GCOleControlLock@@UAEPAXI@Z 0048ad80 f i nafxcwd:occlock.obj
 0001:00089db0       ?IsEmpty@CSimpleList@@QBEHXZ 0048adb0 f i nafxcwd:occlock.obj
 0001:00089dd0       ?AddHead@?$CTypedSimpleList@PAVCOleControlLock@@@@QAEXPAVCOleControlLock@@@Z 0048add0 f i nafxcwd:occlock.obj
 0001:00089df0       ?Remove@?$CTypedSimpleList@PAVCOleControlLock@@@@QAEHPAVCOleControlLock@@@Z 0048adf0 f i nafxcwd:occlock.obj
 0001:00089e10       ??B?$CTypedSimpleList@PAVCOleControlLock@@@@QAEPAVCOleControlLock@@XZ 0048ae10 f i nafxcwd:occlock.obj
 0001:00089e30       ?GetRuntimeClass@COleDocObjectItem@@UBEPAUCRuntimeClass@@XZ 0048ae30 f   nafxcwd:oledoccl.obj
 0001:00089e40       ?GetInterfaceMap@COleDocObjectItem@@MBEPBUAFX_INTERFACEMAP@@XZ 0048ae40 f   nafxcwd:oledoccl.obj
 0001:00089e50       ??0COleDocObjectItem@@QAE@PAVCOleDocument@@@Z 0048ae50 f   nafxcwd:oledoccl.obj
 0001:00089edb       ??1COleDocObjectItem@@UAE@XZ 0048aedb f   nafxcwd:oledoccl.obj
 0001:00089f6f       ?AddRef@XOleDocumentSite@COleDocObjectItem@@UAGKXZ 0048af6f f   nafxcwd:oledoccl.obj
 0001:00089f8c       ?Release@XOleDocumentSite@COleDocObjectItem@@UAGKXZ 0048af8c f   nafxcwd:oledoccl.obj
 0001:00089fa9       ?QueryInterface@XOleDocumentSite@COleDocObjectItem@@UAGJABU_GUID@@PAPAX@Z 0048afa9 f   nafxcwd:oledoccl.obj
 0001:00089fce       ?ActivateMe@XOleDocumentSite@COleDocObjectItem@@UAGJPAUIOleDocumentView@@@Z 0048afce f   nafxcwd:oledoccl.obj
 0001:0008a1ca       ?ActivateAndShow@COleDocObjectItem@@IAEXXZ 0048b1ca f   nafxcwd:oledoccl.obj
 0001:0008a224       ?OnGetItemPosition@COleDocObjectItem@@MAEXAAVCRect@@@Z 0048b224 f   nafxcwd:oledoccl.obj
 0001:0008a29a       ?GetActiveView@COleDocObjectItem@@QBEPAUIOleDocumentView@@XZ 0048b29a f   nafxcwd:oledoccl.obj
 0001:0008a2ab       ?Release@COleDocObjectItem@@UAEXW4tagOLECLOSE@@@Z 0048b2ab f   nafxcwd:oledoccl.obj
 0001:0008a323       ?ExecCommand@COleDocObjectItem@@QAEJKKPBU_GUID@@@Z 0048b323 f   nafxcwd:oledoccl.obj
 0001:0008a394       ?SupportsIPrint@COleDocObjectItem@@IAEHXZ 0048b394 f   nafxcwd:oledoccl.obj
 0001:0008a423       ?GetPageCount@COleDocObjectItem@@QAEHPAJ0@Z 0048b423 f   nafxcwd:oledoccl.obj
 0001:0008a48a       ?GetHelpMenu@COleDocObjectItem@@MAEPAVCMenu@@AAI@Z 0048b48a f   nafxcwd:oledoccl.obj
 0001:0008a4cf       ?OnInsertMenus@COleDocObjectItem@@UAEXPAVCMenu@@PAUtagOleMenuGroupWidths@@@Z 0048b4cf f   nafxcwd:oledoccl.obj
 0001:0008a735       ?OnRemoveMenus@COleDocObjectItem@@UAEXPAVCMenu@@@Z 0048b735 f   nafxcwd:oledoccl.obj
 0001:0008a7bf       ?OnPreparePrinting@COleDocObjectItem@@SAHPAVCView@@PAUCPrintInfo@@H@Z 0048b7bf f   nafxcwd:oledoccl.obj
 0001:0008a933       ?OnPrint@COleDocObjectItem@@SAXPAVCView@@PAUCPrintInfo@@H@Z 0048b933 f   nafxcwd:oledoccl.obj
 0001:0008abc0       ??_GCOleDocObjectItem@@UAEPAXI@Z 0048bbc0 f i nafxcwd:oledoccl.obj
 0001:0008abc0       ??_ECOleDocObjectItem@@UAEPAXI@Z 0048bbc0 f i nafxcwd:oledoccl.obj
 0001:0008abf0       ??0XOleDocumentSite@COleDocObjectItem@@QAE@XZ 0048bbf0 f i nafxcwd:oledoccl.obj
 0001:0008ac10       ??0IOleDocumentSite@@QAE@XZ 0048bc10 f i nafxcwd:oledoccl.obj
 0001:0008ac30       ??0COleCmdUI@@QAE@PAU_tagOLECMD@@KPBU_GUID@@@Z 0048bc30 f   nafxcwd:oledoctg.obj
 0001:0008ac77       ?Enable@COleCmdUI@@UAEXH@Z 0048bc77 f   nafxcwd:oledoctg.obj
 0001:0008ad0e       ?SetCheck@COleCmdUI@@UAEXH@Z 0048bd0e f   nafxcwd:oledoctg.obj
 0001:0008adc7       ?SetText@COleCmdUI@@UAEXPBD@Z 0048bdc7 f   nafxcwd:oledoctg.obj
 0001:0008ade3       ?DoUpdate@COleCmdUI@@UAEHPAVCCmdTarget@@H@Z 0048bde3 f   nafxcwd:oledoctg.obj
 0001:0008af6a       ?AddRef@XOleCommandTarget@CDocObjectServer@@UAGKXZ 0048bf6a f   nafxcwd:oledoctg.obj
 0001:0008af88       ?Release@XOleCommandTarget@CDocObjectServer@@UAGKXZ 0048bf88 f   nafxcwd:oledoctg.obj
 0001:0008afa6       ?QueryInterface@XOleCommandTarget@CDocObjectServer@@UAGJABU_GUID@@PAPAX@Z 0048bfa6 f   nafxcwd:oledoctg.obj
 0001:0008afcc       ?_AfxQueryStatusOleCommandHelper@@YGJPAVCCmdTarget@@PBU_GUID@@KQAU_tagOLECMD@@PAU_tagOLECMDTEXT@@@Z 0048bfcc f   nafxcwd:oledoctg.obj
 0001:0008b1d1       ?QueryStatus@XOleCommandTarget@CDocObjectServer@@UAGJPBU_GUID@@KQAU_tagOLECMD@@PAU_tagOLECMDTEXT@@@Z 0048c1d1 f   nafxcwd:oledoctg.obj
 0001:0008b21d       ?_AfxExecOleCommandHelper@@YGJPAVCCmdTarget@@PBU_GUID@@KKPAUtagVARIANT@@2@Z 0048c21d f   nafxcwd:oledoctg.obj
 0001:0008b321       ?Exec@XOleCommandTarget@CDocObjectServer@@UAGJPBU_GUID@@KKPAUtagVARIANT@@1@Z 0048c321 f   nafxcwd:oledoctg.obj
 0001:0008b3a0       ??1COleCmdUI@@QAE@XZ       0048c3a0 f i nafxcwd:oledoctg.obj
 0001:0008b3c0       ?GetRuntimeClass@CDocObjectServer@@UBEPAUCRuntimeClass@@XZ 0048c3c0 f   nafxcwd:oledocob.obj
 0001:0008b3d0       ?GetMessageMap@CDocObjectServer@@MBEPBUAFX_MSGMAP@@XZ 0048c3d0 f   nafxcwd:oledocob.obj
 0001:0008b3e0       ?GetInterfaceMap@CDocObjectServer@@MBEPBUAFX_INTERFACEMAP@@XZ 0048c3e0 f   nafxcwd:oledocob.obj
 0001:0008b3f0       ??0CDocObjectServer@@QAE@PAVCOleServerDoc@@PAUIOleDocumentSite@@@Z 0048c3f0 f   nafxcwd:oledocob.obj
 0001:0008b4d8       ??1CDocObjectServer@@UAE@XZ 0048c4d8 f   nafxcwd:oledocob.obj
 0001:0008b529       ?ReleaseDocSite@CDocObjectServer@@QAEXXZ 0048c529 f   nafxcwd:oledocob.obj
 0001:0008b559       ?SetDocSite@CDocObjectServer@@QAEXPAUIOleDocumentSite@@@Z 0048c559 f   nafxcwd:oledocob.obj
 0001:0008b577       ?OnCloseDocument@CDocObjectServer@@UAEXXZ 0048c577 f   nafxcwd:oledocob.obj
 0001:0008b59e       ?ActivateDocObject@CDocObjectServer@@QAEXXZ 0048c59e f   nafxcwd:oledocob.obj
 0001:0008b612       ?OnExecOleCmd@CDocObjectServer@@IAGJPBU_GUID@@KKPAUtagVARIANT@@1@Z 0048c612 f   nafxcwd:oledocob.obj
 0001:0008b677       ?GetControllingFrame@CDocObjectServer@@QBEPAVCOleDocIPFrameWnd@@XZ 0048c677 f   nafxcwd:oledocob.obj
 0001:0008b6fd       ?DoPreparePrinting@CDocObjectServer@@IAEHPAVCView@@PAUCPrintInfo@@@Z 0048c6fd f   nafxcwd:oledocob.obj
 0001:0008b71c       ?DoPrepareDC@CDocObjectServer@@IAEXPAVCView@@PAVCDC@@PAUCPrintInfo@@@Z 0048c71c f   nafxcwd:oledocob.obj
 0001:0008b73f       ?DoPrint@CDocObjectServer@@IAEXPAVCView@@PAVCDC@@PAUCPrintInfo@@@Z 0048c73f f   nafxcwd:oledocob.obj
 0001:0008b762       ?DoBeginPrinting@CDocObjectServer@@IAEXPAVCView@@PAVCDC@@PAUCPrintInfo@@@Z 0048c762 f   nafxcwd:oledocob.obj
 0001:0008b785       ?DoEndPrinting@CDocObjectServer@@IAEXPAVCView@@PAVCDC@@PAUCPrintInfo@@@Z 0048c785 f   nafxcwd:oledocob.obj
 0001:0008b7a8       ?AddRef@XPrint@CDocObjectServer@@UAGKXZ 0048c7a8 f   nafxcwd:oledocob.obj
 0001:0008b7c6       ?Release@XPrint@CDocObjectServer@@UAGKXZ 0048c7c6 f   nafxcwd:oledocob.obj
 0001:0008b7e4       ?QueryInterface@XPrint@CDocObjectServer@@UAGJABU_GUID@@PAPAX@Z 0048c7e4 f   nafxcwd:oledocob.obj
 0001:0008b807       ?SetInitialPageNum@XPrint@CDocObjectServer@@UAGJJ@Z 0048c807 f   nafxcwd:oledocob.obj
 0001:0008b838       ?GetPageInfo@XPrint@CDocObjectServer@@UAGJPAJ0@Z 0048c838 f   nafxcwd:oledocob.obj
 0001:0008b994       ?Print@XPrint@CDocObjectServer@@UAGJKPAPAUtagDVTARGETDEVICE@@PAPAUtagPAGESET@@PAUtagSTGMEDIUM@@PAUIContinueCallback@@JPAJ4@Z 0048c994 f   nafxcwd:oledocob.obj
 0001:0008c48c       ?AddRef@XOleDocument@CDocObjectServer@@UAGKXZ 0048d48c f   nafxcwd:oledocob.obj
 0001:0008c4aa       ?Release@XOleDocument@CDocObjectServer@@UAGKXZ 0048d4aa f   nafxcwd:oledocob.obj
 0001:0008c4c8       ?QueryInterface@XOleDocument@CDocObjectServer@@UAGJABU_GUID@@PAPAX@Z 0048d4c8 f   nafxcwd:oledocob.obj
 0001:0008c4eb       ?CreateView@XOleDocument@CDocObjectServer@@UAGJPAUIOleInPlaceSite@@PAUIStream@@KPAPAUIOleDocumentView@@@Z 0048d4eb f   nafxcwd:oledocob.obj
 0001:0008c5d6       ?GetDocMiscStatus@XOleDocument@CDocObjectServer@@UAGJPAK@Z 0048d5d6 f   nafxcwd:oledocob.obj
 0001:0008c62d       ?EnumViews@XOleDocument@CDocObjectServer@@UAGJPAPAUIEnumOleDocumentViews@@PAPAUIOleDocumentView@@@Z 0048d62d f   nafxcwd:oledocob.obj
 0001:0008c6be       ?AddRef@XOleObject@CDocObjectServer@@UAGKXZ 0048d6be f   nafxcwd:oledocob.obj
 0001:0008c6dc       ?Release@XOleObject@CDocObjectServer@@UAGKXZ 0048d6dc f   nafxcwd:oledocob.obj
 0001:0008c6fa       ?QueryInterface@XOleObject@CDocObjectServer@@UAGJABU_GUID@@PAPAX@Z 0048d6fa f   nafxcwd:oledocob.obj
 0001:0008c720       ?SetClientSite@XOleObject@CDocObjectServer@@UAGJPAUIOleClientSite@@@Z 0048d720 f   nafxcwd:oledocob.obj
 0001:0008c7a8       ?GetClientSite@XOleObject@CDocObjectServer@@UAGJPAPAUIOleClientSite@@@Z 0048d7a8 f   nafxcwd:oledocob.obj
 0001:0008c7ee       ?SetHostNames@XOleObject@CDocObjectServer@@UAGJPBG0@Z 0048d7ee f   nafxcwd:oledocob.obj
 0001:0008c838       ?Close@XOleObject@CDocObjectServer@@UAGJK@Z 0048d838 f   nafxcwd:oledocob.obj
 0001:0008c87e       ?SetMoniker@XOleObject@CDocObjectServer@@UAGJKPAUIMoniker@@@Z 0048d87e f   nafxcwd:oledocob.obj
 0001:0008c8c8       ?GetMoniker@XOleObject@CDocObjectServer@@UAGJKKPAPAUIMoniker@@@Z 0048d8c8 f   nafxcwd:oledocob.obj
 0001:0008c915       ?InitFromData@XOleObject@CDocObjectServer@@UAGJPAUIDataObject@@HK@Z 0048d915 f   nafxcwd:oledocob.obj
 0001:0008c962       ?GetClipboardData@XOleObject@CDocObjectServer@@UAGJKPAPAUIDataObject@@@Z 0048d962 f   nafxcwd:oledocob.obj
 0001:0008c9ac       ?DoVerb@XOleObject@CDocObjectServer@@UAGJJPAUtagMSG@@PAUIOleClientSite@@JPAUHWND__@@PBUtagRECT@@@Z 0048d9ac f   nafxcwd:oledocob.obj
 0001:0008ca05       ?EnumVerbs@XOleObject@CDocObjectServer@@UAGJPAPAUIEnumOLEVERB@@@Z 0048da05 f   nafxcwd:oledocob.obj
 0001:0008ca4b       ?Update@XOleObject@CDocObjectServer@@UAGJXZ 0048da4b f   nafxcwd:oledocob.obj
 0001:0008ca8c       ?IsUpToDate@XOleObject@CDocObjectServer@@UAGJXZ 0048da8c f   nafxcwd:oledocob.obj
 0001:0008cacd       ?GetUserClassID@XOleObject@CDocObjectServer@@UAGJPAU_GUID@@@Z 0048dacd f   nafxcwd:oledocob.obj
 0001:0008cb13       ?GetUserType@XOleObject@CDocObjectServer@@UAGJKPAPAG@Z 0048db13 f   nafxcwd:oledocob.obj
 0001:0008cb5d       ?SetExtent@XOleObject@CDocObjectServer@@UAGJKPAUtagSIZE@@@Z 0048db5d f   nafxcwd:oledocob.obj
 0001:0008cbbc       ?GetExtent@XOleObject@CDocObjectServer@@UAGJKPAUtagSIZE@@@Z 0048dbbc f   nafxcwd:oledocob.obj
 0001:0008cc06       ?Advise@XOleObject@CDocObjectServer@@UAGJPAUIAdviseSink@@PAK@Z 0048dc06 f   nafxcwd:oledocob.obj
 0001:0008cc50       ?Unadvise@XOleObject@CDocObjectServer@@UAGJK@Z 0048dc50 f   nafxcwd:oledocob.obj
 0001:0008cc96       ?EnumAdvise@XOleObject@CDocObjectServer@@UAGJPAPAUIEnumSTATDATA@@@Z 0048dc96 f   nafxcwd:oledocob.obj
 0001:0008ccdc       ?GetMiscStatus@XOleObject@CDocObjectServer@@UAGJKPAK@Z 0048dcdc f   nafxcwd:oledocob.obj
 0001:0008cd26       ?SetColorScheme@XOleObject@CDocObjectServer@@UAGJPAUtagLOGPALETTE@@@Z 0048dd26 f   nafxcwd:oledocob.obj
 0001:0008cd6c       ?AssertValid@CDocObjectServer@@MBEXXZ 0048dd6c f   nafxcwd:oledocob.obj
 0001:0008cda8       ?Dump@CDocObjectServer@@MBEXAAVCDumpContext@@@Z 0048dda8 f   nafxcwd:oledocob.obj
 0001:0008ce0f       ?GetRuntimeClass@CDocObjectServerItem@@UBEPAUCRuntimeClass@@XZ 0048de0f f   nafxcwd:oledocob.obj
 0001:0008ce1f       ??0CDocObjectServerItem@@IAE@PAVCOleServerDoc@@H@Z 0048de1f f   nafxcwd:oledocob.obj
 0001:0008ce48       ??1CDocObjectServerItem@@UAE@XZ 0048de48 f   nafxcwd:oledocob.obj
 0001:0008ce64       ?OnDoVerb@CDocObjectServerItem@@MAEXJ@Z 0048de64 f   nafxcwd:oledocob.obj
 0001:0008cec5       ?OnHide@CDocObjectServerItem@@MAEXXZ 0048dec5 f   nafxcwd:oledocob.obj
 0001:0008cf10       ?OnOpen@CDocObjectServerItem@@MAEXXZ 0048df10 f   nafxcwd:oledocob.obj
 0001:0008cf59       ?OnShow@CDocObjectServerItem@@MAEXXZ 0048df59 f   nafxcwd:oledocob.obj
 0001:0008cfa2       ?AssertValid@CDocObjectServerItem@@UBEXXZ 0048dfa2 f   nafxcwd:oledocob.obj
 0001:0008cfb5       ?Dump@CDocObjectServerItem@@UBEXAAVCDumpContext@@@Z 0048dfb5 f   nafxcwd:oledocob.obj
 0001:0008cfd0       ??_GCDocObjectServer@@UAEPAXI@Z 0048dfd0 f i nafxcwd:oledocob.obj
 0001:0008cfd0       ??_ECDocObjectServer@@UAEPAXI@Z 0048dfd0 f i nafxcwd:oledocob.obj
 0001:0008d000       ??0XOleObject@CDocObjectServer@@QAE@XZ 0048e000 f i nafxcwd:oledocob.obj
 0001:0008d020       ??0XOleDocument@CDocObjectServer@@QAE@XZ 0048e020 f i nafxcwd:oledocob.obj
 0001:0008d040       ??0XOleDocumentView@CDocObjectServer@@QAE@XZ 0048e040 f i nafxcwd:oledocob.obj
 0001:0008d060       ??0XOleCommandTarget@CDocObjectServer@@QAE@XZ 0048e060 f i nafxcwd:oledocob.obj
 0001:0008d080       ??0XPrint@CDocObjectServer@@QAE@XZ 0048e080 f i nafxcwd:oledocob.obj
 0001:0008d0a0       ??0IOleObject@@QAE@XZ      0048e0a0 f i nafxcwd:oledocob.obj
 0001:0008d0c0       ??0IOleDocument@@QAE@XZ    0048e0c0 f i nafxcwd:oledocob.obj
 0001:0008d0e0       ??0IOleDocumentView@@QAE@XZ 0048e0e0 f i nafxcwd:oledocob.obj
 0001:0008d100       ??0IPrint@@QAE@XZ          0048e100 f i nafxcwd:oledocob.obj
 0001:0008d120       ??_GCDocObjectServerItem@@UAEPAXI@Z 0048e120 f i nafxcwd:oledocob.obj
 0001:0008d120       ??_ECDocObjectServerItem@@UAEPAXI@Z 0048e120 f i nafxcwd:oledocob.obj
 0001:0008d150       ?GetDocument@CDocObjectServerItem@@QBEPAVCOleServerDoc@@XZ 0048e150 f i nafxcwd:oledocob.obj
 0001:0008d170       ?OnSaveViewState@CDocObjectServer@@MAEXAAVCArchive@@@Z 0048e170 f   nafxcwd:oledocvw.obj
 0001:0008d17d       ?OnApplyViewState@CDocObjectServer@@MAEXAAVCArchive@@@Z 0048e17d f   nafxcwd:oledocvw.obj
 0001:0008d18a       ?OnActivateView@CDocObjectServer@@MAEJXZ 0048e18a f   nafxcwd:oledocvw.obj
 0001:0008d9dc       ?AddRef@XOleDocumentView@CDocObjectServer@@UAGKXZ 0048e9dc f   nafxcwd:oledocvw.obj
 0001:0008d9fa       ?Release@XOleDocumentView@CDocObjectServer@@UAGKXZ 0048e9fa f   nafxcwd:oledocvw.obj
 0001:0008da18       ?QueryInterface@XOleDocumentView@CDocObjectServer@@UAGJABU_GUID@@PAPAX@Z 0048ea18 f   nafxcwd:oledocvw.obj
 0001:0008da3e       ?SetInPlaceSite@XOleDocumentView@CDocObjectServer@@UAGJPAUIOleInPlaceSite@@@Z 0048ea3e f   nafxcwd:oledocvw.obj
 0001:0008dad0       ?GetInPlaceSite@XOleDocumentView@CDocObjectServer@@UAGJPAPAUIOleInPlaceSite@@@Z 0048ead0 f   nafxcwd:oledocvw.obj
 0001:0008db44       ?GetDocument@XOleDocumentView@CDocObjectServer@@UAGJPAPAUIUnknown@@@Z 0048eb44 f   nafxcwd:oledocvw.obj
 0001:0008dbd2       ?OnSetItemRects@CDocObjectServer@@IAEXPAUtagRECT@@0@Z 0048ebd2 f   nafxcwd:oledocvw.obj
 0001:0008dbfb       ?SetRect@XOleDocumentView@CDocObjectServer@@UAGJPAUtagRECT@@@Z 0048ebfb f   nafxcwd:oledocvw.obj
 0001:0008dcd6       ?GetRect@XOleDocumentView@CDocObjectServer@@UAGJPAUtagRECT@@@Z 0048ecd6 f   nafxcwd:oledocvw.obj
 0001:0008dd33       ?SetRectComplex@XOleDocumentView@CDocObjectServer@@UAGJPAUtagRECT@@000@Z 0048ed33 f   nafxcwd:oledocvw.obj
 0001:0008dd5e       ?Show@XOleDocumentView@CDocObjectServer@@UAGJH@Z 0048ed5e f   nafxcwd:oledocvw.obj
 0001:0008ddc5       ?UIActivate@XOleDocumentView@CDocObjectServer@@UAGJH@Z 0048edc5 f   nafxcwd:oledocvw.obj
 0001:0008de2c       ?Open@XOleDocumentView@CDocObjectServer@@UAGJXZ 0048ee2c f   nafxcwd:oledocvw.obj
 0001:0008de79       ?CloseView@XOleDocumentView@CDocObjectServer@@UAGJK@Z 0048ee79 f   nafxcwd:oledocvw.obj
 0001:0008dec3       ?SaveViewState@XOleDocumentView@CDocObjectServer@@UAGJPAUIStream@@@Z 0048eec3 f   nafxcwd:oledocvw.obj
 0001:0008e05e       ?ApplyViewState@XOleDocumentView@CDocObjectServer@@UAGJPAUIStream@@@Z 0048f05e f   nafxcwd:oledocvw.obj
 0001:0008e1f9       ?Clone@XOleDocumentView@CDocObjectServer@@UAGJPAUIOleInPlaceSite@@PAPAUIOleDocumentView@@@Z 0048f1f9 f   nafxcwd:oledocvw.obj
 0001:0008e230       ?CreateObject@COleDocIPFrameWnd@@SGPAVCObject@@XZ 0048f230 f   nafxcwd:oledocip.obj
 0001:0008e29e       ?GetRuntimeClass@COleDocIPFrameWnd@@UBEPAUCRuntimeClass@@XZ 0048f29e f   nafxcwd:oledocip.obj
 0001:0008e2ae       ?GetMessageMap@COleDocIPFrameWnd@@MBEPBUAFX_MSGMAP@@XZ 0048f2ae f   nafxcwd:oledocip.obj
 0001:0008e2be       ??0COleDocIPFrameWnd@@QAE@XZ 0048f2be f   nafxcwd:oledocip.obj
 0001:0008e2ea       ??1COleDocIPFrameWnd@@UAE@XZ 0048f2ea f   nafxcwd:oledocip.obj
 0001:0008e306       ?OnRequestPositionChange@COleDocIPFrameWnd@@MAEXPBUtagRECT@@@Z 0048f306 f   nafxcwd:oledocip.obj
 0001:0008e37e       ?RecalcLayout@COleDocIPFrameWnd@@MAEXH@Z 0048f37e f   nafxcwd:oledocip.obj
 0001:0008e5d8       ?BuildSharedMenu@COleDocIPFrameWnd@@MAEHXZ 0048f5d8 f   nafxcwd:oledocip.obj
 0001:0008e7e0       ?DestroySharedMenu@COleDocIPFrameWnd@@MAEXXZ 0048f7e0 f   nafxcwd:oledocip.obj
 0001:0008e960       ?AssertValid@COleDocIPFrameWnd@@UBEXXZ 0048f960 f   nafxcwd:oledocip.obj
 0001:0008e973       ?Dump@COleDocIPFrameWnd@@UBEXAAVCDumpContext@@@Z 0048f973 f   nafxcwd:oledocip.obj
 0001:0008e990       ??_GCOleDocIPFrameWnd@@UAEPAXI@Z 0048f990 f i nafxcwd:oledocip.obj
 0001:0008e990       ??_ECOleDocIPFrameWnd@@UAEPAXI@Z 0048f990 f i nafxcwd:oledocip.obj
 0001:0008e9c0       ??_9@$BBAI@AE              0048f9c0 f i nafxcwd:oleipfrm.obj
 0001:0008e9d0       __chkesp                   0048f9d0 f   libcmtd:chkesp.obj
 0001:0008ea10       _memset                    0048fa10 f   libcmtd:memset.obj
 0001:0008ea70       _memcpy                    0048fa70 f   libcmtd:memcpy.obj
 0001:0008edb0       ?_JumpToContinuation@@YGXPAXPAUEHRegistrationNode@@@Z 0048fdb0 f   libcmtd:trnsctrl.obj
 0001:0008edf0       ?_CallMemberFunction0@@YGXPAX0@Z 0048fdf0 f   libcmtd:trnsctrl.obj
 0001:0008ee00       ?_CallMemberFunction1@@YGXPAX00@Z 0048fe00 f   libcmtd:trnsctrl.obj
 0001:0008ee10       ?_CallMemberFunction2@@YGXPAX00H@Z 0048fe10 f   libcmtd:trnsctrl.obj
 0001:0008ee20       ?_UnwindNestedFrames@@YGXPAUEHRegistrationNode@@PAUEHExceptionRecord@@@Z 0048fe20 f   libcmtd:trnsctrl.obj
 0001:0008ee80       ___CxxFrameHandler         0048fe80 f   libcmtd:trnsctrl.obj
 0001:0008eec0       ___CxxLongjmpUnwind@4      0048fec0 f   libcmtd:trnsctrl.obj
 0001:0008eef0       ?_CallCatchBlock2@@YAPAXPAUEHRegistrationNode@@PBU_s_FuncInfo@@PAXHK@Z 0048fef0 f   libcmtd:trnsctrl.obj
 0001:0008efa0       ?_CallSETranslator@@YAHPAUEHExceptionRecord@@PAUEHRegistrationNode@@PAX2PBU_s_FuncInfo@@H1@Z 0048ffa0 f   libcmtd:trnsctrl.obj
 0001:0008f100       ?_GetRangeOfTrysToCheck@@YAPBU_s_TryBlockMapEntry@@PBU_s_FuncInfo@@HHPAI1@Z 00490100 f   libcmtd:trnsctrl.obj
 0001:0008f190       __global_unwind2           00490190 f   libcmtd:exsup.obj
 0001:0008f1d2       __local_unwind2            004901d2 f   libcmtd:exsup.obj
 0001:0008f22a       __NLG_Return2              0049022a f   libcmtd:exsup.obj
 0001:0008f23a       __abnormal_termination     0049023a f   libcmtd:exsup.obj
 0001:0008f25d       __NLG_Notify1              0049025d f   libcmtd:exsup.obj
 0001:0008f266       __NLG_Notify               00490266 f   libcmtd:exsup.obj
 0001:0008f279       __NLG_Dispatch             00490279 f   libcmtd:exsup.obj
 0001:0008f280       __fpmath                   00490280 f   libcmtd:fpinit.obj
 0001:0008f2b0       __fpclear                  004902b0 f   libcmtd:fpinit.obj
 0001:0008f2c0       __cfltcvt_init             004902c0 f   libcmtd:fpinit.obj
 0001:0008f310       ___setfflag                00490310 f   libcmtd:fpinit.obj
 0001:0008f330       __cinit                    00490330 f   libcmtd:crt0dat.obj
 0001:0008f370       _exit                      00490370 f   libcmtd:crt0dat.obj
 0001:0008f390       __exit                     00490390 f   libcmtd:crt0dat.obj
 0001:0008f3b0       __cexit                    004903b0 f   libcmtd:crt0dat.obj
 0001:0008f3d0       __c_exit                   004903d0 f   libcmtd:crt0dat.obj
 0001:0008f4e0       __lockexit                 004904e0 f   libcmtd:crt0dat.obj
 0001:0008f4f0       __unlockexit               004904f0 f   libcmtd:crt0dat.obj
 0001:0008f530       __alloca_probe             00490530 f   libcmtd:chkstk.obj
 0001:0008f530       __chkstk                   00490530 f   libcmtd:chkstk.obj
 0001:0008f560       _strlen                    00490560 f   libcmtd:strlen.obj
 0001:0008f5e0       _strtok                    004905e0 f   libcmtd:strtok.obj
 0001:0008f730       _strcpy                    00490730 f   libcmtd:strcat.obj
 0001:0008f740       _strcat                    00490740 f   libcmtd:strcat.obj
 0001:0008f820       _atol                      00490820 f   libcmtd:atox.obj
 0001:0008f920       _atoi                      00490920 f   libcmtd:atox.obj
 0001:0008f940       __atoi64                   00490940 f   libcmtd:atox.obj
 0001:0008fa70       _atof                      00490a70 f   libcmtd:atof.obj
 0001:0008faf0       _sprintf                   00490af0 f   libcmtd:sprintf.obj
 0001:0008fbf0       ??_M@YGXPAXIHP6EX0@Z@Z     00490bf0 f   libcmtd:ehvecdtr.obj
 0001:0008fca0       ?__ArrayUnwind@@YGXPAXIHP6EX0@Z@Z 00490ca0 f   libcmtd:ehvecdtr.obj
 0001:0008fd50       ??_L@YGXPAXIHP6EX0@Z1@Z    00490d50 f   libcmtd:ehvecctr.obj
 0001:0008fdf0       _srand                     00490df0 f   libcmtd:rand.obj
 0001:0008fe00       _rand                      00490e00 f   libcmtd:rand.obj
 0001:0008fe40       _qsort                     00490e40 f   libcmtd:qsort.obj
 0001:00090140       __onexit                   00491140 f   libcmtd:onexit.obj
 0001:00090200       _atexit                    00491200 f   libcmtd:onexit.obj
 0001:00090220       ___onexitinit              00491220 f   libcmtd:onexit.obj
 0001:00090270       _rename                    00491270 f   libcmtd:rename.obj
 0001:000902c0       _ceil                      004912c0 f   libcmtd:ceil.obj
 0001:000903f8       __ftol                     004913f8 f   libcmtd:ftol.obj
 0001:00090420       _WinMainCRTStartup         00491420 f   libcmtd:wincrt0.obj
 0001:00090590       __amsg_exit                00491590 f   libcmtd:wincrt0.obj
 0001:000905f0       _malloc                    004915f0 f   libcmtd:dbgheap.obj
 0001:00090620       __malloc_dbg               00491620 f   libcmtd:dbgheap.obj
 0001:00090650       __nh_malloc                00491650 f   libcmtd:dbgheap.obj
 0001:00090670       __nh_malloc_dbg            00491670 f   libcmtd:dbgheap.obj
 0001:00090710       __heap_alloc               00491710 f   libcmtd:dbgheap.obj
 0001:00090730       __heap_alloc_dbg           00491730 f   libcmtd:dbgheap.obj
 0001:00090a50       _calloc                    00491a50 f   libcmtd:dbgheap.obj
 0001:00090a80       __calloc_dbg               00491a80 f   libcmtd:dbgheap.obj
 0001:00090ae0       _realloc                   00491ae0 f   libcmtd:dbgheap.obj
 0001:00090b10       __realloc_dbg              00491b10 f   libcmtd:dbgheap.obj
 0001:000910c0       __expand                   004920c0 f   libcmtd:dbgheap.obj
 0001:000910f0       __expand_dbg               004920f0 f   libcmtd:dbgheap.obj
 0001:00091180       _free                      00492180 f   libcmtd:dbgheap.obj
 0001:000911a0       __free_lk                  004921a0 f   libcmtd:dbgheap.obj
 0001:000911c0       __free_dbg                 004921c0 f   libcmtd:dbgheap.obj
 0001:00091230       __free_dbg_lk              00492230 f   libcmtd:dbgheap.obj
 0001:00091620       __msize                    00492620 f   libcmtd:dbgheap.obj
 0001:00091640       __msize_dbg                00492640 f   libcmtd:dbgheap.obj
 0001:000917d0       __CrtSetBreakAlloc         004927d0 f   libcmtd:dbgheap.obj
 0001:000917f0       __CrtSetDbgBlockType       004927f0 f   libcmtd:dbgheap.obj
 0001:000918d0       __CrtSetAllocHook          004928d0 f   libcmtd:dbgheap.obj
 0001:00091980       __CrtCheckMemory           00492980 f   libcmtd:dbgheap.obj
 0001:00091d30       __CrtSetDbgFlag            00492d30 f   libcmtd:dbgheap.obj
 0001:00091d60       __CrtDoForAllClientObjects 00492d60 f   libcmtd:dbgheap.obj
 0001:00091e10       __CrtIsValidPointer        00492e10 f   libcmtd:dbgheap.obj
 0001:00091e60       __CrtIsValidHeapPointer    00492e60 f   libcmtd:dbgheap.obj
 0001:00091f90       __CrtIsMemoryBlock         00492f90 f   libcmtd:dbgheap.obj
 0001:000920c0       __CrtSetDumpClient         004930c0 f   libcmtd:dbgheap.obj
 0001:000920e0       __CrtMemCheckpoint         004930e0 f   libcmtd:dbgheap.obj
 0001:00092290       __CrtMemDifference         00493290 f   libcmtd:dbgheap.obj
 0001:000923c0       __CrtMemDumpAllObjectsSince 004933c0 f   libcmtd:dbgheap.obj
 0001:000927e0       __CrtDumpMemoryLeaks       004937e0 f   libcmtd:dbgheap.obj
 0001:00092860       __CrtMemDumpStatistics     00493860 f   libcmtd:dbgheap.obj
 0001:00092930       ??1type_info@@UAE@XZ       00493930 f   libcmtd:typinfo.obj
 0001:00092970       ??_Etype_info@@UAEPAXI@Z   00493970 f i libcmtd:typinfo.obj
 0001:00092970       ??_Gtype_info@@UAEPAXI@Z   00493970 f i libcmtd:typinfo.obj
 0001:000929a0       ??8type_info@@QBEHABV0@@Z  004939a0 f   libcmtd:typinfo.obj
 0001:000929d0       ??9type_info@@QBEHABV0@@Z  004939d0 f   libcmtd:typinfo.obj
 0001:00092a00       ?before@type_info@@QBEHABV1@@Z 00493a00 f   libcmtd:typinfo.obj
 0001:00092a30       ?raw_name@type_info@@QBEPBDXZ 00493a30 f   libcmtd:typinfo.obj
 0001:00092a50       ??0type_info@@AAE@ABV0@@Z  00493a50 f   libcmtd:typinfo.obj
 0001:00092a70       ??4type_info@@AAEAAV0@ABV0@@Z 00493a70 f   libcmtd:typinfo.obj
 0001:00092a80       __CrtDbgBreak              00493a80 f   libcmtd:dbgrpt.obj
 0001:00092a90       __CrtSetReportMode         00493a90 f   libcmtd:dbgrpt.obj
 0001:00092af0       __CrtSetReportFile         00493af0 f   libcmtd:dbgrpt.obj
 0001:00092b70       __CrtSetReportHook         00493b70 f   libcmtd:dbgrpt.obj
 0001:00092b90       __CrtDbgReport             00493b90 f   libcmtd:dbgrpt.obj
 0001:00093230       __mbsinc                   00494230 f   libcmtd:mbsinc.obj
 0001:00093260       _wcslen                    00494260 f   libcmtd:wcslen.obj
 0001:00093290       __mbschr                   00494290 f   libcmtd:mbschr.obj
 0001:00093380       __mbspbrk                  00494380 f   libcmtd:mbspbrk.obj
 0001:000934c0       __mbsupr                   004944c0 f   libcmtd:mbsupr.obj
 0001:000935c0       __mbslwr                   004945c0 f   libcmtd:mbslwr.obj
 0001:000936c0       __mbsrev                   004946c0 f   libcmtd:mbsrev.obj
 0001:000937b0       __mbscmp                   004947b0 f   libcmtd:mbscmp.obj
 0001:00093920       __mbsicmp                  00494920 f   libcmtd:mbsicmp.obj
 0001:00093bc0       __mbscoll                  00494bc0 f   libcmtd:mbscoll.obj
 0001:00093c00       __mbsicoll                 00494c00 f   libcmtd:mbsicoll.obj
 0001:00093c40       __CxxThrowException@8      00494c40 f   libcmtd:throw.obj
 0001:00093c90       _memcmp                    00494c90 f   libcmtd:memcmp.obj
 0001:00093d40       _abs                       00494d40 f   libcmtd:abs.obj
 0001:00093d70       __fullpath                 00494d70 f   libcmtd:fullpath.obj
 0001:00093e50       __mbsrchr                  00494e50 f   libcmtd:mbsrchr.obj
 0001:00093f20       __splitpath                00494f20 f   libcmtd:splitpat.obj
 0001:00094170       _memmove                   00495170 f   libcmtd:memmove.obj
 0001:000944b0       __mbsstr                   004954b0 f   libcmtd:mbsstr.obj
 0001:00094590       __mbsspn                   00495590 f   libcmtd:mbsspn.obj
 0001:000946c0       __mbscspn                  004956c0 f   libcmtd:mbscspn.obj
 0001:000947f0       _vsprintf                  004957f0 f   libcmtd:vsprintf.obj
 0001:000948f0       __ismbcdigit               004958f0 f   libcmtd:ismbdgt.obj
 0001:000949d0       __mbsnbcmp                 004959d0 f   libcmtd:mbsnbcmp.obj
 0001:00094bc0       __mbclen                   00495bc0 f   libcmtd:mbclen.obj
 0001:00094bf0       __ismbcspace               00495bf0 f   libcmtd:ismbspc.obj
 0001:00094cd0       _strtol                    00495cd0 f   libcmtd:strtol.obj
 0001:00095030       _strtoul                   00496030 f   libcmtd:strtol.obj
 0001:00095050       __itoa                     00496050 f   libcmtd:xtoa.obj
 0001:00095170       __ltoa                     00496170 f   libcmtd:xtoa.obj
 0001:000951b0       __ultoa                    004961b0 f   libcmtd:xtoa.obj
 0001:000951d0       __i64toa                   004961d0 f   libcmtd:xtoa.obj
 0001:00095320       __ui64toa                  00496320 f   libcmtd:xtoa.obj
 0001:00095340       __vsnprintf                00496340 f   libcmtd:vsnprint.obj
 0001:00095440       __strdup                   00496440 f   libcmtd:strdup.obj
 0001:00095490       __beginthreadex            00496490 f   libcmtd:threadex.obj
 0001:00095620       __endthreadex              00496620 f   libcmtd:threadex.obj
 0001:00095670       __dosmaperr                00496670 f   libcmtd:dosmap.obj
 0001:00095710       __errno                    00496710 f   libcmtd:dosmap.obj
 0001:00095720       ___doserrno                00496720 f   libcmtd:dosmap.obj
 0001:00095730       _mktime                    00496730 f   libcmtd:mktime.obj
 0001:00095750       __mkgmtime                 00496750 f   libcmtd:mktime.obj
 0001:00095a80       _time                      00496a80 f   libcmtd:time.obj
 0001:00095c10       _gmtime                    00496c10 f   libcmtd:gmtime.obj
 0001:00095e10       _localtime                 00496e10 f   libcmtd:localtim.obj
 0001:00096070       _ctime                     00497070 f   libcmtd:ctime.obj
 0001:000960a0       __setmbcp                  004970a0 f   libcmtd:mbctype.obj
 0001:00096860       __getmbcp                  00497860 f   libcmtd:mbctype.obj
 0001:00096880       ___initmbctable            00497880 f   libcmtd:mbctype.obj
 0001:000968b0       __Getdays                  004978b0 f   libcmtd:strftime.obj
 0001:000969e0       __Getmonths                004979e0 f   libcmtd:strftime.obj
 0001:00096b10       __Gettnames                00497b10 f   libcmtd:strftime.obj
 0001:00096e80       _strftime                  00497e80 f   libcmtd:strftime.obj
 0001:00096ea0       __Strftime                 00497ea0 f   libcmtd:strftime.obj
 0001:00097d20       __purecall                 00498d20 f   libcmtd:purevirt.obj
 0001:00097d38       __except_handler3          00498d38 f   libcmtd:exsup3.obj
 0001:00097df5       __seh_longjmp_unwind@4     00498df5 f   libcmtd:exsup3.obj
 0001:00097e10       _wcscat                    00498e10 f   libcmtd:wcscat.obj
 0001:00097e70       _wcscpy                    00498e70 f   libcmtd:wcscat.obj
 0001:00097eb0       _wcsncpy                   00498eb0 f   libcmtd:wcsncpy.obj
 0001:00097f30       _labs                      00498f30 f   libcmtd:labs.obj
 0001:00097f60       _floor                     00498f60 f   libcmtd:floor.obj
 0001:000980a0       _fabs                      004990a0 f   libcmtd:fabs.obj
 0001:000981a0       _modf                      004991a0 f   libcmtd:modf.obj
 0001:00098330       _swprintf                  00499330 f   libcmtd:swprintf.obj
 0001:00098480       __gcvt                     00499480 f   libcmtd:gcvt.obj
 0001:000985c0       __mbsdec                   004995c0 f   libcmtd:mbsdec.obj
 0001:00098670       ___InternalCxxFrameHandler 00499670 f   libcmtd:frame.obj
 0001:00098be0       ___FrameUnwindToState      00499be0 f   libcmtd:frame.obj
 0001:000991f0       ?_DestructExceptionObject@@YAXPAUEHExceptionRecord@@E@Z 0049a1f0 f   libcmtd:frame.obj
 0001:000992d0       __CallSettingFrame@12      0049a2d0 f   libcmtd:lowhelpr.obj
 0001:000992f7       __NLG_Return               0049a2f7 f   libcmtd:lowhelpr.obj
 0001:00099320       __mtinit                   0049a320 f   libcmtd:tidtable.obj
 0001:000993b0       __mtterm                   0049a3b0 f   libcmtd:tidtable.obj
 0001:000993e0       __initptd                  0049a3e0 f   libcmtd:tidtable.obj
 0001:00099400       __getptd                   0049a400 f   libcmtd:tidtable.obj
 0001:000994a0       __freeptd                  0049a4a0 f   libcmtd:tidtable.obj
 0001:000995b0       ___threadid                0049a5b0 f   libcmtd:tidtable.obj
 0001:000995c0       ___threadhandle            0049a5c0 f   libcmtd:tidtable.obj
 0001:000995d0       ?terminate@@YAXXZ          0049a5d0 f   libcmtd:hooks.obj
 0001:00099660       ?unexpected@@YAXXZ         0049a660 f   libcmtd:hooks.obj
 0001:00099680       ?_inconsistency@@YAXXZ     0049a680 f   libcmtd:hooks.obj
 0001:00099710       __setdefaultprecision      0049a710 f   libcmtd:fp8.obj
 0001:00099730       __ms_p5_test_fdiv          0049a730 f   libcmtd:testfdiv.obj
 0001:00099790       __ms_p5_mp_test_fdiv       0049a790 f   libcmtd:testfdiv.obj
 0001:000997e0       __forcdecpt                0049a7e0 f   libcmtd:cvt.obj
 0001:00099890       __cropzeros                0049a890 f   libcmtd:cvt.obj
 0001:00099970       __positive                 0049a970 f   libcmtd:cvt.obj
 0001:000999a0       __fassign                  0049a9a0 f   libcmtd:cvt.obj
 0001:000999f0       __cftoe                    0049a9f0 f   libcmtd:cvt.obj
 0001:00099be0       __cftof                    0049abe0 f   libcmtd:cvt.obj
 0001:00099d90       __cftog                    0049ad90 f   libcmtd:cvt.obj
 0001:00099e80       __cfltcvt                  0049ae80 f   libcmtd:cvt.obj
 0001:00099f10       __mtinitlocks              0049af10 f   libcmtd:mlock.obj
 0001:00099f50       __mtdeletelocks            0049af50 f   libcmtd:mlock.obj
 0001:00099ff0       __lock                     0049aff0 f   libcmtd:mlock.obj
 0001:0009a090       __unlock                   0049b090 f   libcmtd:mlock.obj
 0001:0009a0b0       __lockerr_exit             0049b0b0 f   libcmtd:mlock.obj
 0001:0009a0d0       __isctype                  0049b0d0 f   libcmtd:isctype.obj
 0001:0009a190       __allmul                   0049b190 f   libcmtd:llmul.obj
 0001:0009a1d0       __fltin2                   0049b1d0 f   libcmtd:cfin.obj
 0001:0009a290       __flsbuf                   0049b290 f   libcmtd:_flsbuf.obj
 0001:0009a510       __output                   0049b510 f   libcmtd:output.obj
 0001:0009b3b0       __frnd                     0049c3b0 f   libcmtd:frnd.obj
 0001:0009b3d0       __handle_qnan1             0049c3d0 f   libcmtd:fpexcept.obj
 0001:0009b430       __handle_qnan2             0049c430 f   libcmtd:fpexcept.obj
 0001:0009b4a0       __except1                  0049c4a0 f   libcmtd:fpexcept.obj
 0001:0009b560       __except2                  0049c560 f   libcmtd:fpexcept.obj
 0001:0009b630       __raise_exc                0049c630 f   libcmtd:fpexcept.obj
 0001:0009bb00       __handle_exc               0049cb00 f   libcmtd:fpexcept.obj
 0001:0009be80       __umatherr                 0049ce80 f   libcmtd:fpexcept.obj
 0001:0009bf20       __set_errno                0049cf20 f   libcmtd:fpexcept.obj
 0001:0009bfa0       __errcode                  0049cfa0 f   libcmtd:fpexcept.obj
 0001:0009c020       __set_exp                  0049d020 f   libcmtd:util.obj
 0001:0009c060       __get_exp                  0049d060 f   libcmtd:util.obj
 0001:0009c090       __add_exp                  0049d090 f   libcmtd:util.obj
 0001:0009c0d0       __set_bexp                 0049d0d0 f   libcmtd:util.obj
 0001:0009c110       __sptype                   0049d110 f   libcmtd:util.obj
 0001:0009c190       __decomp                   0049d190 f   libcmtd:util.obj
 0001:0009c2d0       __statfp                   0049d2d0 f   libcmtd:fpctrl.obj
 0001:0009c2f0       __clrfp                    0049d2f0 f   libcmtd:fpctrl.obj
 0001:0009c310       __ctrlfp                   0049d310 f   libcmtd:fpctrl.obj
 0001:0009c350       __set_statfp               0049d350 f   libcmtd:fpctrl.obj
 0001:0009c3d0       __XcptFilter               0049d3d0 f   libcmtd:winxfltr.obj
 0001:0009c5f0       __wincmdln                 0049d5f0 f   libcmtd:wincmdln.obj
 0001:0009c6b0       __setenvp                  0049d6b0 f   libcmtd:stdenvp.obj
 0001:0009c800       __setargv                  0049d800 f   libcmtd:stdargv.obj
 0001:0009cd10       ___crtGetEnvironmentStringsA 0049dd10 f   libcmtd:a_env.obj
 0001:0009cf30       __ioinit                   0049df30 f   libcmtd:ioinit.obj
 0001:0009d260       __ioterm                   0049e260 f   libcmtd:ioinit.obj
 0001:0009d300       __GetLinkerVersion         0049e300 f   libcmtd:heapinit.obj
 0001:0009d360       ___heap_select             0049e360 f   libcmtd:heapinit.obj
 0001:0009d590       __heap_init                0049e590 f   libcmtd:heapinit.obj
 0001:0009d620       __heap_term                0049e620 f   libcmtd:heapinit.obj
 0001:0009d710       __FF_MSGBANNER             0049e710 f   libcmtd:crt0msg.obj
 0001:0009d760       __NMSG_WRITE               0049e760 f   libcmtd:crt0msg.obj
 0001:0009d920       __GET_RTERRMSG             0049e920 f   libcmtd:crt0msg.obj
 0001:0009d970       ?_set_new_handler@@YAP6AHI@ZP6AHI@Z@Z 0049e970 f   libcmtd:handler.obj
 0001:0009d9a0       ?_query_new_handler@@YAP6AHI@ZXZ 0049e9a0 f   libcmtd:handler.obj
 0001:0009d9b0       __callnewh                 0049e9b0 f   libcmtd:handler.obj
 0001:0009d9e0       __malloc_base              0049e9e0 f   libcmtd:malloc.obj
 0001:0009da00       __nh_malloc_base           0049ea00 f   libcmtd:malloc.obj
 0001:0009da60       __heap_alloc_base          0049ea60 f   libcmtd:malloc.obj
 0001:0009dbb0       __CrtDefaultAllocHook      0049ebb0 f   libcmtd:dbghook.obj
 0001:0009dbc0       __expand_base              0049ebc0 f   libcmtd:expand.obj
 0001:0009ddd0       __realloc_base             0049edd0 f   libcmtd:realloc.obj
 0001:0009e270       __free_base                0049f270 f   libcmtd:free.obj
 0001:0009e3c0       __heapchk                  0049f3c0 f   libcmtd:heapchk.obj
 0001:0009e4d0       __heapset                  0049f4d0 f   libcmtd:heapchk.obj
 0001:0009e4e0       __get_sbh_threshold        0049f4e0 f   libcmtd:sbheap.obj
 0001:0009e510       __set_sbh_threshold        0049f510 f   libcmtd:sbheap.obj
 0001:0009e620       ___sbh_heap_init           0049f620 f   libcmtd:sbheap.obj
 0001:0009e690       ___sbh_find_block          0049f690 f   libcmtd:sbheap.obj
 0001:0009e6f0       ___sbh_verify_block        0049f6f0 f   libcmtd:sbheap.obj
 0001:0009e750       ___sbh_free_block          0049f750 f   libcmtd:sbheap.obj
 0001:0009ed30       ___sbh_alloc_block         0049fd30 f   libcmtd:sbheap.obj
 0001:0009f270       ___sbh_alloc_new_region    004a0270 f   libcmtd:sbheap.obj
 0001:0009f380       ___sbh_alloc_new_group     004a0380 f   libcmtd:sbheap.obj
 0001:0009f570       ___sbh_resize_block        004a0570 f   libcmtd:sbheap.obj
 0001:0009fb60       ___sbh_heapmin             004a0b60 f   libcmtd:sbheap.obj
 0001:0009fc90       ___sbh_heap_check          004a0c90 f   libcmtd:sbheap.obj
 0001:000a02b0       __get_old_sbh_threshold    004a12b0 f   libcmtd:sbheap.obj
 0001:000a02c0       __set_old_sbh_threshold    004a12c0 f   libcmtd:sbheap.obj
 0001:000a02f0       ___old_sbh_new_region      004a12f0 f   libcmtd:sbheap.obj
 0001:000a04d0       ___old_sbh_release_region  004a14d0 f   libcmtd:sbheap.obj
 0001:000a0550       ___old_sbh_decommit_pages  004a1550 f   libcmtd:sbheap.obj
 0001:000a06b0       ___old_sbh_find_block      004a16b0 f   libcmtd:sbheap.obj
 0001:000a0740       ___old_sbh_free_block      004a1740 f   libcmtd:sbheap.obj
 0001:000a07b0       ___old_sbh_alloc_block     004a17b0 f   libcmtd:sbheap.obj
 0001:000a0b70       ___old_sbh_alloc_block_from_page 004a1b70 f   libcmtd:sbheap.obj
 0001:000a0e20       ___old_sbh_resize_block    004a1e20 f   libcmtd:sbheap.obj
 0001:000a0f90       ___old_sbh_heap_check      004a1f90 f   libcmtd:sbheap.obj
 0001:000a11d0       _strcmp                    004a21d0 f   libcmtd:strcmp.obj
 0001:000a1260       __snprintf                 004a2260 f   libcmtd:snprintf.obj
 0001:000a1360       _signal                    004a2360 f   libcmtd:winsig.obj
 0001:000a1630       _raise                     004a2630 f   libcmtd:winsig.obj
 0001:000a18d0       ___fpecode                 004a28d0 f   libcmtd:winsig.obj
 0001:000a18e0       ___pxcptinfoptrs           004a28e0 f   libcmtd:winsig.obj
 0001:000a18f0       ___crtMessageBoxA          004a28f0 f   libcmtd:crtmbox.obj
 0001:000a19b0       _strncpy                   004a29b0 f   libcmtd:strncpy.obj
 0001:000a1ac0       _strchr                    004a2ac0 f   libcmtd:strchr.obj
 0001:000a1ac6       ___from_strstr_to_strchr   004a2ac6 f   libcmtd:strchr.obj
 0001:000a1b80       _strpbrk                   004a2b80 f   libcmtd:strpbrk.obj
 0001:000a1bc0       ___crtLCMapStringA         004a2bc0 f   libcmtd:a_map.obj
 0001:000a1f20       __strrev                   004a2f20 f   libcmtd:strrev.obj
 0001:000a1f50       __stricmp                  004a2f50 f   libcmtd:stricmp.obj
 0001:000a1f50       __strcmpi                  004a2f50 f   libcmtd:stricmp.obj
 0001:000a2020       ___crtCompareStringA       004a3020 f   libcmtd:a_cmp.obj
 0001:000a2470       ?__CxxUnhandledExceptionFilter@@YGJPAU_EXCEPTION_POINTERS@@@Z 004a3470 f   libcmtd:unhandld.obj
 0001:000a24d0       ?__CxxSetUnhandledExceptionFilter@@YAXXZ 004a34d0 f   libcmtd:unhandld.obj
 0001:000a24f0       ?__CxxRestoreUnhandledExceptionFilter@@YAXXZ 004a34f0 f   libcmtd:unhandld.obj
 0001:000a2510       __getcwd                   004a3510 f   libcmtd:getcwd.obj
 0001:000a2550       __getdcwd                  004a3550 f   libcmtd:getcwd.obj
 0001:000a2590       __getdcwd_lk               004a3590 f   libcmtd:getcwd.obj
 0001:000a26b0       __validdrive               004a36b0 f   libcmtd:getcwd.obj
 0001:000a2700       _strrchr                   004a3700 f   libcmtd:strrchr.obj
 0001:000a2730       __mbsnbcpy                 004a3730 f   libcmtd:mbsnbcpy.obj
 0001:000a2860       _strstr                    004a3860 f   libcmtd:strstr.obj
 0001:000a28e0       _strspn                    004a38e0 f   libcmtd:strspn.obj
 0001:000a2920       _strcspn                   004a3920 f   libcmtd:strcspn.obj
 0001:000a2960       ___crtGetStringTypeA       004a3960 f   libcmtd:a_str.obj
 0001:000a2b20       _strncmp                   004a3b20 f   libcmtd:strncmp.obj
 0001:000a2b60       __toupper                  004a3b60 f   libcmtd:toupper.obj
 0001:000a2b70       _toupper                   004a3b70 f   libcmtd:toupper.obj
 0001:000a2c10       __toupper_lk               004a3c10 f   libcmtd:toupper.obj
 0001:000a2d40       __aulldiv                  004a3d40 f   libcmtd:ulldiv.obj
 0001:000a2db0       __aullrem                  004a3db0 f   libcmtd:ullrem.obj
 0001:000a2e30       ___tzset                   004a3e30 f   libcmtd:tzset.obj
 0001:000a2e70       __tzset                    004a3e70 f   libcmtd:tzset.obj
 0001:000a3240       __isindst                  004a4240 f   libcmtd:tzset.obj
 0001:000a3770       ___loctotime_t             004a4770 f   libcmtd:dtoxtime.obj
 0001:000a3860       _asctime                   004a4860 f   libcmtd:asctime.obj
 0001:000a3a60       _setlocale                 004a4a60 f   libcmtd:setlocal.obj
 0001:000a40f0       __expandlocale             004a50f0 f   libcmtd:setlocal.obj
 0001:000a4280       ___init_dummy              004a5280 f   libcmtd:setlocal.obj
 0001:000a4290       __strcats                  004a5290 f   libcmtd:setlocal.obj
 0001:000a42e0       ___lc_strtolc              004a52e0 f   libcmtd:setlocal.obj
 0001:000a4440       ___lc_lctostr              004a5440 f   libcmtd:setlocal.obj
 0001:000a44b0       __copysign                 004a54b0 f   libcmtd:ieeemisc.obj
 0001:000a44e0       __chgsign                  004a54e0 f   libcmtd:ieeemisc.obj
 0001:000a4510       __scalb                    004a5510 f   libcmtd:ieeemisc.obj
 0001:000a4530       __logb                     004a5530 f   libcmtd:ieeemisc.obj
 0001:000a4660       __nextafter                004a5660 f   libcmtd:ieeemisc.obj
 0001:000a49a0       __finite                   004a59a0 f   libcmtd:ieeemisc.obj
 0001:000a49d0       __isnan                    004a59d0 f   libcmtd:ieeemisc.obj
 0001:000a4a20       __fpclass                  004a5a20 f   libcmtd:ieeemisc.obj
 0001:000a4b00       __woutput                  004a5b00 f   libcmtd:woutput.obj
 0001:000a58e0       __fltout2                  004a68e0 f   libcmtd:cfout.obj
 0001:000a5960       ___dtold                   004a6960 f   libcmtd:cfout.obj
 0001:000a5ad0       ?_ValidateRead@@YAHPBXI@Z  004a6ad0 f   libcmtd:validate.obj
 0001:000a5b00       ?_ValidateWrite@@YAHPAXI@Z 004a6b00 f   libcmtd:validate.obj
 0001:000a5b30       ?_ValidateExecute@@YAHP6GHXZ@Z 004a6b30 f   libcmtd:validate.obj
 0001:000a5b60       _abort                     004a6b60 f   libcmtd:abort.obj
 0001:000a5b80       __statusfp                 004a6b80 f   libcmtd:ieee87.obj
 0001:000a5ba0       __clearfp                  004a6ba0 f   libcmtd:ieee87.obj
 0001:000a5bc0       __control87                004a6bc0 f   libcmtd:ieee87.obj
 0001:000a5c10       __controlfp                004a6c10 f   libcmtd:ieee87.obj
 0001:000a5c30       __fpreset                  004a6c30 f   libcmtd:ieee87.obj
 0001:000a6020       __tolower                  004a7020 f   libcmtd:tolower.obj
 0001:000a6030       _tolower                   004a7030 f   libcmtd:tolower.obj
 0001:000a60d0       __tolower_lk               004a70d0 f   libcmtd:tolower.obj
 0001:000a6200       __ZeroTail                 004a7200 f   libcmtd:intrncvt.obj
 0001:000a6290       __IncMan                   004a7290 f   libcmtd:intrncvt.obj
 0001:000a6340       __RoundMan                 004a7340 f   libcmtd:intrncvt.obj
 0001:000a6420       __CopyMan                  004a7420 f   libcmtd:intrncvt.obj
 0001:000a6470       __FillZeroMan              004a7470 f   libcmtd:intrncvt.obj
 0001:000a64a0       __IsZeroMan                004a74a0 f   libcmtd:intrncvt.obj
 0001:000a64e0       __ShrMan                   004a74e0 f   libcmtd:intrncvt.obj
 0001:000a65d0       __ld12cvt                  004a75d0 f   libcmtd:intrncvt.obj
 0001:000a6820       __ld12tod                  004a7820 f   libcmtd:intrncvt.obj
 0001:000a6840       __ld12tof                  004a7840 f   libcmtd:intrncvt.obj
 0001:000a6860       __ld12told                 004a7860 f   libcmtd:intrncvt.obj
 0001:000a6920       __atodbl                   004a7920 f   libcmtd:intrncvt.obj
 0001:000a6960       __atoldbl                  004a7960 f   libcmtd:intrncvt.obj
 0001:000a69a0       __atoflt                   004a79a0 f   libcmtd:intrncvt.obj
 0001:000a69e0       __fptostr                  004a79e0 f   libcmtd:_fptostr.obj
 0001:000a6ae0       __fptrap                   004a7ae0 f   libcmtd:crt0fp.obj
 0001:000a6af0       ___strgtold12              004a7af0 f   libcmtd:strgtold.obj
 0001:000a7620       ___STRINGTOLD              004a8620 f   libcmtd:strgtold.obj
 0001:000a7670       __lseek                    004a8670 f   libcmtd:lseek.obj
 0001:000a7700       __lseek_lk                 004a8700 f   libcmtd:lseek.obj
 0001:000a77c0       __write                    004a87c0 f   libcmtd:write.obj
 0001:000a7850       __write_lk                 004a8850 f   libcmtd:write.obj
 0001:000a7ad0       __getbuf                   004a8ad0 f   libcmtd:_getbuf.obj
 0001:000a7ba0       __isatty                   004a8ba0 f   libcmtd:isatty.obj
 0001:000a7be0       ___initstdio               004a8be0 f   libcmtd:_file.obj
 0001:000a7d10       ___endstdio                004a8d10 f   libcmtd:_file.obj
 0001:000a7d30       __lock_file                004a8d30 f   libcmtd:_file.obj
 0001:000a7d70       __lock_file2               004a8d70 f   libcmtd:_file.obj
 0001:000a7da0       __unlock_file              004a8da0 f   libcmtd:_file.obj
 0001:000a7de0       __unlock_file2             004a8de0 f   libcmtd:_file.obj
 0001:000a7e10       _wctomb                    004a8e10 f   libcmtd:wctomb.obj
 0001:000a7e90       __wctomb_lk                004a8e90 f   libcmtd:wctomb.obj
 0001:000a7f30       __matherr                  004a8f30 f   libcmtd:matherr.obj
 0001:000a7f40       __ismbbkalnum              004a8f40 f   libcmtd:ismbbyte.obj
 0001:000a7f60       __ismbbkprint              004a8f60 f   libcmtd:ismbbyte.obj
 0001:000a7f80       __ismbbkpunct              004a8f80 f   libcmtd:ismbbyte.obj
 0001:000a7fa0       __ismbbalnum               004a8fa0 f   libcmtd:ismbbyte.obj
 0001:000a7fc0       __ismbbalpha               004a8fc0 f   libcmtd:ismbbyte.obj
 0001:000a7fe0       __ismbbgraph               004a8fe0 f   libcmtd:ismbbyte.obj
 0001:000a8000       __ismbbprint               004a9000 f   libcmtd:ismbbyte.obj
 0001:000a8020       __ismbbpunct               004a9020 f   libcmtd:ismbbyte.obj
 0001:000a8040       __ismbblead                004a9040 f   libcmtd:ismbbyte.obj
 0001:000a8060       __ismbbtrail               004a9060 f   libcmtd:ismbbyte.obj
 0001:000a8080       __ismbbkana                004a9080 f   libcmtd:ismbbyte.obj
 0001:000a8130       _getenv                    004a9130 f   libcmtd:getenv.obj
 0001:000a8160       __getenv_lk                004a9160 f   libcmtd:getenv.obj
 0001:000a8230       ___init_time               004a9230 f   libcmtd:inittime.obj
 0001:000a8bb0       ___init_numeric            004a9bb0 f   libcmtd:initnum.obj
 0001:000a8ee0       ___init_monetary           004a9ee0 f   libcmtd:initmon.obj
 0001:000a9340       ___init_ctype              004aa340 f   libcmtd:initctyp.obj
 0001:000a96e0       ___init_collate            004aa6e0 f   libcmtd:initcoll.obj
 0001:000a96f0       ___get_qualified_locale    004aa6f0 f   libcmtd:getqloc.obj
 0001:000aa490       _ldexp                     004ab490 f   libcmtd:ldexp.obj
 0001:000aa750       _mbtowc                    004ab750 f   libcmtd:mbtowc.obj
 0001:000aa7d0       __mbtowc_lk                004ab7d0 f   libcmtd:mbtowc.obj
 0001:000aa930       _fputwc                    004ab930 f   libcmtd:fputwc.obj
 0001:000aa9b0       __putwc_lk                 004ab9b0 f   libcmtd:fputwc.obj
 0001:000aabe0       _putwc                     004abbe0 f   libcmtd:fputwc.obj
 0001:000aac00       _$I10_OUTPUT               004abc00 f   libcmtd:x10fout.obj
 0001:000ab120       ___addl                    004ac120 f   libcmtd:mantold.obj
 0001:000ab160       ___add_12                  004ac160 f   libcmtd:mantold.obj
 0001:000ab210       ___shl_12                  004ac210 f   libcmtd:mantold.obj
 0001:000ab270       ___shr_12                  004ac270 f   libcmtd:mantold.obj
 0001:000ab2e0       ___mtold12                 004ac2e0 f   libcmtd:mantold.obj
 0001:000ab420       ___ld12mul                 004ac420 f   libcmtd:tenpow.obj
 0001:000ab860       ___multtenpow12            004ac860 f   libcmtd:tenpow.obj
 0001:000ab930       __alloc_osfhnd             004ac930 f   libcmtd:osfinfo.obj
 0001:000abb20       __set_osfhnd               004acb20 f   libcmtd:osfinfo.obj
 0001:000abbe0       __free_osfhnd              004acbe0 f   libcmtd:osfinfo.obj
 0001:000abcc0       __get_osfhandle            004accc0 f   libcmtd:osfinfo.obj
 0001:000abd30       __open_osfhandle           004acd30 f   libcmtd:osfinfo.obj
 0001:000abe40       __lock_fhandle             004ace40 f   libcmtd:osfinfo.obj
 0001:000abed0       __unlock_fhandle           004aced0 f   libcmtd:osfinfo.obj
 0001:000abf00       __fcloseall                004acf00 f   libcmtd:closeall.obj
 0001:000abfe0       _fflush                    004acfe0 f   libcmtd:fflush.obj
 0001:000ac030       __fflush_lk                004ad030 f   libcmtd:fflush.obj
 0001:000ac080       __flush                    004ad080 f   libcmtd:fflush.obj
 0001:000ac140       __flushall                 004ad140 f   libcmtd:fflush.obj
 0001:000ac290       __mbsnbicoll               004ad290 f   libcmtd:mbsnbico.obj
 0001:000ac2e0       ___wtomb_environ           004ad2e0 f   libcmtd:wtombenv.obj
 0001:000ac390       ___getlocaleinfo           004ad390 f   libcmtd:inithelp.obj
 0001:000ac620       _localeconv                004ad620 f   libcmtd:lconv.obj
 0001:000ac630       ___crtGetStringTypeW       004ad630 f   libcmtd:w_str.obj
 0001:000ac8a0       __strnicmp                 004ad8a0 f   libcmtd:strnicmp.obj
 0001:000ac9b0       __flswbuf                  004ad9b0 f   libcmtd:_flswbuf.obj
 0001:000acc40       _fclose                    004adc40 f   libcmtd:fclose.obj
 0001:000accd0       __fclose_lk                004adcd0 f   libcmtd:fclose.obj
 0001:000acd90       __commit                   004add90 f   libcmtd:commit.obj
 0001:000ace70       ___crtsetenv               004ade70 f   libcmtd:setenv.obj
 0001:000ad2c0       ___crtGetLocaleInfoW       004ae2c0 f   libcmtd:w_loc.obj
 0001:000ad460       ___crtGetLocaleInfoA       004ae460 f   libcmtd:a_loc.obj
 0001:000ad610       __close                    004ae610 f   libcmtd:close.obj
 0001:000ad690       __close_lk                 004ae690 f   libcmtd:close.obj
 0001:000ad740       __freebuf                  004ae740 f   libcmtd:_freebuf.obj
 0001:000ad7d2       _lstrcpyA@8                004ae7d2 f   kernel32:KERNEL32.dll
 0001:000ad7d8       _OutputDebugStringA@4      004ae7d8 f   kernel32:KERNEL32.dll
 0001:000ad7de       _lstrlenA@4                004ae7de f   kernel32:KERNEL32.dll
 0001:000ad7e4       _GetLogicalDriveStringsA@8 004ae7e4 f   kernel32:KERNEL32.dll
 0001:000ad7ea       _GlobalLock@4              004ae7ea f   kernel32:KERNEL32.dll
 0001:000ad7f0       _GlobalUnlock@4            004ae7f0 f   kernel32:KERNEL32.dll
 0001:000ad7f6       _GetCurrentDirectoryA@8    004ae7f6 f   kernel32:KERNEL32.dll
 0001:000ad7fc       _lstrcmpA@8                004ae7fc f   kernel32:KERNEL32.dll
 0001:000ad802       _GetTickCount@0            004ae802 f   kernel32:KERNEL32.dll
 0001:000ad808       _SetCurrentDirectoryA@4    004ae808 f   kernel32:KERNEL32.dll
 0001:000ad80e       _lstrcmpiA@8               004ae80e f   kernel32:KERNEL32.dll
 0001:000ad814       _GlobalFree@4              004ae814 f   kernel32:KERNEL32.dll
 0001:000ad81a       _GetSystemTime@4           004ae81a f   kernel32:KERNEL32.dll
 0001:000ad820       _GlobalReAlloc@12          004ae820 f   kernel32:KERNEL32.dll
 0001:000ad826       _GlobalAlloc@8             004ae826 f   kernel32:KERNEL32.dll
 0001:000ad82c       _WriteFile@20              004ae82c f   kernel32:KERNEL32.dll
 0001:000ad832       _CloseHandle@4             004ae832 f   kernel32:KERNEL32.dll
 0001:000ad838       _CreateFileA@28            004ae838 f   kernel32:KERNEL32.dll
 0001:000ad83e       _ReadFile@20               004ae83e f   kernel32:KERNEL32.dll
 0001:000ad844       _SetFilePointer@16         004ae844 f   kernel32:KERNEL32.dll
 0001:000ad84a       _GetModuleHandleA@4        004ae84a f   kernel32:KERNEL32.dll
 0001:000ad850       _lstrcatA@8                004ae850 f   kernel32:KERNEL32.dll
 0001:000ad856       _GetLastError@0            004ae856 f   kernel32:KERNEL32.dll
 0001:000ad85c       _DuplicateHandle@28        004ae85c f   kernel32:KERNEL32.dll
 0001:000ad862       _GetCurrentProcess@0       004ae862 f   kernel32:KERNEL32.dll
 0001:000ad868       _FlushFileBuffers@4        004ae868 f   kernel32:KERNEL32.dll
 0001:000ad86e       _LockFile@20               004ae86e f   kernel32:KERNEL32.dll
 0001:000ad874       _UnlockFile@20             004ae874 f   kernel32:KERNEL32.dll
 0001:000ad87a       _SetEndOfFile@4            004ae87a f   kernel32:KERNEL32.dll
 0001:000ad880       _MoveFileA@8               004ae880 f   kernel32:KERNEL32.dll
 0001:000ad886       _DeleteFileA@4             004ae886 f   kernel32:KERNEL32.dll
 0001:000ad88c       _GetProcAddress@8          004ae88c f   kernel32:KERNEL32.dll
 0001:000ad892       _LoadLibraryA@4            004ae892 f   kernel32:KERNEL32.dll
 0001:000ad898       _MultiByteToWideChar@24    004ae898 f   kernel32:KERNEL32.dll
 0001:000ad89e       _FindClose@4               004ae89e f   kernel32:KERNEL32.dll
 0001:000ad8a4       _FindFirstFileA@8          004ae8a4 f   kernel32:KERNEL32.dll
 0001:000ad8aa       _GetVolumeInformationA@32  004ae8aa f   kernel32:KERNEL32.dll
 0001:000ad8b0       _lstrcpynA@12              004ae8b0 f   kernel32:KERNEL32.dll
 0001:000ad8b6       _GetFullPathNameA@16       004ae8b6 f   kernel32:KERNEL32.dll
 0001:000ad8bc       _GetStringTypeExA@20       004ae8bc f   kernel32:KERNEL32.dll
 0001:000ad8c2       _GetThreadLocale@0         004ae8c2 f   kernel32:KERNEL32.dll
 0001:000ad8c8       _GetShortPathNameA@12      004ae8c8 f   kernel32:KERNEL32.dll
 0001:000ad8ce       _GetModuleFileNameA@12     004ae8ce f   kernel32:KERNEL32.dll
 0001:000ad8d4       _InterlockedIncrement@4    004ae8d4 f   kernel32:KERNEL32.dll
 0001:000ad8da       _InterlockedDecrement@4    004ae8da f   kernel32:KERNEL32.dll
 0001:000ad8e0       _WideCharToMultiByte@32    004ae8e0 f   kernel32:KERNEL32.dll
 0001:000ad8e6       _GlobalDeleteAtom@4        004ae8e6 f   kernel32:KERNEL32.dll
 0001:000ad8ec       _GlobalFindAtomA@4         004ae8ec f   kernel32:KERNEL32.dll
 0001:000ad8f2       _GlobalAddAtomA@4          004ae8f2 f   kernel32:KERNEL32.dll
 0001:000ad8f8       _GlobalGetAtomNameA@12     004ae8f8 f   kernel32:KERNEL32.dll
 0001:000ad8fe       _GetCurrentThreadId@0      004ae8fe f   kernel32:KERNEL32.dll
 0001:000ad904       _GetVersion@0              004ae904 f   kernel32:KERNEL32.dll
 0001:000ad90a       _FreeResource@4            004ae90a f   kernel32:KERNEL32.dll
 0001:000ad910       _LockResource@4            004ae910 f   kernel32:KERNEL32.dll
 0001:000ad916       _LoadResource@8            004ae916 f   kernel32:KERNEL32.dll
 0001:000ad91c       _FindResourceA@12          004ae91c f   kernel32:KERNEL32.dll
 0001:000ad922       _FreeLibrary@4             004ae922 f   kernel32:KERNEL32.dll
 0001:000ad928       _SetThreadPriority@8       004ae928 f   kernel32:KERNEL32.dll
 0001:000ad92e       _GetThreadPriority@4       004ae92e f   kernel32:KERNEL32.dll
 0001:000ad934       _ResumeThread@4            004ae934 f   kernel32:KERNEL32.dll
 0001:000ad93a       _SuspendThread@4           004ae93a f   kernel32:KERNEL32.dll
 0001:000ad940       _SetLastError@4            004ae940 f   kernel32:KERNEL32.dll
 0001:000ad946       _MulDiv@12                 004ae946 f   kernel32:KERNEL32.dll
 0001:000ad94c       _FindNextFileA@8           004ae94c f   kernel32:KERNEL32.dll
 0001:000ad952       _LocalFree@4               004ae952 f   kernel32:KERNEL32.dll
 0001:000ad958       _FormatMessageA@28         004ae958 f   kernel32:KERNEL32.dll
 0001:000ad95e       _IsBadStringPtrW@8         004ae95e f   kernel32:KERNEL32.dll
 0001:000ad964       _IsBadStringPtrA@8         004ae964 f   kernel32:KERNEL32.dll
 0001:000ad96a       _IsBadWritePtr@8           004ae96a f   kernel32:KERNEL32.dll
 0001:000ad970       _IsBadReadPtr@8            004ae970 f   kernel32:KERNEL32.dll
 0001:000ad976       _lstrlenW@4                004ae976 f   kernel32:KERNEL32.dll
 0001:000ad97c       _GetCurrentThread@0        004ae97c f   kernel32:KERNEL32.dll
 0001:000ad982       _WaitForSingleObject@8     004ae982 f   kernel32:KERNEL32.dll
 0001:000ad988       _SetEvent@4                004ae988 f   kernel32:KERNEL32.dll
 0001:000ad98e       _CreateEventA@16           004ae98e f   kernel32:KERNEL32.dll
 0001:000ad994       _GetFileAttributesA@4      004ae994 f   kernel32:KERNEL32.dll
 0001:000ad99a       _GetFileSize@8             004ae99a f   kernel32:KERNEL32.dll
 0001:000ad9a0       _GetFileTime@16            004ae9a0 f   kernel32:KERNEL32.dll
 0001:000ad9a6       _LocalFileTimeToFileTime@8 004ae9a6 f   kernel32:KERNEL32.dll
 0001:000ad9ac       _SystemTimeToFileTime@8    004ae9ac f   kernel32:KERNEL32.dll
 0001:000ad9b2       _SetFileTime@16            004ae9b2 f   kernel32:KERNEL32.dll
 0001:000ad9b8       _SetFileAttributesA@8      004ae9b8 f   kernel32:KERNEL32.dll
 0001:000ad9be       _SetErrorMode@4            004ae9be f   kernel32:KERNEL32.dll
 0001:000ad9c4       _FileTimeToSystemTime@8    004ae9c4 f   kernel32:KERNEL32.dll
 0001:000ad9ca       _FileTimeToLocalFileTime@8 004ae9ca f   kernel32:KERNEL32.dll
 0001:000ad9d0       _VirtualProtect@16         004ae9d0 f   kernel32:KERNEL32.dll
 0001:000ad9d6       _GetProfileIntA@12         004ae9d6 f   kernel32:KERNEL32.dll
 0001:000ad9dc       _GlobalFlags@4             004ae9dc f   kernel32:KERNEL32.dll
 0001:000ad9e2       _GetPrivateProfileIntA@16  004ae9e2 f   kernel32:KERNEL32.dll
 0001:000ad9e8       _GetProcessVersion@4       004ae9e8 f   kernel32:KERNEL32.dll
 0001:000ad9ee       _GetCPInfo@8               004ae9ee f   kernel32:KERNEL32.dll
 0001:000ad9f4       _GetOEMCP@0                004ae9f4 f   kernel32:KERNEL32.dll
 0001:000ad9fa       _InitializeCriticalSection@4 004ae9fa f   kernel32:KERNEL32.dll
 0001:000ada00       _DeleteCriticalSection@4   004aea00 f   kernel32:KERNEL32.dll
 0001:000ada06       _LeaveCriticalSection@4    004aea06 f   kernel32:KERNEL32.dll
 0001:000ada0c       _EnterCriticalSection@4    004aea0c f   kernel32:KERNEL32.dll
 0001:000ada12       _LocalAlloc@8              004aea12 f   kernel32:KERNEL32.dll
 0001:000ada18       _TlsAlloc@0                004aea18 f   kernel32:KERNEL32.dll
 0001:000ada1e       _GlobalHandle@4            004aea1e f   kernel32:KERNEL32.dll
 0001:000ada24       _TlsFree@4                 004aea24 f   kernel32:KERNEL32.dll
 0001:000ada2a       _TlsSetValue@8             004aea2a f   kernel32:KERNEL32.dll
 0001:000ada30       _LocalReAlloc@12           004aea30 f   kernel32:KERNEL32.dll
 0001:000ada36       _TlsGetValue@4             004aea36 f   kernel32:KERNEL32.dll
 0001:000ada3c       _SizeofResource@8          004aea3c f   kernel32:KERNEL32.dll
 0001:000ada42       _GlobalSize@4              004aea42 f   kernel32:KERNEL32.dll
 0001:000ada48       _CopyFileA@12              004aea48 f   kernel32:KERNEL32.dll
 0001:000ada4e       _GetPrivateProfileStringA@24 004aea4e f   kernel32:KERNEL32.dll
 0001:000ada54       _WritePrivateProfileStringA@16 004aea54 f   kernel32:KERNEL32.dll
 0001:000ada5a       _FindResourceExA@16        004aea5a f   kernel32:KERNEL32.dll
 0001:000ada60       _GetTempFileNameA@16       004aea60 f   kernel32:KERNEL32.dll
 0001:000ada66       _GetDiskFreeSpaceA@20      004aea66 f   kernel32:KERNEL32.dll
 0001:000ada6c       _lstrcpyW@8                004aea6c f   kernel32:KERNEL32.dll
 0001:000ada72       _RtlUnwind@16              004aea72 f   kernel32:KERNEL32.dll
 0001:000ada78       _ExitProcess@4             004aea78 f   kernel32:KERNEL32.dll
 0001:000ada7e       _TerminateProcess@8        004aea7e f   kernel32:KERNEL32.dll
 0001:000ada84       _GetStartupInfoA@4         004aea84 f   kernel32:KERNEL32.dll
 0001:000ada8a       _GetCommandLineA@0         004aea8a f   kernel32:KERNEL32.dll
 0001:000ada90       _HeapValidate@12           004aea90 f   kernel32:KERNEL32.dll
 0001:000ada96       _DebugBreak@0              004aea96 f   kernel32:KERNEL32.dll
 0001:000ada9c       _GetStdHandle@4            004aea9c f   kernel32:KERNEL32.dll
 0001:000adaa2       _RaiseException@16         004aeaa2 f   kernel32:KERNEL32.dll
 0001:000adaa8       _CreateThread@24           004aeaa8 f   kernel32:KERNEL32.dll
 0001:000adaae       _ExitThread@4              004aeaae f   kernel32:KERNEL32.dll
 0001:000adab4       _GetTimeZoneInformation@4  004aeab4 f   kernel32:KERNEL32.dll
 0001:000adaba       _GetLocalTime@4            004aeaba f   kernel32:KERNEL32.dll
 0001:000adac0       _GetACP@0                  004aeac0 f   kernel32:KERNEL32.dll
 0001:000adac6       _FatalAppExitA@8           004aeac6 f   kernel32:KERNEL32.dll
 0001:000adacc       _UnhandledExceptionFilter@4 004aeacc f   kernel32:KERNEL32.dll
 0001:000adad2       _FreeEnvironmentStringsA@4 004aead2 f   kernel32:KERNEL32.dll
 0001:000adad8       _FreeEnvironmentStringsW@4 004aead8 f   kernel32:KERNEL32.dll
 0001:000adade       _GetEnvironmentStrings@0   004aeade f   kernel32:KERNEL32.dll
 0001:000adae4       _GetEnvironmentStringsW@0  004aeae4 f   kernel32:KERNEL32.dll
 0001:000adaea       _SetHandleCount@4          004aeaea f   kernel32:KERNEL32.dll
 0001:000adaf0       _GetFileType@4             004aeaf0 f   kernel32:KERNEL32.dll
 0001:000adaf6       _GetEnvironmentVariableA@12 004aeaf6 f   kernel32:KERNEL32.dll
 0001:000adafc       _GetVersionExA@4           004aeafc f   kernel32:KERNEL32.dll
 0001:000adb02       _HeapDestroy@4             004aeb02 f   kernel32:KERNEL32.dll
 0001:000adb08       _HeapCreate@12             004aeb08 f   kernel32:KERNEL32.dll
 0001:000adb0e       _HeapFree@12               004aeb0e f   kernel32:KERNEL32.dll
 0001:000adb14       _VirtualFree@12            004aeb14 f   kernel32:KERNEL32.dll
 0001:000adb1a       _HeapAlloc@12              004aeb1a f   kernel32:KERNEL32.dll
 0001:000adb20       _HeapReAlloc@16            004aeb20 f   kernel32:KERNEL32.dll
 0001:000adb26       _VirtualAlloc@16           004aeb26 f   kernel32:KERNEL32.dll
 0001:000adb2c       _SetConsoleCtrlHandler@8   004aeb2c f   kernel32:KERNEL32.dll
 0001:000adb32       _LCMapStringA@24           004aeb32 f   kernel32:KERNEL32.dll
 0001:000adb38       _LCMapStringW@24           004aeb38 f   kernel32:KERNEL32.dll
 0001:000adb3e       _CompareStringA@24         004aeb3e f   kernel32:KERNEL32.dll
 0001:000adb44       _CompareStringW@24         004aeb44 f   kernel32:KERNEL32.dll
 0001:000adb4a       _SetUnhandledExceptionFilter@4 004aeb4a f   kernel32:KERNEL32.dll
 0001:000adb50       _GetDriveTypeA@4           004aeb50 f   kernel32:KERNEL32.dll
 0001:000adb56       _GetStringTypeA@20         004aeb56 f   kernel32:KERNEL32.dll
 0001:000adb5c       _GetStringTypeW@16         004aeb5c f   kernel32:KERNEL32.dll
 0001:000adb62       _Sleep@4                   004aeb62 f   kernel32:KERNEL32.dll
 0001:000adb68       _IsBadCodePtr@4            004aeb68 f   kernel32:KERNEL32.dll
 0001:000adb6e       _IsValidLocale@8           004aeb6e f   kernel32:KERNEL32.dll
 0001:000adb74       _IsValidCodePage@4         004aeb74 f   kernel32:KERNEL32.dll
 0001:000adb7a       _GetLocaleInfoA@16         004aeb7a f   kernel32:KERNEL32.dll
 0001:000adb80       _EnumSystemLocalesA@8      004aeb80 f   kernel32:KERNEL32.dll
 0001:000adb86       _GetUserDefaultLCID@0      004aeb86 f   kernel32:KERNEL32.dll
 0001:000adb8c       _SetStdHandle@8            004aeb8c f   kernel32:KERNEL32.dll
 0001:000adb92       _SetEnvironmentVariableA@8 004aeb92 f   kernel32:KERNEL32.dll
 0001:000adb98       _GetLocaleInfoW@16         004aeb98 f   kernel32:KERNEL32.dll
 0001:000adb9e       _PtInRect@12               004aeb9e f   user32:USER32.dll
 0001:000adba4       _wsprintfA                 004aeba4 f   user32:USER32.dll
 0001:000adbaa       _MessageBoxA@16            004aebaa f   user32:USER32.dll
 0001:000adbb0       _GetSysColor@4             004aebb0 f   user32:USER32.dll
 0001:000adbb6       _GetSystemMetrics@4        004aebb6 f   user32:USER32.dll
 0001:000adbbc       _SetRect@20                004aebbc f   user32:USER32.dll
 0001:000adbc2       _GetCursorPos@4            004aebc2 f   user32:USER32.dll
 0001:000adbc8       _DispatchMessageA@4        004aebc8 f   user32:USER32.dll
 0001:000adbce       _TranslateMessage@4        004aebce f   user32:USER32.dll
 0001:000adbd4       _PeekMessageA@20           004aebd4 f   user32:USER32.dll
 0001:000adbda       _LoadCursorA@8             004aebda f   user32:USER32.dll
 0001:000adbe0       _AdjustWindowRect@12       004aebe0 f   user32:USER32.dll
 0001:000adbe6       _ReleaseDC@8               004aebe6 f   user32:USER32.dll
 0001:000adbec       _GetDC@4                   004aebec f   user32:USER32.dll
 0001:000adbf2       _LoadIconA@8               004aebf2 f   user32:USER32.dll
 0001:000adbf8       _DestroyIcon@4             004aebf8 f   user32:USER32.dll
 0001:000adbfe       _ShowCursor@4              004aebfe f   user32:USER32.dll
 0001:000adc04       _GetAsyncKeyState@4        004aec04 f   user32:USER32.dll
 0001:000adc0a       _ScreenToClient@8          004aec0a f   user32:USER32.dll
 0001:000adc10       _ReleaseCapture@0          004aec10 f   user32:USER32.dll
 0001:000adc16       _SetCursor@4               004aec16 f   user32:USER32.dll
 0001:000adc1c       _GetKeyState@4             004aec1c f   user32:USER32.dll
 0001:000adc22       _DestroyCursor@4           004aec22 f   user32:USER32.dll
 0001:000adc28       _LoadImageA@24             004aec28 f   user32:USER32.dll
 0001:000adc2e       _ClientToScreen@8          004aec2e f   user32:USER32.dll
 0001:000adc34       _GetClientRect@8           004aec34 f   user32:USER32.dll
 0001:000adc3a       _IntersectRect@12          004aec3a f   user32:USER32.dll
 0001:000adc40       _CharUpperA@4              004aec40 f   user32:USER32.dll
 0001:000adc46       _CharToOemA@8              004aec46 f   user32:USER32.dll
 0001:000adc4c       _OemToCharA@8              004aec4c f   user32:USER32.dll
 0001:000adc52       _SendMessageA@16           004aec52 f   user32:USER32.dll
 0001:000adc58       _IsWindow@4                004aec58 f   user32:USER32.dll
 0001:000adc5e       _PostMessageA@16           004aec5e f   user32:USER32.dll
 0001:000adc64       _TabbedTextOutA@32         004aec64 f   user32:USER32.dll
 0001:000adc6a       _CopyRect@8                004aec6a f   user32:USER32.dll
 0001:000adc70       _IsRectEmpty@4             004aec70 f   user32:USER32.dll
 0001:000adc76       _SetRectEmpty@4            004aec76 f   user32:USER32.dll
 0001:000adc7c       _EqualRect@8               004aec7c f   user32:USER32.dll
 0001:000adc82       _InflateRect@12            004aec82 f   user32:USER32.dll
 0001:000adc88       _OffsetRect@12             004aec88 f   user32:USER32.dll
 0001:000adc8e       _UnionRect@12              004aec8e f   user32:USER32.dll
 0001:000adc94       _SubtractRect@12           004aec94 f   user32:USER32.dll
 0001:000adc9a       _GetSysColorBrush@4        004aec9a f   user32:USER32.dll
 0001:000adca0       _LoadBitmapA@8             004aeca0 f   user32:USER32.dll
 0001:000adca6       _WindowFromDC@4            004aeca6 f   user32:USER32.dll
 0001:000adcac       _ExcludeUpdateRgn@8        004aecac f   user32:USER32.dll
 0001:000adcb2       _FillRect@12               004aecb2 f   user32:USER32.dll
 0001:000adcb8       _FrameRect@12              004aecb8 f   user32:USER32.dll
 0001:000adcbe       _InvertRect@8              004aecbe f   user32:USER32.dll
 0001:000adcc4       _DrawIcon@16               004aecc4 f   user32:USER32.dll
 0001:000adcca       _DrawStateA@40             004aecca f   user32:USER32.dll
 0001:000adcd0       _DrawEdge@16               004aecd0 f   user32:USER32.dll
 0001:000adcd6       _DrawFrameControl@16       004aecd6 f   user32:USER32.dll
 0001:000adcdc       _DrawFocusRect@8           004aecdc f   user32:USER32.dll
 0001:000adce2       _DrawTextA@20              004aece2 f   user32:USER32.dll
 0001:000adce8       _GetTabbedTextExtentA@20   004aece8 f   user32:USER32.dll
 0001:000adcee       _GrayStringA@36            004aecee f   user32:USER32.dll
 0001:000adcf4       _ScrollDC@28               004aecf4 f   user32:USER32.dll
 0001:000adcfa       _CreateMenu@0              004aecfa f   user32:USER32.dll
 0001:000add00       _CreatePopupMenu@0         004aed00 f   user32:USER32.dll
 0001:000add06       _IsMenu@4                  004aed06 f   user32:USER32.dll
 0001:000add0c       _DeleteMenu@12             004aed0c f   user32:USER32.dll
 0001:000add12       _AppendMenuA@16            004aed12 f   user32:USER32.dll
 0001:000add18       _CheckMenuItem@12          004aed18 f   user32:USER32.dll
 0001:000add1e       _EnableMenuItem@12         004aed1e f   user32:USER32.dll
 0001:000add24       _SetMenuDefaultItem@12     004aed24 f   user32:USER32.dll
 0001:000add2a       _GetMenuDefaultItem@12     004aed2a f   user32:USER32.dll
 0001:000add30       _GetMenuItemCount@4        004aed30 f   user32:USER32.dll
 0001:000add36       _GetMenuItemID@8           004aed36 f   user32:USER32.dll
 0001:000add3c       _GetMenuState@12           004aed3c f   user32:USER32.dll
 0001:000add42       _GetMenuStringA@20         004aed42 f   user32:USER32.dll
 0001:000add48       _GetMenuItemInfoA@16       004aed48 f   user32:USER32.dll
 0001:000add4e       _GetSubMenu@8              004aed4e f   user32:USER32.dll
 0001:000add54       _InsertMenuA@20            004aed54 f   user32:USER32.dll
 0001:000add5a       _ModifyMenuA@20            004aed5a f   user32:USER32.dll
 0001:000add60       _RemoveMenu@12             004aed60 f   user32:USER32.dll
 0001:000add66       _SetMenuItemBitmaps@20     004aed66 f   user32:USER32.dll
 0001:000add6c       _LoadMenuA@8               004aed6c f   user32:USER32.dll
 0001:000add72       _LoadMenuIndirectA@4       004aed72 f   user32:USER32.dll
 0001:000add78       _SetMenuContextHelpId@8    004aed78 f   user32:USER32.dll
 0001:000add7e       _GetMenuContextHelpId@4    004aed7e f   user32:USER32.dll
 0001:000add84       _CheckMenuRadioItem@20     004aed84 f   user32:USER32.dll
 0001:000add8a       _GetWindowRect@8           004aed8a f   user32:USER32.dll
 0001:000add90       _GetWindowPlacement@8      004aed90 f   user32:USER32.dll
 0001:000add96       _IsIconic@4                004aed96 f   user32:USER32.dll
 0001:000add9c       _SystemParametersInfoA@16  004aed9c f   user32:USER32.dll
 0001:000adda2       _RegisterWindowMessageA@4  004aeda2 f   user32:USER32.dll
 0001:000adda8       _SetWindowPos@28           004aeda8 f   user32:USER32.dll
 0001:000addae       _SetWindowLongA@12         004aedae f   user32:USER32.dll
 0001:000addb4       _GetWindowLongA@8          004aedb4 f   user32:USER32.dll
 0001:000addba       _GetMessagePos@0           004aedba f   user32:USER32.dll
 0001:000addc0       _GetMessageTime@0          004aedc0 f   user32:USER32.dll
 0001:000addc6       _RemovePropA@8             004aedc6 f   user32:USER32.dll
 0001:000addcc       _CallWindowProcA@20        004aedcc f   user32:USER32.dll
 0001:000addd2       _GetPropA@8                004aedd2 f   user32:USER32.dll
 0001:000addd8       _UnhookWindowsHookEx@4     004aedd8 f   user32:USER32.dll
 0001:000addde       _SetPropA@12               004aedde f   user32:USER32.dll
 0001:000adde4       _GetClassLongA@8           004aede4 f   user32:USER32.dll
 0001:000addea       _CallNextHookEx@16         004aedea f   user32:USER32.dll
 0001:000addf0       _SetWindowsHookExA@16      004aedf0 f   user32:USER32.dll
 0001:000addf6       _CreateWindowExA@48        004aedf6 f   user32:USER32.dll
 0001:000addfc       _GetDlgCtrlID@4            004aedfc f   user32:USER32.dll
 0001:000ade02       _GetClassNameA@12          004aee02 f   user32:USER32.dll
 0001:000ade08       _DefWindowProcA@16         004aee08 f   user32:USER32.dll
 0001:000ade0e       _DestroyWindow@4           004aee0e f   user32:USER32.dll
 0001:000ade14       _GetWindowTextA@12         004aee14 f   user32:USER32.dll
 0001:000ade1a       _GetWindowTextLengthA@4    004aee1a f   user32:USER32.dll
 0001:000ade20       _GetDlgItem@8              004aee20 f   user32:USER32.dll
 0001:000ade26       _SetWindowPlacement@8      004aee26 f   user32:USER32.dll
 0001:000ade2c       _TrackPopupMenu@28         004aee2c f   user32:USER32.dll
 0001:000ade32       _RegisterClassA@4          004aee32 f   user32:USER32.dll
 0001:000ade38       _GetClassInfoA@12          004aee38 f   user32:USER32.dll
 0001:000ade3e       _WinHelpA@16               004aee3e f   user32:USER32.dll
 0001:000ade44       _GetCapture@0              004aee44 f   user32:USER32.dll
 0001:000ade4a       _GetWindow@8               004aee4a f   user32:USER32.dll
 0001:000ade50       _GetParent@4               004aee50 f   user32:USER32.dll
 0001:000ade56       _IsChild@8                 004aee56 f   user32:USER32.dll
 0001:000ade5c       _GetTopWindow@4            004aee5c f   user32:USER32.dll
 0001:000ade62       _SetScrollPos@16           004aee62 f   user32:USER32.dll
 0001:000ade68       _GetScrollPos@8            004aee68 f   user32:USER32.dll
 0001:000ade6e       _SetScrollRange@20         004aee6e f   user32:USER32.dll
 0001:000ade74       _GetScrollRange@16         004aee74 f   user32:USER32.dll
 0001:000ade7a       _SetScrollInfo@16          004aee7a f   user32:USER32.dll
 0001:000ade80       _GetScrollInfo@12          004aee80 f   user32:USER32.dll
 0001:000ade86       _ScrollWindow@20           004aee86 f   user32:USER32.dll
 0001:000ade8c       _EndDeferWindowPos@4       004aee8c f   user32:USER32.dll
 0001:000ade92       _BeginDeferWindowPos@4     004aee92 f   user32:USER32.dll
 0001:000ade98       _DeferWindowPos@32         004aee98 f   user32:USER32.dll
 0001:000ade9e       _AdjustWindowRectEx@16     004aee9e f   user32:USER32.dll
 0001:000adea4       _SetFocus@4                004aeea4 f   user32:USER32.dll
 0001:000adeaa       _SetActiveWindow@4         004aeeaa f   user32:USER32.dll
 0001:000adeb0       _GetFocus@0                004aeeb0 f   user32:USER32.dll
 0001:000adeb6       _MapWindowPoints@16        004aeeb6 f   user32:USER32.dll
 0001:000adebc       _SendDlgItemMessageA@20    004aeebc f   user32:USER32.dll
 0001:000adec2       _CheckDlgButton@12         004aeec2 f   user32:USER32.dll
 0001:000adec8       _CheckRadioButton@16       004aeec8 f   user32:USER32.dll
 0001:000adece       _GetDlgItemInt@16          004aeece f   user32:USER32.dll
 0001:000aded4       _GetDlgItemTextA@16        004aeed4 f   user32:USER32.dll
 0001:000adeda       _SetDlgItemInt@16          004aeeda f   user32:USER32.dll
 0001:000adee0       _SetDlgItemTextA@12        004aeee0 f   user32:USER32.dll
 0001:000adee6       _IsDlgButtonChecked@8      004aeee6 f   user32:USER32.dll
 0001:000adeec       _ScrollWindowEx@32         004aeeec f   user32:USER32.dll
 0001:000adef2       _IsDialogMessageA@8        004aeef2 f   user32:USER32.dll
 0001:000adef8       _SetWindowTextA@8          004aeef8 f   user32:USER32.dll
 0001:000adefe       _MoveWindow@24             004aeefe f   user32:USER32.dll
 0001:000adf04       _ShowWindow@8              004aef04 f   user32:USER32.dll
 0001:000adf0a       _IsWindowEnabled@4         004aef0a f   user32:USER32.dll
 0001:000adf10       _EnableWindow@8            004aef10 f   user32:USER32.dll
 0001:000adf16       _GetMenu@4                 004aef16 f   user32:USER32.dll
 0001:000adf1c       _SetMenu@8                 004aef1c f   user32:USER32.dll
 0001:000adf22       _DrawMenuBar@4             004aef22 f   user32:USER32.dll
 0001:000adf28       _GetSystemMenu@8           004aef28 f   user32:USER32.dll
 0001:000adf2e       _HiliteMenuItem@16         004aef2e f   user32:USER32.dll
 0001:000adf34       _IsZoomed@4                004aef34 f   user32:USER32.dll
 0001:000adf3a       _ArrangeIconicWindows@4    004aef3a f   user32:USER32.dll
 0001:000adf40       _SetWindowRgn@12           004aef40 f   user32:USER32.dll
 0001:000adf46       _GetWindowRgn@8            004aef46 f   user32:USER32.dll
 0001:000adf4c       _BringWindowToTop@4        004aef4c f   user32:USER32.dll
 0001:000adf52       _BeginPaint@8              004aef52 f   user32:USER32.dll
 0001:000adf58       _EndPaint@8                004aef58 f   user32:USER32.dll
 0001:000adf5e       _GetWindowDC@4             004aef5e f   user32:USER32.dll
 0001:000adf64       _UpdateWindow@4            004aef64 f   user32:USER32.dll
 0001:000adf6a       _GetUpdateRect@12          004aef6a f   user32:USER32.dll
 0001:000adf70       _GetUpdateRgn@12           004aef70 f   user32:USER32.dll
 0001:000adf76       _InvalidateRect@12         004aef76 f   user32:USER32.dll
 0001:000adf7c       _InvalidateRgn@12          004aef7c f   user32:USER32.dll
 0001:000adf82       _ValidateRect@8            004aef82 f   user32:USER32.dll
 0001:000adf88       _ValidateRgn@8             004aef88 f   user32:USER32.dll
 0001:000adf8e       _IsWindowVisible@4         004aef8e f   user32:USER32.dll
 0001:000adf94       _ShowOwnedPopups@8         004aef94 f   user32:USER32.dll
 0001:000adf9a       _GetDCEx@12                004aef9a f   user32:USER32.dll
 0001:000adfa0       _LockWindowUpdate@4        004aefa0 f   user32:USER32.dll
 0001:000adfa6       _RedrawWindow@16           004aefa6 f   user32:USER32.dll
 0001:000adfac       _EnableScrollBar@12        004aefac f   user32:USER32.dll
 0001:000adfb2       _SetTimer@16               004aefb2 f   user32:USER32.dll
 0001:000adfb8       _KillTimer@8               004aefb8 f   user32:USER32.dll
 0001:000adfbe       _GetActiveWindow@0         004aefbe f   user32:USER32.dll
 0001:000adfc4       _SetCapture@4              004aefc4 f   user32:USER32.dll
 0001:000adfca       _GetDesktopWindow@0        004aefca f   user32:USER32.dll
 0001:000adfd0       _DlgDirListA@20            004aefd0 f   user32:USER32.dll
 0001:000adfd6       _DlgDirListComboBoxA@20    004aefd6 f   user32:USER32.dll
 0001:000adfdc       _DlgDirSelectExA@16        004aefdc f   user32:USER32.dll
 0001:000adfe2       _DlgDirSelectComboBoxExA@16 004aefe2 f   user32:USER32.dll
 0001:000adfe8       _GetNextDlgGroupItem@12    004aefe8 f   user32:USER32.dll
 0001:000adfee       _GetNextDlgTabItem@12      004aefee f   user32:USER32.dll
 0001:000adff4       _ShowScrollBar@12          004aeff4 f   user32:USER32.dll
 0001:000adffa       _ChildWindowFromPoint@12   004aeffa f   user32:USER32.dll
 0001:000ae000       _ChildWindowFromPointEx@16 004af000 f   user32:USER32.dll
 0001:000ae006       _FindWindowA@8             004af006 f   user32:USER32.dll
 0001:000ae00c       _GetLastActivePopup@4      004af00c f   user32:USER32.dll
 0001:000ae012       _SetParent@8               004af012 f   user32:USER32.dll
 0001:000ae018       _WindowFromPoint@8         004af018 f   user32:USER32.dll
 0001:000ae01e       _FlashWindow@8             004af01e f   user32:USER32.dll
 0001:000ae024       _ChangeClipboardChain@8    004af024 f   user32:USER32.dll
 0001:000ae02a       _SetClipboardViewer@4      004af02a f   user32:USER32.dll
 0001:000ae030       _OpenClipboard@4           004af030 f   user32:USER32.dll
 0001:000ae036       _GetOpenClipboardWindow@0  004af036 f   user32:USER32.dll
 0001:000ae03c       _GetClipboardOwner@0       004af03c f   user32:USER32.dll
 0001:000ae042       _GetClipboardViewer@0      004af042 f   user32:USER32.dll
 0001:000ae048       _CreateCaret@16            004af048 f   user32:USER32.dll
 0001:000ae04e       _GetCaretPos@4             004af04e f   user32:USER32.dll
 0001:000ae054       _SetCaretPos@8             004af054 f   user32:USER32.dll
 0001:000ae05a       _HideCaret@4               004af05a f   user32:USER32.dll
 0001:000ae060       _ShowCaret@4               004af060 f   user32:USER32.dll
 0001:000ae066       _SetForegroundWindow@4     004af066 f   user32:USER32.dll
 0001:000ae06c       _GetForegroundWindow@0     004af06c f   user32:USER32.dll
 0001:000ae072       _SendNotifyMessageA@16     004af072 f   user32:USER32.dll
 0001:000ae078       _SetWindowContextHelpId@8  004af078 f   user32:USER32.dll
 0001:000ae07e       _GetWindowContextHelpId@4  004af07e f   user32:USER32.dll
 0001:000ae084       _MapDialogRect@8           004af084 f   user32:USER32.dll
 0001:000ae08a       _PostThreadMessageA@16     004af08a f   user32:USER32.dll
 0001:000ae090       _CloseWindow@4             004af090 f   user32:USER32.dll
 0001:000ae096       _OpenIcon@4                004af096 f   user32:USER32.dll
 0001:000ae09c       _GetMenuCheckMarkDimensions@0 004af09c f   user32:USER32.dll
 0001:000ae0a2       _CreateDialogIndirectParamA@20 004af0a2 f   user32:USER32.dll
 0001:000ae0a8       _EndDialog@8               004af0a8 f   user32:USER32.dll
 0001:000ae0ae       _wvsprintfA@12             004af0ae f   user32:USER32.dll
 0001:000ae0b4       _PostQuitMessage@4         004af0b4 f   user32:USER32.dll
 0001:000ae0ba       _CharNextA@4               004af0ba f   user32:USER32.dll
 0001:000ae0c0       _GetMessageA@16            004af0c0 f   user32:USER32.dll
 0001:000ae0c6       _LoadStringA@16            004af0c6 f   user32:USER32.dll
 0001:000ae0cc       _SetCursorPos@8            004af0cc f   user32:USER32.dll
 0001:000ae0d2       _DestroyMenu@4             004af0d2 f   user32:USER32.dll
 0001:000ae0d8       _GetClipboardFormatNameA@12 004af0d8 f   user32:USER32.dll
 0001:000ae0de       _UnpackDDElParam@16        004af0de f   user32:USER32.dll
 0001:000ae0e4       _GetDialogBaseUnits@0      004af0e4 f   user32:USER32.dll
 0001:000ae0ea       _LoadAcceleratorsA@8       004af0ea f   user32:USER32.dll
 0001:000ae0f0       _TranslateAcceleratorA@12  004af0f0 f   user32:USER32.dll
 0001:000ae0f6       _ReuseDDElParam@20         004af0f6 f   user32:USER32.dll
 0001:000ae0fc       _CopyAcceleratorTableA@12  004af0fc f   user32:USER32.dll
 0001:000ae102       _WaitMessage@0             004af102 f   user32:USER32.dll
 0001:000ae108       _GetWindowThreadProcessId@8 004af108 f   user32:USER32.dll
 0001:000ae10e       _MessageBeep@4             004af10e f   user32:USER32.dll
 0001:000ae114       _RegisterClipboardFormatA@4 004af114 f   user32:USER32.dll
 0001:000ae11a       _InSendMessage@0           004af11a f   user32:USER32.dll
 0001:000ae120       _IsClipboardFormatAvailable@4 004af120 f   user32:USER32.dll
 0001:000ae126       _DeleteDC@4                004af126 f   gdi32:GDI32.dll
 0001:000ae12c       _DeleteObject@4            004af12c f   gdi32:GDI32.dll
 0001:000ae132       _StretchBlt@44             004af132 f   gdi32:GDI32.dll
 0001:000ae138       _SelectObject@8            004af138 f   gdi32:GDI32.dll
 0001:000ae13e       _CreateBitmap@20           004af13e f   gdi32:GDI32.dll
 0001:000ae144       _CreateCompatibleDC@4      004af144 f   gdi32:GDI32.dll
 0001:000ae14a       _GetDIBits@28              004af14a f   gdi32:GDI32.dll
 0001:000ae150       _RealizePalette@4          004af150 f   gdi32:GDI32.dll
 0001:000ae156       _SelectPalette@12          004af156 f   gdi32:GDI32.dll
 0001:000ae15c       _GetStockObject@4          004af15c f   gdi32:GDI32.dll
 0001:000ae162       _GetObjectA@12             004af162 f   gdi32:GDI32.dll
 0001:000ae168       _LineTo@12                 004af168 f   gdi32:GDI32.dll
 0001:000ae16e       _MoveToEx@16               004af16e f   gdi32:GDI32.dll
 0001:000ae174       _CreatePen@12              004af174 f   gdi32:GDI32.dll
 0001:000ae17a       _Rectangle@20              004af17a f   gdi32:GDI32.dll
 0001:000ae180       _Polygon@12                004af180 f   gdi32:GDI32.dll
 0001:000ae186       _TextOutA@20               004af186 f   gdi32:GDI32.dll
 0001:000ae18c       _SetTextAlign@8            004af18c f   gdi32:GDI32.dll
 0001:000ae192       _SetTextColor@8            004af192 f   gdi32:GDI32.dll
 0001:000ae198       _SetBkMode@8               004af198 f   gdi32:GDI32.dll
 0001:000ae19e       _CreateMetaFileA@4         004af19e f   gdi32:GDI32.dll
 0001:000ae1a4       _CloseMetaFile@4           004af1a4 f   gdi32:GDI32.dll
 0001:000ae1aa       _CreateEnhMetaFileA@16     004af1aa f   gdi32:GDI32.dll
 0001:000ae1b0       _CloseEnhMetaFile@4        004af1b0 f   gdi32:GDI32.dll
 0001:000ae1b6       _ExtTextOutA@32            004af1b6 f   gdi32:GDI32.dll
 0001:000ae1bc       _UnrealizeObject@4         004af1bc f   gdi32:GDI32.dll
 0001:000ae1c2       _GetObjectType@4           004af1c2 f   gdi32:GDI32.dll
 0001:000ae1c8       _CreatePenIndirect@4       004af1c8 f   gdi32:GDI32.dll
 0001:000ae1ce       _ExtCreatePen@20           004af1ce f   gdi32:GDI32.dll
 0001:000ae1d4       _CreateSolidBrush@4        004af1d4 f   gdi32:GDI32.dll
 0001:000ae1da       _CreateHatchBrush@8        004af1da f   gdi32:GDI32.dll
 0001:000ae1e0       _CreateBrushIndirect@4     004af1e0 f   gdi32:GDI32.dll
 0001:000ae1e6       _CreatePatternBrush@4      004af1e6 f   gdi32:GDI32.dll
 0001:000ae1ec       _CreateDIBPatternBrushPt@8 004af1ec f   gdi32:GDI32.dll
 0001:000ae1f2       _CreateFontIndirectA@4     004af1f2 f   gdi32:GDI32.dll
 0001:000ae1f8       _CreateFontA@56            004af1f8 f   gdi32:GDI32.dll
 0001:000ae1fe       _CreateBitmapIndirect@4    004af1fe f   gdi32:GDI32.dll
 0001:000ae204       _SetBitmapBits@12          004af204 f   gdi32:GDI32.dll
 0001:000ae20a       _GetBitmapBits@12          004af20a f   gdi32:GDI32.dll
 0001:000ae210       _SetBitmapDimensionEx@16   004af210 f   gdi32:GDI32.dll
 0001:000ae216       _GetBitmapDimensionEx@8    004af216 f   gdi32:GDI32.dll
 0001:000ae21c       _CreateCompatibleBitmap@12 004af21c f   gdi32:GDI32.dll
 0001:000ae222       _CreateDiscardableBitmap@12 004af222 f   gdi32:GDI32.dll
 0001:000ae228       _CreatePalette@4           004af228 f   gdi32:GDI32.dll
 0001:000ae22e       _CreateHalftonePalette@4   004af22e f   gdi32:GDI32.dll
 0001:000ae234       _GetPaletteEntries@16      004af234 f   gdi32:GDI32.dll
 0001:000ae23a       _SetPaletteEntries@16      004af23a f   gdi32:GDI32.dll
 0001:000ae240       _AnimatePalette@16         004af240 f   gdi32:GDI32.dll
 0001:000ae246       _GetNearestPaletteIndex@8  004af246 f   gdi32:GDI32.dll
 0001:000ae24c       _ResizePalette@8           004af24c f   gdi32:GDI32.dll
 0001:000ae252       _CreateRectRgn@16          004af252 f   gdi32:GDI32.dll
 0001:000ae258       _CreateRectRgnIndirect@4   004af258 f   gdi32:GDI32.dll
 0001:000ae25e       _CreateEllipticRgn@16      004af25e f   gdi32:GDI32.dll
 0001:000ae264       _CreateEllipticRgnIndirect@4 004af264 f   gdi32:GDI32.dll
 0001:000ae26a       _CreatePolygonRgn@12       004af26a f   gdi32:GDI32.dll
 0001:000ae270       _CreatePolyPolygonRgn@16   004af270 f   gdi32:GDI32.dll
 0001:000ae276       _CreateRoundRectRgn@24     004af276 f   gdi32:GDI32.dll
 0001:000ae27c       _PathToRegion@4            004af27c f   gdi32:GDI32.dll
 0001:000ae282       _ExtCreateRegion@12        004af282 f   gdi32:GDI32.dll
 0001:000ae288       _GetRegionData@12          004af288 f   gdi32:GDI32.dll
 0001:000ae28e       _SetRectRgn@20             004af28e f   gdi32:GDI32.dll
 0001:000ae294       _CombineRgn@16             004af294 f   gdi32:GDI32.dll
 0001:000ae29a       _EqualRgn@8                004af29a f   gdi32:GDI32.dll
 0001:000ae2a0       _OffsetRgn@12              004af2a0 f   gdi32:GDI32.dll
 0001:000ae2a6       _GetRgnBox@8               004af2a6 f   gdi32:GDI32.dll
 0001:000ae2ac       _PtInRegion@12             004af2ac f   gdi32:GDI32.dll
 0001:000ae2b2       _RectInRegion@8            004af2b2 f   gdi32:GDI32.dll
 0001:000ae2b8       _CreateDCA@16              004af2b8 f   gdi32:GDI32.dll
 0001:000ae2be       _CreateICA@16              004af2be f   gdi32:GDI32.dll
 0001:000ae2c4       _GetDeviceCaps@8           004af2c4 f   gdi32:GDI32.dll
 0001:000ae2ca       _GetBrushOrgEx@8           004af2ca f   gdi32:GDI32.dll
 0001:000ae2d0       _SetBrushOrgEx@16          004af2d0 f   gdi32:GDI32.dll
 0001:000ae2d6       _EnumObjects@16            004af2d6 f   gdi32:GDI32.dll
 0001:000ae2dc       _GetNearestColor@8         004af2dc f   gdi32:GDI32.dll
 0001:000ae2e2       _UpdateColors@4            004af2e2 f   gdi32:GDI32.dll
 0001:000ae2e8       _GetBkColor@4              004af2e8 f   gdi32:GDI32.dll
 0001:000ae2ee       _GetBkMode@4               004af2ee f   gdi32:GDI32.dll
 0001:000ae2f4       _GetPolyFillMode@4         004af2f4 f   gdi32:GDI32.dll
 0001:000ae2fa       _GetROP2@4                 004af2fa f   gdi32:GDI32.dll
 0001:000ae300       _GetStretchBltMode@4       004af300 f   gdi32:GDI32.dll
 0001:000ae306       _GetTextColor@4            004af306 f   gdi32:GDI32.dll
 0001:000ae30c       _GetMapMode@4              004af30c f   gdi32:GDI32.dll
 0001:000ae312       _GetViewportOrgEx@8        004af312 f   gdi32:GDI32.dll
 0001:000ae318       _GetViewportExtEx@8        004af318 f   gdi32:GDI32.dll
 0001:000ae31e       _GetWindowOrgEx@8          004af31e f   gdi32:GDI32.dll
 0001:000ae324       _GetWindowExtEx@8          004af324 f   gdi32:GDI32.dll
 0001:000ae32a       _DPtoLP@12                 004af32a f   gdi32:GDI32.dll
 0001:000ae330       _LPtoDP@12                 004af330 f   gdi32:GDI32.dll
 0001:000ae336       _FillRgn@12                004af336 f   gdi32:GDI32.dll
 0001:000ae33c       _FrameRgn@20               004af33c f   gdi32:GDI32.dll
 0001:000ae342       _InvertRgn@8               004af342 f   gdi32:GDI32.dll
 0001:000ae348       _PaintRgn@8                004af348 f   gdi32:GDI32.dll
 0001:000ae34e       _PtVisible@12              004af34e f   gdi32:GDI32.dll
 0001:000ae354       _RectVisible@8             004af354 f   gdi32:GDI32.dll
 0001:000ae35a       _GetCurrentPositionEx@8    004af35a f   gdi32:GDI32.dll
 0001:000ae360       _Arc@36                    004af360 f   gdi32:GDI32.dll
 0001:000ae366       _Polyline@12               004af366 f   gdi32:GDI32.dll
 0001:000ae36c       _Chord@36                  004af36c f   gdi32:GDI32.dll
 0001:000ae372       _Ellipse@20                004af372 f   gdi32:GDI32.dll
 0001:000ae378       _Pie@36                    004af378 f   gdi32:GDI32.dll
 0001:000ae37e       _PolyPolygon@16            004af37e f   gdi32:GDI32.dll
 0001:000ae384       _RoundRect@28              004af384 f   gdi32:GDI32.dll
 0001:000ae38a       _PatBlt@24                 004af38a f   gdi32:GDI32.dll
 0001:000ae390       _BitBlt@36                 004af390 f   gdi32:GDI32.dll
 0001:000ae396       _GetPixel@12               004af396 f   gdi32:GDI32.dll
 0001:000ae39c       _SetPixel@16               004af39c f   gdi32:GDI32.dll
 0001:000ae3a2       _FloodFill@16              004af3a2 f   gdi32:GDI32.dll
 0001:000ae3a8       _ExtFloodFill@20           004af3a8 f   gdi32:GDI32.dll
 0001:000ae3ae       _GetTextExtentPoint32A@16  004af3ae f   gdi32:GDI32.dll
 0001:000ae3b4       _GetTextAlign@4            004af3b4 f   gdi32:GDI32.dll
 0001:000ae3ba       _GetTextFaceA@12           004af3ba f   gdi32:GDI32.dll
 0001:000ae3c0       _GetTextMetricsA@8         004af3c0 f   gdi32:GDI32.dll
 0001:000ae3c6       _GetTextCharacterExtra@4   004af3c6 f   gdi32:GDI32.dll
 0001:000ae3cc       _GetCharWidthA@16          004af3cc f   gdi32:GDI32.dll
 0001:000ae3d2       _GetAspectRatioFilterEx@8  004af3d2 f   gdi32:GDI32.dll
 0001:000ae3d8       _Escape@20                 004af3d8 f   gdi32:GDI32.dll
 0001:000ae3de       _SetBoundsRect@12          004af3de f   gdi32:GDI32.dll
 0001:000ae3e4       _GetBoundsRect@12          004af3e4 f   gdi32:GDI32.dll
 0001:000ae3ea       _ResetDCA@8                004af3ea f   gdi32:GDI32.dll
 0001:000ae3f0       _GetOutlineTextMetricsA@12 004af3f0 f   gdi32:GDI32.dll
 0001:000ae3f6       _GetCharABCWidthsA@16      004af3f6 f   gdi32:GDI32.dll
 0001:000ae3fc       _GetFontData@20            004af3fc f   gdi32:GDI32.dll
 0001:000ae402       _GetKerningPairsA@12       004af402 f   gdi32:GDI32.dll
 0001:000ae408       _GetGlyphOutlineA@28       004af408 f   gdi32:GDI32.dll
 0001:000ae40e       _StartDocA@8               004af40e f   gdi32:GDI32.dll
 0001:000ae414       _StartPage@4               004af414 f   gdi32:GDI32.dll
 0001:000ae41a       _EndPage@4                 004af41a f   gdi32:GDI32.dll
 0001:000ae420       _SetAbortProc@8            004af420 f   gdi32:GDI32.dll
 0001:000ae426       _AbortDoc@4                004af426 f   gdi32:GDI32.dll
 0001:000ae42c       _EndDoc@4                  004af42c f   gdi32:GDI32.dll
 0001:000ae432       _MaskBlt@48                004af432 f   gdi32:GDI32.dll
 0001:000ae438       _PlgBlt@40                 004af438 f   gdi32:GDI32.dll
 0001:000ae43e       _SetPixelV@16              004af43e f   gdi32:GDI32.dll
 0001:000ae444       _AngleArc@24               004af444 f   gdi32:GDI32.dll
 0001:000ae44a       _GetArcDirection@4         004af44a f   gdi32:GDI32.dll
 0001:000ae450       _PolyPolyline@16           004af450 f   gdi32:GDI32.dll
 0001:000ae456       _GetColorAdjustment@8      004af456 f   gdi32:GDI32.dll
 0001:000ae45c       _GetCurrentObject@8        004af45c f   gdi32:GDI32.dll
 0001:000ae462       _PolyBezier@12             004af462 f   gdi32:GDI32.dll
 0001:000ae468       _DrawEscape@16             004af468 f   gdi32:GDI32.dll
 0001:000ae46e       _ExtEscape@24              004af46e f   gdi32:GDI32.dll
 0001:000ae474       _GetCharABCWidthsFloatA@16 004af474 f   gdi32:GDI32.dll
 0001:000ae47a       _GetCharWidthFloatA@16     004af47a f   gdi32:GDI32.dll
 0001:000ae480       _AbortPath@4               004af480 f   gdi32:GDI32.dll
 0001:000ae486       _BeginPath@4               004af486 f   gdi32:GDI32.dll
 0001:000ae48c       _CloseFigure@4             004af48c f   gdi32:GDI32.dll
 0001:000ae492       _EndPath@4                 004af492 f   gdi32:GDI32.dll
 0001:000ae498       _FillPath@4                004af498 f   gdi32:GDI32.dll
 0001:000ae49e       _FlattenPath@4             004af49e f   gdi32:GDI32.dll
 0001:000ae4a4       _GetMiterLimit@8           004af4a4 f   gdi32:GDI32.dll
 0001:000ae4aa       _GetPath@16                004af4aa f   gdi32:GDI32.dll
 0001:000ae4b0       _SetMiterLimit@12          004af4b0 f   gdi32:GDI32.dll
 0001:000ae4b6       _StrokeAndFillPath@4       004af4b6 f   gdi32:GDI32.dll
 0001:000ae4bc       _StrokePath@4              004af4bc f   gdi32:GDI32.dll
 0001:000ae4c2       _WidenPath@4               004af4c2 f   gdi32:GDI32.dll
 0001:000ae4c8       _GdiComment@12             004af4c8 f   gdi32:GDI32.dll
 0001:000ae4ce       _PlayEnhMetaFile@12        004af4ce f   gdi32:GDI32.dll
 0001:000ae4d4       _GetDCOrgEx@8              004af4d4 f   gdi32:GDI32.dll
 0001:000ae4da       _GetClipBox@8              004af4da f   gdi32:GDI32.dll
 0001:000ae4e0       _SetBkColor@8              004af4e0 f   gdi32:GDI32.dll
 0001:000ae4e6       _SaveDC@4                  004af4e6 f   gdi32:GDI32.dll
 0001:000ae4ec       _RestoreDC@8               004af4ec f   gdi32:GDI32.dll
 0001:000ae4f2       _SetPolyFillMode@8         004af4f2 f   gdi32:GDI32.dll
 0001:000ae4f8       _SetROP2@8                 004af4f8 f   gdi32:GDI32.dll
 0001:000ae4fe       _SetStretchBltMode@8       004af4fe f   gdi32:GDI32.dll
 0001:000ae504       _SetMapMode@8              004af504 f   gdi32:GDI32.dll
 0001:000ae50a       _SetViewportOrgEx@16       004af50a f   gdi32:GDI32.dll
 0001:000ae510       _OffsetViewportOrgEx@16    004af510 f   gdi32:GDI32.dll
 0001:000ae516       _SetViewportExtEx@16       004af516 f   gdi32:GDI32.dll
 0001:000ae51c       _ScaleViewportExtEx@24     004af51c f   gdi32:GDI32.dll
 0001:000ae522       _SetWindowOrgEx@16         004af522 f   gdi32:GDI32.dll
 0001:000ae528       _OffsetWindowOrgEx@16      004af528 f   gdi32:GDI32.dll
 0001:000ae52e       _SetWindowExtEx@16         004af52e f   gdi32:GDI32.dll
 0001:000ae534       _ScaleWindowExtEx@24       004af534 f   gdi32:GDI32.dll
 0001:000ae53a       _SelectClipRgn@8           004af53a f   gdi32:GDI32.dll
 0001:000ae540       _ExcludeClipRect@20        004af540 f   gdi32:GDI32.dll
 0001:000ae546       _IntersectClipRect@20      004af546 f   gdi32:GDI32.dll
 0001:000ae54c       _OffsetClipRgn@12          004af54c f   gdi32:GDI32.dll
 0001:000ae552       _SetTextJustification@12   004af552 f   gdi32:GDI32.dll
 0001:000ae558       _SetTextCharacterExtra@8   004af558 f   gdi32:GDI32.dll
 0001:000ae55e       _SetMapperFlags@8          004af55e f   gdi32:GDI32.dll
 0001:000ae564       _ArcTo@36                  004af564 f   gdi32:GDI32.dll
 0001:000ae56a       _SetArcDirection@8         004af56a f   gdi32:GDI32.dll
 0001:000ae570       _PolyDraw@16               004af570 f   gdi32:GDI32.dll
 0001:000ae576       _PolylineTo@12             004af576 f   gdi32:GDI32.dll
 0001:000ae57c       _SetColorAdjustment@8      004af57c f   gdi32:GDI32.dll
 0001:000ae582       _PolyBezierTo@12           004af582 f   gdi32:GDI32.dll
 0001:000ae588       _GetClipRgn@8              004af588 f   gdi32:GDI32.dll
 0001:000ae58e       _SelectClipPath@8          004af58e f   gdi32:GDI32.dll
 0001:000ae594       _ExtSelectClipRgn@12       004af594 f   gdi32:GDI32.dll
 0001:000ae59a       _PlayMetaFileRecord@16     004af59a f   gdi32:GDI32.dll
 0001:000ae5a0       _EnumMetaFile@16           004af5a0 f   gdi32:GDI32.dll
 0001:000ae5a6       _PlayMetaFile@8            004af5a6 f   gdi32:GDI32.dll
 0001:000ae5ac       _StretchDIBits@52          004af5ac f   gdi32:GDI32.dll
 0001:000ae5b2       _CopyMetaFileA@8           004af5b2 f   gdi32:GDI32.dll
 0001:000ae5b8       _EnumFontFamiliesExA@20    004af5b8 f   gdi32:GDI32.dll
 0001:000ae5be       _DeleteMetaFile@4          004af5be f   gdi32:GDI32.dll
 0001:000ae5c4       _GetFileTitleA@12          004af5c4 f   comdlg32:comdlg32.dll
 0001:000ae5ca       _GetSaveFileNameA@4        004af5ca f   comdlg32:comdlg32.dll
 0001:000ae5d0       _GetOpenFileNameA@4        004af5d0 f   comdlg32:comdlg32.dll
 0001:000ae5d6       _ChooseColorA@4            004af5d6 f   comdlg32:comdlg32.dll
 0001:000ae5dc       _PageSetupDlgA@4           004af5dc f   comdlg32:comdlg32.dll
 0001:000ae5e2       _PrintDlgA@4               004af5e2 f   comdlg32:comdlg32.dll
 0001:000ae5e8       _CommDlgExtendedError@0    004af5e8 f   comdlg32:comdlg32.dll
 0001:000ae5ee       _ClosePrinter@4            004af5ee f   winspool:WINSPOOL.DRV
 0001:000ae5f4       _DocumentPropertiesA@24    004af5f4 f   winspool:WINSPOOL.DRV
 0001:000ae5fa       _OpenPrinterA@12           004af5fa f   winspool:WINSPOOL.DRV
 0001:000ae600       _RegQueryValueA@16         004af600 f   advapi32:ADVAPI32.dll
 0001:000ae606       _RegSetValueA@20           004af606 f   advapi32:ADVAPI32.dll
 0001:000ae60c       _RegQueryValueExA@24       004af60c f   advapi32:ADVAPI32.dll
 0001:000ae612       _RegSetValueExA@24         004af612 f   advapi32:ADVAPI32.dll
 0001:000ae618       _RegCloseKey@4             004af618 f   advapi32:ADVAPI32.dll
 0001:000ae61e       _RegOpenKeyA@12            004af61e f   advapi32:ADVAPI32.dll
 0001:000ae624       _RegCreateKeyExA@36        004af624 f   advapi32:ADVAPI32.dll
 0001:000ae62a       _RegOpenKeyExA@20          004af62a f   advapi32:ADVAPI32.dll
 0001:000ae630       _RegDeleteValueA@8         004af630 f   advapi32:ADVAPI32.dll
 0001:000ae636       _RegDeleteKeyA@8           004af636 f   advapi32:ADVAPI32.dll
 0001:000ae63c       _RegEnumKeyA@16            004af63c f   advapi32:ADVAPI32.dll
 0001:000ae642       _RegCreateKeyA@12          004af642 f   advapi32:ADVAPI32.dll
 0001:000ae648       _SetFileSecurityA@12       004af648 f   advapi32:ADVAPI32.dll
 0001:000ae64e       _GetFileSecurityA@20       004af64e f   advapi32:ADVAPI32.dll
 0001:000ae654       _ExtractIconA@12           004af654 f   shell32:SHELL32.dll
 0001:000ae65a       _SHGetPathFromIDListA@8    004af65a f   shell32:SHELL32.dll
 0001:000ae660       _SHGetSpecialFolderLocation@12 004af660 f   shell32:SHELL32.dll
 0001:000ae666       _SHGetFileInfoA@20         004af666 f   shell32:SHELL32.dll
 0001:000ae66c       _DragAcceptFiles@8         004af66c f   shell32:SHELL32.dll
 0001:000ae672       _DragFinish@4              004af672 f   shell32:SHELL32.dll
 0001:000ae678       _DragQueryFileA@16         004af678 f   shell32:SHELL32.dll
 0001:000ae67e       _CreateMappedBitmap@20     004af67e f   comctl32:COMCTL32.dll
 0001:000ae684       _MakeDragList@4            004af684 f   comctl32:COMCTL32.dll
 0001:000ae68a       _ImageList_Destroy@4       004af68a f   comctl32:COMCTL32.dll
 0001:000ae690       _ImageList_Create@20       004af690 f   comctl32:COMCTL32.dll
 0001:000ae696       _ImageList_LoadImageA@28   004af696 f   comctl32:COMCTL32.dll
 0001:000ae69c       _ImageList_Merge@24        004af69c f   comctl32:COMCTL32.dll
 0001:000ae6a2       _ImageList_Read@4          004af6a2 f   comctl32:COMCTL32.dll
 0001:000ae6a8       _ImageList_Write@8         004af6a8 f   comctl32:COMCTL32.dll
 0001:000ae6ae       _LBItemFromPt@16           004af6ae f   comctl32:COMCTL32.dll
 0001:000ae6b4       _ImageList_GetImageCount@4 004af6b4 f   comctl32:COMCTL32.dll
 0001:000ae6ba       _ImageList_Add@12          004af6ba f   comctl32:COMCTL32.dll
 0001:000ae6c0       _ImageList_AddMasked@12    004af6c0 f   comctl32:COMCTL32.dll
 0001:000ae6c6       _ImageList_Remove@8        004af6c6 f   comctl32:COMCTL32.dll
 0001:000ae6cc       _ImageList_Replace@16      004af6cc f   comctl32:COMCTL32.dll
 0001:000ae6d2       _ImageList_ReplaceIcon@12  004af6d2 f   comctl32:COMCTL32.dll
 0001:000ae6d8       _ImageList_GetIcon@12      004af6d8 f   comctl32:COMCTL32.dll
 0001:000ae6de       _ImageList_Draw@24         004af6de f   comctl32:COMCTL32.dll
 0001:000ae6e4       _ImageList_SetBkColor@8    004af6e4 f   comctl32:COMCTL32.dll
 0001:000ae6ea       _ImageList_GetBkColor@4    004af6ea f   comctl32:COMCTL32.dll
 0001:000ae6f0       _ImageList_SetOverlayImage@12 004af6f0 f   comctl32:COMCTL32.dll
 0001:000ae6f6       _ImageList_GetImageInfo@12 004af6f6 f   comctl32:COMCTL32.dll
 0001:000ae6fc       _ImageList_BeginDrag@16    004af6fc f   comctl32:COMCTL32.dll
 0001:000ae702       _ImageList_EndDrag@0       004af702 f   comctl32:COMCTL32.dll
 0001:000ae708       _ImageList_DragMove@8      004af708 f   comctl32:COMCTL32.dll
 0001:000ae70e       _ImageList_SetDragCursorImage@16 004af70e f   comctl32:COMCTL32.dll
 0001:000ae714       _ImageList_DragShowNolock@4 004af714 f   comctl32:COMCTL32.dll
 0001:000ae71a       _ImageList_GetDragImage@8  004af71a f   comctl32:COMCTL32.dll
 0001:000ae720       _ImageList_DragEnter@12    004af720 f   comctl32:COMCTL32.dll
 0001:000ae726       _ImageList_DragLeave@4     004af726 f   comctl32:COMCTL32.dll
 0001:000ae72c       _InitCommonControls@0      004af72c f   comctl32:COMCTL32.dll
 0001:000ae732       _ImageList_SetImageCount@8 004af732 f   comctl32:COMCTL32.dll
 0001:000ae738       _ImageList_Copy@20         004af738 f   comctl32:COMCTL32.dll
 0001:000ae73e       _PropertySheetA@4          004af73e f   comctl32:COMCTL32.dll
 0001:000ae744       _DestroyPropertySheetPage@4 004af744 f   comctl32:COMCTL32.dll
 0001:000ae74a       _CreatePropertySheetPageA@4 004af74a f   comctl32:COMCTL32.dll
 0001:000ae750       _OleUIBusyA@4              004af750 f   oledlg:oledlg.dll
 0001:000ae756       _OleUIInsertObjectA@4      004af756 f   oledlg:oledlg.dll
 0001:000ae75c       _OleUIConvertA@4           004af75c f   oledlg:oledlg.dll
 0001:000ae762       _OleUIChangeIconA@4        004af762 f   oledlg:oledlg.dll
 0001:000ae768       _OleUIEditLinksA@4         004af768 f   oledlg:oledlg.dll
 0001:000ae76e       _OleUIUpdateLinksA@16      004af76e f   oledlg:oledlg.dll
 0001:000ae774       _OleUIPasteSpecialA@4      004af774 f   oledlg:oledlg.dll
 0001:000ae77a       _CLSIDFromProgID@8         004af77a f   ole32:ole32.dll
 0001:000ae780       _CLSIDFromString@8         004af780 f   ole32:ole32.dll
 0001:000ae786       _OleRun@4                  004af786 f   ole32:ole32.dll
 0001:000ae78c       _CoCreateInstance@20       004af78c f   ole32:ole32.dll
 0001:000ae792       _CoGetClassObject@20       004af792 f   ole32:ole32.dll
 0001:000ae798       _StgOpenStorageOnILockBytes@24 004af798 f   ole32:ole32.dll
 0001:000ae79e       _StgCreateDocfileOnILockBytes@16 004af79e f   ole32:ole32.dll
 0001:000ae7a4       _CreateILockBytesOnHGlobal@12 004af7a4 f   ole32:ole32.dll
 0001:000ae7aa       _StringFromGUID2@12        004af7aa f   ole32:ole32.dll
 0001:000ae7b0       _CoTaskMemFree@4           004af7b0 f   ole32:ole32.dll
 0001:000ae7b6       _CoTaskMemAlloc@4          004af7b6 f   ole32:ole32.dll
 0001:000ae7bc       _CoDisconnectObject@8      004af7bc f   ole32:ole32.dll
 0001:000ae7c2       _OleDuplicateData@12       004af7c2 f   ole32:ole32.dll
 0001:000ae7c8       _CreateBindCtx@8           004af7c8 f   ole32:ole32.dll
 0001:000ae7ce       _SetConvertStg@8           004af7ce f   ole32:ole32.dll
 0001:000ae7d4       _WriteFmtUserTypeStg@12    004af7d4 f   ole32:ole32.dll
 0001:000ae7da       _WriteClassStg@8           004af7da f   ole32:ole32.dll
 0001:000ae7e0       _OleRegGetUserType@12      004af7e0 f   ole32:ole32.dll
 0001:000ae7e6       _ReadFmtUserTypeStg@12     004af7e6 f   ole32:ole32.dll
 0001:000ae7ec       _ReadClassStg@8            004af7ec f   ole32:ole32.dll
 0001:000ae7f2       _StringFromCLSID@8         004af7f2 f   ole32:ole32.dll
 0001:000ae7f8       _CoTreatAsClass@8          004af7f8 f   ole32:ole32.dll
 0001:000ae7fe       _ReleaseStgMedium@4        004af7fe f   ole32:ole32.dll
 0001:000ae804       _OleInitialize@4           004af804 f   ole32:ole32.dll
 0001:000ae80a       _OleUninitialize@0         004af80a f   ole32:ole32.dll
 0001:000ae810       _CoFreeUnusedLibraries@0   004af810 f   ole32:ole32.dll
 0001:000ae816       _CoRegisterMessageFilter@8 004af816 f   ole32:ole32.dll
 0001:000ae81c       _CoRegisterClassObject@20  004af81c f   ole32:ole32.dll
 0001:000ae822       _CoRevokeClassObject@4     004af822 f   ole32:ole32.dll
 0001:000ae828       _OleIsCurrentClipboard@4   004af828 f   ole32:ole32.dll
 0001:000ae82e       _OleSetClipboard@4         004af82e f   ole32:ole32.dll
 0001:000ae834       _OleFlushClipboard@0       004af834 f   ole32:ole32.dll
 0001:000ae83a       _CreateItemMoniker@12      004af83a f   ole32:ole32.dll
 0001:000ae840       _CreateGenericComposite@12 004af840 f   ole32:ole32.dll
 0001:000ae846       _CreateFileMoniker@8       004af846 f   ole32:ole32.dll
 0001:000ae84c       _GetClassFile@8            004af84c f   ole32:ole32.dll
 0001:000ae852       _CreateStreamOnHGlobal@12  004af852 f   ole32:ole32.dll
 0001:000ae858       _CoGetMalloc@8             004af858 f   ole32:ole32.dll
 0001:000ae85e       _StgCreateDocfile@16       004af85e f   ole32:ole32.dll
 0001:000ae864       _StgOpenStorage@24         004af864 f   ole32:ole32.dll
 0001:000ae86a       _StgIsStorageFile@4        004af86a f   ole32:ole32.dll
 0001:000ae870       _OleLockRunning@12         004af870 f   ole32:ole32.dll
 0001:000ae876       _OleSetContainedObject@8   004af876 f   ole32:ole32.dll
 0001:000ae87c       _OleCreateFromData@28      004af87c f   ole32:ole32.dll
 0001:000ae882       _OleCreateLinkFromData@28  004af882 f   ole32:ole32.dll
 0001:000ae888       _OleCreateStaticFromData@28 004af888 f   ole32:ole32.dll
 0001:000ae88e       _OleCreateFromFile@32      004af88e f   ole32:ole32.dll
 0001:000ae894       _OleCreateLinkToFile@28    004af894 f   ole32:ole32.dll
 0001:000ae89a       _OleCreate@28              004af89a f   ole32:ole32.dll
 0001:000ae8a0       _OleLoad@16                004af8a0 f   ole32:ole32.dll
 0001:000ae8a6       _OleSave@12                004af8a6 f   ole32:ole32.dll
 0001:000ae8ac       _StgIsStorageILockBytes@4  004af8ac f   ole32:ole32.dll
 0001:000ae8b2       _GetHGlobalFromILockBytes@8 004af8b2 f   ole32:ole32.dll
 0001:000ae8b8       _OleGetIconOfClass@12      004af8b8 f   ole32:ole32.dll
 0001:000ae8be       _WriteClassStm@8           004af8be f   ole32:ole32.dll
 0001:000ae8c4       _OleSaveToStream@8         004af8c4 f   ole32:ole32.dll
 0001:000ae8ca       _OleIsRunning@4            004af8ca f   ole32:ole32.dll
 0001:000ae8d0       _OleQueryCreateFromData@4  004af8d0 f   ole32:ole32.dll
 0001:000ae8d6       _OleQueryLinkFromData@4    004af8d6 f   ole32:ole32.dll
 0001:000ae8dc       _OleGetClipboard@4         004af8dc f   ole32:ole32.dll
 0001:000ae8e2       _OleSetMenuDescriptor@20   004af8e2 f   ole32:ole32.dll
 0001:000ae8e8       _DoDragDrop@16             004af8e8 f   ole32:ole32.dll
 0001:000ae8ee       _OleRegEnumVerbs@8         004af8ee f   ole32:ole32.dll
 0001:000ae8f4       _OleRegGetMiscStatus@12    004af8f4 f   ole32:ole32.dll
 0001:000ae8fa       _OleCreateMenuDescriptor@8 004af8fa f   ole32:ole32.dll
 0001:000ae900       _OleDestroyMenuDescriptor@4 004af900 f   ole32:ole32.dll
 0001:000ae906       _CreateOleAdviseHolder@4   004af906 f   ole32:ole32.dll
 0001:000ae90c       _CreateDataAdviseHolder@4  004af90c f   ole32:ole32.dll
 0001:000ae912       _OleTranslateAccelerator@12 004af912 f   ole32:ole32.dll
 0001:000ae918       _IsAccelerator@16          004af918 f   ole32:ole32.dll
 0001:000ae91e       _GetRunningObjectTable@8   004af91e f   ole32:ole32.dll
 0001:000ae924       _CoLockObjectExternal@12   004af924 f   ole32:ole32.dll
 0001:000ae92a       _OleCreateFontIndirect@12  004af92a f   olepro32:OLEPRO32.DLL
 0001:000ae930       _VariantCopy@8             004af930 f   oleaut32:OLEAUT32.dll
 0001:000ae936       _VariantClear@4            004af936 f   oleaut32:OLEAUT32.dll
 0001:000ae93c       _VariantChangeType@16      004af93c f   oleaut32:OLEAUT32.dll
 0001:000ae942       _SysAllocStringLen@8       004af942 f   oleaut32:OLEAUT32.dll
 0001:000ae948       _SysReAllocStringLen@12    004af948 f   oleaut32:OLEAUT32.dll
 0001:000ae94e       _SysFreeString@4           004af94e f   oleaut32:OLEAUT32.dll
 0001:000ae954       _SysAllocString@4          004af954 f   oleaut32:OLEAUT32.dll
 0001:000ae95a       _VariantTimeToSystemTime@12 004af95a f   oleaut32:OLEAUT32.dll
 0001:000ae960       _DosDateTimeToVariantTime@12 004af960 f   oleaut32:OLEAUT32.dll
 0001:000ae966       _SafeArrayGetDim@4         004af966 f   oleaut32:OLEAUT32.dll
 0001:000ae96c       _SafeArrayGetElemsize@4    004af96c f   oleaut32:OLEAUT32.dll
 0001:000ae972       _SysStringLen@4            004af972 f   oleaut32:OLEAUT32.dll
 0001:000ae978       _SysAllocStringByteLen@8   004af978 f   oleaut32:OLEAUT32.dll
 0001:000ae97e       _SafeArrayUnaccessData@4   004af97e f   oleaut32:OLEAUT32.dll
 0001:000ae984       _SafeArrayAccessData@8     004af984 f   oleaut32:OLEAUT32.dll
 0001:000ae98a       _SafeArrayGetUBound@12     004af98a f   oleaut32:OLEAUT32.dll
 0001:000ae990       _SafeArrayGetLBound@12     004af990 f   oleaut32:OLEAUT32.dll
 0001:000ae996       _SafeArrayRedim@8          004af996 f   oleaut32:OLEAUT32.dll
 0001:000ae99c       _SafeArrayCreate@12        004af99c f   oleaut32:OLEAUT32.dll
 0001:000ae9a2       _SysStringByteLen@4        004af9a2 f   oleaut32:OLEAUT32.dll
 0001:000ae9a8       _VarCyFromStr@16           004af9a8 f   oleaut32:OLEAUT32.dll
 0001:000ae9ae       _VarBstrFromCy@20          004af9ae f   oleaut32:OLEAUT32.dll
 0001:000ae9b4       _VarDateFromStr@16         004af9b4 f   oleaut32:OLEAUT32.dll
 0001:000ae9ba       _VarBstrFromDate@20        004af9ba f   oleaut32:OLEAUT32.dll
 0001:000ae9c0       _SafeArrayCopy@8           004af9c0 f   oleaut32:OLEAUT32.dll
 0001:000ae9c6       _SafeArrayAllocData@4      004af9c6 f   oleaut32:OLEAUT32.dll
 0001:000ae9cc       _SafeArrayAllocDescriptor@8 004af9cc f   oleaut32:OLEAUT32.dll
 0001:000ae9d2       _SafeArrayGetElement@12    004af9d2 f   oleaut32:OLEAUT32.dll
 0001:000ae9d8       _SafeArrayPtrOfIndex@12    004af9d8 f   oleaut32:OLEAUT32.dll
 0001:000ae9de       _SafeArrayPutElement@12    004af9de f   oleaut32:OLEAUT32.dll
 0001:000ae9e4       _SafeArrayLock@4           004af9e4 f   oleaut32:OLEAUT32.dll
 0001:000ae9ea       _SafeArrayUnlock@4         004af9ea f   oleaut32:OLEAUT32.dll
 0001:000ae9f0       _SafeArrayDestroy@4        004af9f0 f   oleaut32:OLEAUT32.dll
 0001:000ae9f6       _SafeArrayDestroyData@4    004af9f6 f   oleaut32:OLEAUT32.dll
 0001:000ae9fc       _SafeArrayDestroyDescriptor@4 004af9fc f   oleaut32:OLEAUT32.dll
 0001:000aea02       _LoadTypeLib@8             004afa02 f   oleaut32:OLEAUT32.dll
 0001:000aeb70       _CallWndProcFilterProc@12  004afb70 f   ctl3d32s:CTL3D.OBJ
 0001:000aefe0       _Ctl3dRegister@4           004affe0 f   ctl3d32s:CTL3D.OBJ
 0001:000af050       _Ctl3dUnregister@4         004b0050 f   ctl3d32s:CTL3D.OBJ
 0001:000af110       _Ctl3dAutoSubclass@4       004b0110 f   ctl3d32s:CTL3D.OBJ
 0001:000af120       _Ctl3dAutoSubclassEx@8     004b0120 f   ctl3d32s:CTL3D.OBJ
 0001:000af260       _Ctl3dIsAutoSubclass@0     004b0260 f   ctl3d32s:CTL3D.OBJ
 0001:000af290       _Ctl3dUnAutoSubclass@0     004b0290 f   ctl3d32s:CTL3D.OBJ
 0001:000af330       _Ctl3dSetStyle@12          004b0330 f   ctl3d32s:CTL3D.OBJ
 0001:000af340       _Ctl3dGetVer@0             004b0340 f   ctl3d32s:CTL3D.OBJ
 0001:000af350       _Ctl3dEnabled@0            004b0350 f   ctl3d32s:CTL3D.OBJ
 0001:000af360       _Ctl3dSubclassCtl@4        004b0360 f   ctl3d32s:CTL3D.OBJ
 0001:000af390       _Ctl3dUnsubclassCtl@4      004b0390 f   ctl3d32s:CTL3D.OBJ
 0001:000af4a0       _Ctl3dSubclassCtlEx@8      004b04a0 f   ctl3d32s:CTL3D.OBJ
 0001:000af530       _Ctl3dSubclassDlg@8        004b0530 f   ctl3d32s:CTL3D.OBJ
 0001:000af640       _Ctl3dCheckSubclassDlg@8   004b0640 f   ctl3d32s:CTL3D.OBJ
 0001:000af6c0       _Ctl3dSubclassDlgEx@8      004b06c0 f   ctl3d32s:CTL3D.OBJ
 0001:000af730       _Ctl3dCtlColor@8           004b0730 f   ctl3d32s:CTL3D.OBJ
 0001:000af740       _Ctl3dCtlColorEx@12        004b0740 f   ctl3d32s:CTL3D.OBJ
 0001:000af7d0       _Ctl3dColorChange@0        004b07d0 f   ctl3d32s:CTL3D.OBJ
 0001:000af800       _Ctl3dDlgFramePaint@16     004b0800 f   ctl3d32s:CTL3D.OBJ
 0001:000afad0       _Ctl3dWinIniChange@0       004b0ad0 f   ctl3d32s:CTL3D.OBJ
 0001:000affd0       _Ctl3dDlgProc@16           004b0fd0 f   ctl3d32s:CTL3D.OBJ
 0001:000b0340       _Ctl3dHook@12              004b1340 f   ctl3d32s:CTL3D.OBJ
 0001:000b11d0       _BtnWndProc3d@16           004b21d0 f   ctl3d32s:CTL3D.OBJ
 0001:000b14b0       _ListEditPaint3d           004b24b0 f   ctl3d32s:CTL3D.OBJ
 0001:000b17f0       _ShareEditComboWndProc3d   004b27f0 f   ctl3d32s:CTL3D.OBJ
 0001:000b1940       _EditWndProc3d@16          004b2940 f   ctl3d32s:CTL3D.OBJ
 0001:000b1970       _SharedListWndProc         004b2970 f   ctl3d32s:CTL3D.OBJ
 0001:000b1ba0       _ListWndProc3d@16          004b2ba0 f   ctl3d32s:CTL3D.OBJ
 0001:000b1bd0       _ComboWndProc3d@16         004b2bd0 f   ctl3d32s:CTL3D.OBJ
 0001:000b1c20       _StaticPrint               004b2c20 f   ctl3d32s:CTL3D.OBJ
 0001:000b1d00       _StaticPaint               004b2d00 f   ctl3d32s:CTL3D.OBJ
 0001:000b1ea0       _StaticWndProc3d@16        004b2ea0 f   ctl3d32s:CTL3D.OBJ
 0001:000b1ff0       _LibMain                   004b2ff0 f   ctl3d32s:CTL3D.OBJ
 0001:000b20c0       _LoadUIBitmap@32           004b30c0 f   ctl3d32s:CTL3D.OBJ
 0001:000b2260       _WinMain@16                004b3260 f   nafxcwd:appmodul.obj
 0001:000b227c       ?AfxInitialize@@YGHHK@Z    004b327c f   nafxcwd:appmodul.obj
 0001:000b22d2       ?_AfxTermAppState@@YAXXZ   004b32d2 f   nafxcwd:appmodul.obj
 0001:000b2318       _GetProfileStringA@20      004b3318 f   kernel32:KERNEL32.dll
 0001:000b231e       _IsWindowUnicode@4         004b331e f   user32:USER32.dll
 0001:000b2324       _DefDlgProcA@16            004b3324 f   user32:USER32.dll
 0001:000b232a       _UnregisterClassA@8        004b332a f   user32:USER32.dll
 0001:000b2330       _GetTextExtentPointA@16    004b3330 f   gdi32:GDI32.dll
 0001:000b2336       _CreateDIBitmap@24         004b3336 f   gdi32:GDI32.dll
 0001:000c52c0       ??0CString@@QAE@DH@Z       004c62c0 f   nafxcwd:strex.obj
 0001:000c5301       ??0CString@@QAE@PBDH@Z     004c6301 f   nafxcwd:strex.obj
 0001:000c5371       ??0CString@@QAE@PBGH@Z     004c6371 f   nafxcwd:strex.obj
 0001:000c53e7       ??4CString@@QAEABV0@D@Z    004c63e7 f   nafxcwd:strex.obj
 0001:000c5405       ??H@YG?AVCString@@ABV0@D@Z 004c6405 f   nafxcwd:strex.obj
 0001:000c548a       ??H@YG?AVCString@@DABV0@@Z 004c648a f   nafxcwd:strex.obj
 0001:000c550f       ?Delete@CString@@QAEHHH@Z  004c650f f   nafxcwd:strex.obj
 0001:000c5597       ?Insert@CString@@QAEHHD@Z  004c6597 f   nafxcwd:strex.obj
 0001:000c5678       ?Insert@CString@@QAEHHPBD@Z 004c6678 f   nafxcwd:strex.obj
 0001:000c577f       ?Replace@CString@@QAEHDD@Z 004c677f f   nafxcwd:strex.obj
 0001:000c57fd       ?Replace@CString@@QAEHPBD0@Z 004c67fd f   nafxcwd:strex.obj
 0001:000c5a2b       ?Remove@CString@@QAEHD@Z   004c6a2b f   nafxcwd:strex.obj
 0001:000c5ad2       ?Mid@CString@@QBE?AV1@H@Z  004c6ad2 f   nafxcwd:strex.obj
 0001:000c5b12       ?Mid@CString@@QBE?AV1@HH@Z 004c6b12 f   nafxcwd:strex.obj
 0001:000c5c6b       ?Right@CString@@QBE?AV1@H@Z 004c6c6b f   nafxcwd:strex.obj
 0001:000c5d2a       ?Left@CString@@QBE?AV1@H@Z 004c6d2a f   nafxcwd:strex.obj
 0001:000c5ddc       ?SpanIncluding@CString@@QBE?AV1@PBD@Z 004c6ddc f   nafxcwd:strex.obj
 0001:000c5e4b       ?SpanExcluding@CString@@QBE?AV1@PBD@Z 004c6e4b f   nafxcwd:strex.obj
 0001:000c5eba       ?ReverseFind@CString@@QBEHD@Z 004c6eba f   nafxcwd:strex.obj
 0001:000c5f00       ?Find@CString@@QBEHPBD@Z   004c6f00 f   nafxcwd:strex.obj
 0001:000c5f1b       ?Find@CString@@QBEHPBDH@Z  004c6f1b f   nafxcwd:strex.obj
 0001:000c5fa9       ?FormatV@CString@@QAEXPBDPAD@Z 004c6fa9 f   nafxcwd:strex.obj
 0001:000c6786       ?Format@CString@@QAAXPBDZZ 004c7786 f   nafxcwd:strex.obj
 0001:000c67da       ?Format@CString@@QAAXIZZ   004c77da f   nafxcwd:strex.obj
 0001:000c6873       ?FormatMessageA@CString@@QAAXPBDZZ 004c7873 f   nafxcwd:strex.obj
 0001:000c68cc       ?FormatMessageA@CString@@QAAXIZZ 004c78cc f   nafxcwd:strex.obj
 0001:000c6997       ?TrimRight@CString@@QAEXPBD@Z 004c7997 f   nafxcwd:strex.obj
 0001:000c6a25       ?TrimRight@CString@@QAEXD@Z 004c7a25 f   nafxcwd:strex.obj
 0001:000c6aaa       ?TrimRight@CString@@QAEXXZ 004c7aaa f   nafxcwd:strex.obj
 0001:000c6b32       ?TrimLeft@CString@@QAEXPBD@Z 004c7b32 f   nafxcwd:strex.obj
 0001:000c6be0       ?TrimLeft@CString@@QAEXD@Z 004c7be0 f   nafxcwd:strex.obj
 0001:000c6c67       ?TrimLeft@CString@@QAEXXZ  004c7c67 f   nafxcwd:strex.obj
 0001:000c6cf1       ?ConstructElements@@YGXPAVCString@@H@Z 004c7cf1 f   nafxcwd:strex.obj
 0001:000c6d64       ?DestructElements@@YGXPAVCString@@H@Z 004c7d64 f   nafxcwd:strex.obj
 0001:000c6dce       ?CopyElements@@YGXPAVCString@@PBV1@H@Z 004c7dce f   nafxcwd:strex.obj
 0001:000c6e79       ?HashKey@@YGIPBG@Z         004c7e79 f   nafxcwd:strex.obj
 0001:000c6eba       ?HashKey@@YGIPBD@Z         004c7eba f   nafxcwd:strex.obj
 0001:000c6f00       ??_GCString@@QAEPAXI@Z     004c7f00 f i nafxcwd:strex.obj
 0001:000c6f30       ??0CFileDialog@@QAE@HPBD0K0PAVCWnd@@@Z 004c7f30 f   nafxcwd:dlgfile.obj
 0001:000c713b       ?DoModal@CFileDialog@@UAEHXZ 004c813b f   nafxcwd:dlgfile.obj
 0001:000c7376       ?GetPathName@CFileDialog@@QBE?AVCString@@XZ 004c8376 f   nafxcwd:dlgfile.obj
 0001:000c74ec       ?GetFileName@CFileDialog@@QBE?AVCString@@XZ 004c84ec f   nafxcwd:dlgfile.obj
 0001:000c761a       ?GetFileExt@CFileDialog@@QBE?AVCString@@XZ 004c861a f   nafxcwd:dlgfile.obj
 0001:000c7837       ?GetFileTitle@CFileDialog@@QBE?AVCString@@XZ 004c8837 f   nafxcwd:dlgfile.obj
 0001:000c78df       ?GetNextPathName@CFileDialog@@QBE?AVCString@@AAPAU__POSITION@@@Z 004c88df f   nafxcwd:dlgfile.obj
 0001:000c7c68       ?SetTemplate@CFileDialog@@QAEXPBD0@Z 004c8c68 f   nafxcwd:dlgfile.obj
 0001:000c7cb7       ?GetFolderPath@CFileDialog@@QBE?AVCString@@XZ 004c8cb7 f   nafxcwd:dlgfile.obj
 0001:000c7dbc       ?SetControlText@CFileDialog@@QAEXHPBD@Z 004c8dbc f   nafxcwd:dlgfile.obj
 0001:000c7e43       ?HideControl@CFileDialog@@QAEXH@Z 004c8e43 f   nafxcwd:dlgfile.obj
 0001:000c7ec8       ?SetDefExt@CFileDialog@@QAEXPBD@Z 004c8ec8 f   nafxcwd:dlgfile.obj
 0001:000c7f4d       ?OnShareViolation@CFileDialog@@MAEIPBD@Z 004c8f4d f   nafxcwd:dlgfile.obj
 0001:000c7f6f       ?OnFileNameOK@CFileDialog@@MAEHXZ 004c8f6f f   nafxcwd:dlgfile.obj
 0001:000c7f8f       ?OnLBSelChangedNotify@CFileDialog@@MAEXIII@Z 004c8f8f f   nafxcwd:dlgfile.obj
 0001:000c7faf       ?OnInitDone@CFileDialog@@MAEXXZ 004c8faf f   nafxcwd:dlgfile.obj
 0001:000c7fde       ?OnFileNameChange@CFileDialog@@MAEXXZ 004c8fde f   nafxcwd:dlgfile.obj
 0001:000c7ffc       ?OnFolderChange@CFileDialog@@MAEXXZ 004c8ffc f   nafxcwd:dlgfile.obj
 0001:000c801a       ?OnTypeChange@CFileDialog@@MAEXXZ 004c901a f   nafxcwd:dlgfile.obj
 0001:000c8038       ?OnNotify@CFileDialog@@MAEHIJPAJ@Z 004c9038 f   nafxcwd:dlgfile.obj
 0001:000c81a4       ?Dump@CFileDialog@@UBEXAAVCDumpContext@@@Z 004c91a4 f   nafxcwd:dlgfile.obj
 0001:000c8430       ??_GCFileDialog@@UAEPAXI@Z 004c9430 f i nafxcwd:dlgfile.obj
 0001:000c8430       ??_ECFileDialog@@UAEPAXI@Z 004c9430 f i nafxcwd:dlgfile.obj
 0001:000c8460       ?AfxIsValidString@@YGHPBGH@Z 004c9460 f   nafxcwd:validadd.obj
 0001:000c84a2       ?AfxIsValidString@@YGHPBDH@Z 004c94a2 f   nafxcwd:validadd.obj
 0001:000c84c6       ?AfxIsValidAddress@@YGHPBXIH@Z 004c94c6 f   nafxcwd:validadd.obj
 0001:000c8520       ??0_AFX_COLOR_STATE@@QAE@XZ 004c9520 f   nafxcwd:dlgclr.obj
 0001:000c8569       ?GetMessageMap@CColorDialog@@MBEPBUAFX_MSGMAP@@XZ 004c9569 f   nafxcwd:dlgclr.obj
 0001:000c8579       ??0CColorDialog@@QAE@KKPAVCWnd@@@Z 004c9579 f   nafxcwd:dlgclr.obj
 0001:000c864f       ?DoModal@CColorDialog@@UAEHXZ 004c964f f   nafxcwd:dlgclr.obj
 0001:000c86f3       ?OnColorOK@CColorDialog@@MAEHXZ 004c96f3 f   nafxcwd:dlgclr.obj
 0001:000c8710       ?SetCurrentColor@CColorDialog@@QAEXK@Z 004c9710 f   nafxcwd:dlgclr.obj
 0001:000c8768       ?GetSavedCustomColors@CColorDialog@@SGPAKXZ 004c9768 f   nafxcwd:dlgclr.obj
 0001:000c877a       ?OnCtlColor@CColorDialog@@IAEPAUHBRUSH__@@PAVCDC@@PAVCWnd@@I@Z 004c977a f   nafxcwd:dlgclr.obj
 0001:000c878f       ?Dump@CColorDialog@@UBEXAAVCDumpContext@@@Z 004c978f f   nafxcwd:dlgclr.obj
 0001:000c8880       ??_G_AFX_COLOR_STATE@@UAEPAXI@Z 004c9880 f i nafxcwd:dlgclr.obj
 0001:000c8880       ??_E_AFX_COLOR_STATE@@UAEPAXI@Z 004c9880 f i nafxcwd:dlgclr.obj
 0001:000c88b0       ??1_AFX_COLOR_STATE@@UAE@XZ 004c98b0 f i nafxcwd:dlgclr.obj
 0001:000c88d0       ??_GCColorDialog@@UAEPAXI@Z 004c98d0 f i nafxcwd:dlgclr.obj
 0001:000c88d0       ??_ECColorDialog@@UAEPAXI@Z 004c98d0 f i nafxcwd:dlgclr.obj
 0001:000c8900       ?AfxDump@@YGXPBVCObject@@@Z 004c9900 f   nafxcwd:dumpout.obj
 0001:000c8915       ?AfxTrace@@YAXPBDZZ        004c9915 f   nafxcwd:dumpout.obj
 0001:000c89e0       ?InitString@CSimpleException@@QAEXXZ 004c99e0 f   nafxcwd:except.obj
 0001:000c8a1c       ?GetErrorMessage@CSimpleException@@UAEHPADIPAI@Z 004c9a1c f   nafxcwd:except.obj
 0001:000c8aac       ?AfxThrowMemoryException@@YGXXZ 004c9aac f   nafxcwd:except.obj
 0001:000c8ac9       ?AfxThrowNotSupportedException@@YGXXZ 004c9ac9 f   nafxcwd:except.obj
 0001:000c8af0       ??0CTime@@QAE@HHHHHHH@Z    004c9af0 f   nafxcwd:timecore.obj
 0001:000c8bd1       ??0CTime@@QAE@GGH@Z        004c9bd1 f   nafxcwd:timecore.obj
 0001:000c8c89       ??0CTime@@QAE@ABU_SYSTEMTIME@@H@Z 004c9c89 f   nafxcwd:timecore.obj
 0001:000c8d1f       ??0CTime@@QAE@ABU_FILETIME@@H@Z 004c9d1f f   nafxcwd:timecore.obj
 0001:000c8d87       ?GetTickCount@CTime@@SG?AV1@XZ 004c9d87 f   nafxcwd:timecore.obj
 0001:000c8da4       ?GetGmtTm@CTime@@QBEPAUtm@@PAU2@@Z 004c9da4 f   nafxcwd:timecore.obj
 0001:000c8de4       ?GetLocalTm@CTime@@QBEPAUtm@@PAU2@@Z 004c9de4 f   nafxcwd:timecore.obj
 0001:000c8e34       ?GetAsSystemTime@CTime@@QBEHAAU_SYSTEMTIME@@@Z 004c9e34 f   nafxcwd:timecore.obj
 0001:000c8ecf       ??6@YGAAVCDumpContext@@AAV0@VCTime@@@Z 004c9ecf f   nafxcwd:timecore.obj
 0001:000c8f45       ??6@YGAAVCArchive@@AAV0@VCTime@@@Z 004c9f45 f   nafxcwd:timecore.obj
 0001:000c8f58       ??5@YGAAVCArchive@@AAV0@AAVCTime@@@Z 004c9f58 f   nafxcwd:timecore.obj
 0001:000c8f6b       ??6@YGAAVCDumpContext@@AAV0@VCTimeSpan@@@Z 004c9f6b f   nafxcwd:timecore.obj
 0001:000c8fef       ??6@YGAAVCArchive@@AAV0@VCTimeSpan@@@Z 004c9fef f   nafxcwd:timecore.obj
 0001:000c9002       ??5@YGAAVCArchive@@AAV0@AAVCTimeSpan@@@Z 004ca002 f   nafxcwd:timecore.obj
 0001:000c9015       ?Format@CTimeSpan@@QBE?AVCString@@PBD@Z 004ca015 f   nafxcwd:timecore.obj
 0001:000c92f9       ?Format@CTimeSpan@@QBE?AVCString@@I@Z 004ca2f9 f   nafxcwd:timecore.obj
 0001:000c9399       ?Format@CTime@@QBE?AVCString@@PBD@Z 004ca399 f   nafxcwd:timecore.obj
 0001:000c9418       ?FormatGmt@CTime@@QBE?AVCString@@PBD@Z 004ca418 f   nafxcwd:timecore.obj
 0001:000c9497       ?Format@CTime@@QBE?AVCString@@I@Z 004ca497 f   nafxcwd:timecore.obj
 0001:000c9537       ?FormatGmt@CTime@@QBE?AVCString@@I@Z 004ca537 f   nafxcwd:timecore.obj
 0001:000c95e0       ?GetMessageMap@CCommonDialog@@MBEPBUAFX_MSGMAP@@XZ 004ca5e0 f   nafxcwd:dlgcomm.obj
 0001:000c95f0       ?_AfxCommDlgProc@@YGIPAUHWND__@@IIJ@Z 004ca5f0 f   nafxcwd:dlgcomm.obj
 0001:000c9937       ?OnOK@CCommonDialog@@MAEXXZ 004ca937 f   nafxcwd:dlgcomm.obj
 0001:000c997f       ?OnCancel@CCommonDialog@@MAEXXZ 004ca97f f   nafxcwd:dlgcomm.obj
 0001:000c99a5       ?OnHelpInfo@CCommonDialog@@IAEHPAUtagHELPINFO@@@Z 004ca9a5 f   nafxcwd:dlgcomm.obj
 0001:000c99c0       ?LoadBitmaps@CBitmapButton@@QAEHPBD000@Z 004ca9c0 f   nafxcwd:winbtn.obj
 0001:000c9aa0       ?SizeToContent@CBitmapButton@@QAEXXZ 004caaa0 f   nafxcwd:winbtn.obj
 0001:000c9b3b       ?AutoLoad@CBitmapButton@@QAEHIPAVCWnd@@@Z 004cab3b f   nafxcwd:winbtn.obj
 0001:000c9ce5       ?DrawItem@CBitmapButton@@MAEXPAUtagDRAWITEMSTRUCT@@@Z 004cace5 f   nafxcwd:winbtn.obj
 0001:000c9e71       ?AssertValid@CBitmapButton@@UBEXXZ 004cae71 f   nafxcwd:winbtn.obj
 0001:000c9ec0       ?Dump@CBitmapButton@@UBEXAAVCDumpContext@@@Z 004caec0 f   nafxcwd:winbtn.obj
 0001:000c9f94       ?_AfxCrtDumpClient@@YAXPAXI@Z 004caf94 f   nafxcwd:dumpinit.obj
 0001:000ca106       ?_AfxCrtReportHook@@YAHHPADPAH@Z 004cb106 f   nafxcwd:dumpinit.obj
 0001:000ca163       ??0_AFX_DEBUG_STATE@@QAE@XZ 004cb163 f   nafxcwd:dumpinit.obj
 0001:000ca25d       ??1_AFX_DEBUG_STATE@@UAE@XZ 004cb25d f   nafxcwd:dumpinit.obj
 0001:000ca2ee       ?AfxDiagnosticInit@@YGHXZ  004cb2ee f   nafxcwd:dumpinit.obj
 0001:000ca330       ??_E_AFX_DEBUG_STATE@@UAEPAXI@Z 004cb330 f i nafxcwd:dumpinit.obj
 0001:000ca330       ??_G_AFX_DEBUG_STATE@@UAEPAXI@Z 004cb330 f i nafxcwd:dumpinit.obj
 0001:000ca360       ??1?$CProcessLocal@V_AFX_DEBUG_STATE@@@@QAE@XZ 004cb360 f i nafxcwd:dumpinit.obj
 0001:000ca380       ?GetData@?$CProcessLocal@V_AFX_DEBUG_STATE@@@@QAEPAV_AFX_DEBUG_STATE@@XZ 004cb380 f i nafxcwd:dumpinit.obj
 0001:000ca3d0       ?CreateObject@?$CProcessLocal@V_AFX_DEBUG_STATE@@@@SGPAVCNoTrackObject@@XZ 004cb3d0 f i nafxcwd:dumpinit.obj
 0001:000ca440       ??0CPageSetupDialog@@QAE@KPAVCWnd@@@Z 004cb440 f   nafxcwd:dlgprnt.obj
 0001:000ca4fc       ?DoModal@CPageSetupDialog@@UAEHXZ 004cb4fc f   nafxcwd:dlgprnt.obj
 0001:000ca5f0       ?GetDevMode@CPageSetupDialog@@QBEPAU_devicemodeA@@XZ 004cb5f0 f   nafxcwd:dlgprnt.obj
 0001:000ca615       ?GetDriverName@CPageSetupDialog@@QBE?AVCString@@XZ 004cb615 f   nafxcwd:dlgprnt.obj
 0001:000ca681       ?GetDeviceName@CPageSetupDialog@@QBE?AVCString@@XZ 004cb681 f   nafxcwd:dlgprnt.obj
 0001:000ca6ee       ?GetPortName@CPageSetupDialog@@QBE?AVCString@@XZ 004cb6ee f   nafxcwd:dlgprnt.obj
 0001:000ca75b       ?CreatePrinterDC@CPageSetupDialog@@QAEPAUHDC__@@XZ 004cb75b f   nafxcwd:dlgprnt.obj
 0001:000ca789       ?GetMargins@CPageSetupDialog@@QBEXPAUtagRECT@@0@Z 004cb789 f   nafxcwd:dlgprnt.obj
 0001:000ca7ce       ?Dump@CPageSetupDialog@@UBEXAAVCDumpContext@@@Z 004cb7ce f   nafxcwd:dlgprnt.obj
 0001:000ca8d2       ?PreDrawPage@CPageSetupDialog@@UAEIGGPAUtagPSDA@@@Z 004cb8d2 f   nafxcwd:dlgprnt.obj
 0001:000ca8e1       ?OnDrawPage@CPageSetupDialog@@UAEIPAVCDC@@IPAUtagRECT@@@Z 004cb8e1 f   nafxcwd:dlgprnt.obj
 0001:000ca8f0       ?PaintHookProc@CPageSetupDialog@@KGIPAUHWND__@@IIJ@Z 004cb8f0 f   nafxcwd:dlgprnt.obj
 0001:000ca9a0       ?GetMessageMap@CPrintDialog@@MBEPBUAFX_MSGMAP@@XZ 004cb9a0 f   nafxcwd:dlgprnt.obj
 0001:000ca9b0       ??0CPrintDialog@@QAE@HKPAVCWnd@@@Z 004cb9b0 f   nafxcwd:dlgprnt.obj
 0001:000caadb       ??0CPrintDialog@@IAE@AAUtagPDA@@@Z 004cbadb f   nafxcwd:dlgprnt.obj
 0001:000cab07       ?AttachOnSetup@CPrintDialog@@MAEPAV1@XZ 004cbb07 f   nafxcwd:dlgprnt.obj
 0001:000cabbb       ?OnPrintSetup@CPrintDialog@@IAEXXZ 004cbbbb f   nafxcwd:dlgprnt.obj
 0001:000cac53       ?DoModal@CPrintDialog@@UAEHXZ 004cbc53 f   nafxcwd:dlgprnt.obj
 0001:000cad5e       ?CreatePrinterDC@CPrintDialog@@QAEPAUHDC__@@XZ 004cbd5e f   nafxcwd:dlgprnt.obj
 0001:000cada7       ?GetCopies@CPrintDialog@@QBEHXZ 004cbda7 f   nafxcwd:dlgprnt.obj
 0001:000cadf1       ?GetDevMode@CPrintDialog@@QBEPAU_devicemodeA@@XZ 004cbdf1 f   nafxcwd:dlgprnt.obj
 0001:000cae1c       ?GetDriverName@CPrintDialog@@QBE?AVCString@@XZ 004cbe1c f   nafxcwd:dlgprnt.obj
 0001:000cae8d       ?GetDeviceName@CPrintDialog@@QBE?AVCString@@XZ 004cbe8d f   nafxcwd:dlgprnt.obj
 0001:000caeff       ?GetPortName@CPrintDialog@@QBE?AVCString@@XZ 004cbeff f   nafxcwd:dlgprnt.obj
 0001:000caf71       ?GetDefaults@CPrintDialog@@QAEHXZ 004cbf71 f   nafxcwd:dlgprnt.obj
 0001:000caf9d       ?Dump@CPrintDialog@@UBEXAAVCDumpContext@@@Z 004cbf9d f   nafxcwd:dlgprnt.obj
 0001:000cb120       ?AfxCreateDC@@YGPAUHDC__@@PAX0@Z 004cc120 f   nafxcwd:dlgprnt.obj
 0001:000cb1d0       ??_ECPageSetupDialog@@UAEPAXI@Z 004cc1d0 f i nafxcwd:dlgprnt.obj
 0001:000cb1d0       ??_GCPageSetupDialog@@UAEPAXI@Z 004cc1d0 f i nafxcwd:dlgprnt.obj
 0001:000cb200       ??1CPageSetupDialog@@UAE@XZ 004cc200 f i nafxcwd:dlgprnt.obj
 0001:000cb220       ??_GCPrintDialog@@UAEPAXI@Z 004cc220 f i nafxcwd:dlgprnt.obj
 0001:000cb220       ??_ECPrintDialog@@UAEPAXI@Z 004cc220 f i nafxcwd:dlgprnt.obj
 0001:000cb250       ??1CPrintDialog@@UAE@XZ    004cc250 f i nafxcwd:dlgprnt.obj
 0001:000cda50       ??1CDragListBox@@UAE@XZ    004cea50 f   nafxcwd:winctrl2.obj
 0001:000cdaa1       ?PreSubclassWindow@CDragListBox@@UAEXXZ 004ceaa1 f   nafxcwd:winctrl2.obj
 0001:000cdb0d       ?BeginDrag@CDragListBox@@UAEHVCPoint@@@Z 004ceb0d f   nafxcwd:winctrl2.obj
 0001:000cdb4a       ?CancelDrag@CDragListBox@@UAEXVCPoint@@@Z 004ceb4a f   nafxcwd:winctrl2.obj
 0001:000cdb67       ?Dragging@CDragListBox@@UAEIVCPoint@@@Z 004ceb67 f   nafxcwd:winctrl2.obj
 0001:000cdbbf       ?Dropped@CDragListBox@@UAEXHVCPoint@@@Z 004cebbf f   nafxcwd:winctrl2.obj
 0001:000cdd04       ?DrawInsert@CDragListBox@@UAEXH@Z 004ced04 f   nafxcwd:winctrl2.obj
 0001:000cdd40       ?DrawSingle@CDragListBox@@QAEXH@Z 004ced40 f   nafxcwd:winctrl2.obj
 0001:000cde46       ?OnChildNotify@CDragListBox@@MAEHIIJPAJ@Z 004cee46 f   nafxcwd:winctrl2.obj
 0001:000cdfab       ?GetMessageMap@CToolBarCtrl@@MBEPBUAFX_MSGMAP@@XZ 004cefab f   nafxcwd:winctrl2.obj
 0001:000cdfbb       ?Create@CToolBarCtrl@@QAEHKABUtagRECT@@PAVCWnd@@I@Z 004cefbb f   nafxcwd:winctrl2.obj
 0001:000ce022       ??1CToolBarCtrl@@UAE@XZ    004cf022 f   nafxcwd:winctrl2.obj
 0001:000ce073       ?AddBitmap@CToolBarCtrl@@QAEHHPAVCBitmap@@@Z 004cf073 f   nafxcwd:winctrl2.obj
 0001:000ce0df       ?AddBitmap@CToolBarCtrl@@QAEHHI@Z 004cf0df f   nafxcwd:winctrl2.obj
 0001:000ce167       ?SaveState@CToolBarCtrl@@QAEXPAUHKEY__@@PBD1@Z 004cf167 f   nafxcwd:winctrl2.obj
 0001:000ce1d1       ?RestoreState@CToolBarCtrl@@QAEXPAUHKEY__@@PBD1@Z 004cf1d1 f   nafxcwd:winctrl2.obj
 0001:000ce23b       ?AddString@CToolBarCtrl@@QAEHI@Z 004cf23b f   nafxcwd:winctrl2.obj
 0001:000ce2bd       ?OnCreate@CToolBarCtrl@@IAEHPAUtagCREATESTRUCTA@@@Z 004cf2bd f   nafxcwd:winctrl2.obj
 0001:000ce2ec       ?GetDropTarget@CToolBarCtrl@@QBEJPAPAUIDropTarget@@@Z 004cf2ec f   nafxcwd:winctrl2.obj
 0001:000ce365       ?Create@CStatusBarCtrl@@QAEHKABUtagRECT@@PAVCWnd@@I@Z 004cf365 f   nafxcwd:winctrl2.obj
 0001:000ce3cc       ??1CStatusBarCtrl@@UAE@XZ  004cf3cc f   nafxcwd:winctrl2.obj
 0001:000ce41d       ?GetText@CStatusBarCtrl@@QBEHPBDHPAH@Z 004cf41d f   nafxcwd:winctrl2.obj
 0001:000ce4c2       ?GetText@CStatusBarCtrl@@QBE?AVCString@@HPAH@Z 004cf4c2 f   nafxcwd:winctrl2.obj
 0001:000ce5ee       ?GetTextLength@CStatusBarCtrl@@QBEHHPAH@Z 004cf5ee f   nafxcwd:winctrl2.obj
 0001:000ce691       ?GetTipText@CStatusBarCtrl@@QBE?AVCString@@H@Z 004cf691 f   nafxcwd:winctrl2.obj
 0001:000ce753       ?GetBorders@CStatusBarCtrl@@QBEHAAH00@Z 004cf753 f   nafxcwd:winctrl2.obj
 0001:000ce7cf       ?DrawItem@CStatusBarCtrl@@UAEXPAUtagDRAWITEMSTRUCT@@@Z 004cf7cf f   nafxcwd:winctrl2.obj
 0001:000ce805       ?OnChildNotify@CStatusBarCtrl@@MAEHIIJPAJ@Z 004cf805 f   nafxcwd:winctrl2.obj
 0001:000ce86f       ?GetMessageMap@CListCtrl@@MBEPBUAFX_MSGMAP@@XZ 004cf86f f   nafxcwd:winctrl2.obj
 0001:000ce87f       ?Create@CListCtrl@@QAEHKABUtagRECT@@PAVCWnd@@I@Z 004cf87f f   nafxcwd:winctrl2.obj
 0001:000ce8e6       ??1CListCtrl@@UAE@XZ       004cf8e6 f   nafxcwd:winctrl2.obj
 0001:000ce937       ?GetItemRect@CListCtrl@@QBEHHPAUtagRECT@@I@Z 004cf937 f   nafxcwd:winctrl2.obj
 0001:000ce997       ?SetItemCountEx@CListCtrl@@QAEHHK@Z 004cf997 f   nafxcwd:winctrl2.obj
 0001:000cea20       ?SetIconSpacing@CListCtrl@@QAE?AVCSize@@HH@Z 004cfa20 f   nafxcwd:winctrl2.obj
 0001:000cea9d       ?SetIconSpacing@CListCtrl@@QAE?AVCSize@@V2@@Z 004cfa9d f   nafxcwd:winctrl2.obj
 0001:000ceb1a       ?GetSubItemRect@CListCtrl@@QAEHHHHAAVCRect@@@Z 004cfb1a f   nafxcwd:winctrl2.obj
 0001:000cebc4       ?InsertColumn@CListCtrl@@QAEHHPBDHHH@Z 004cfbc4 f   nafxcwd:winctrl2.obj
 0001:000cec20       ?InsertItem@CListCtrl@@QAEHIHPBDIIHJ@Z 004cfc20 f   nafxcwd:winctrl2.obj
 0001:000cec9d       ?HitTest@CListCtrl@@QBEHVCPoint@@PAI@Z 004cfc9d f   nafxcwd:winctrl2.obj
 0001:000ced15       ?SetItem@CListCtrl@@QAEHHHIPBDHIIJ@Z 004cfd15 f   nafxcwd:winctrl2.obj
 0001:000cedc8       ?SetItemState@CListCtrl@@QAEHHII@Z 004cfdc8 f   nafxcwd:winctrl2.obj
 0001:000cee2e       ?SetItemText@CListCtrl@@QAEHHHPBD@Z 004cfe2e f   nafxcwd:winctrl2.obj
 0001:000ceebf       ?GetItemText@CListCtrl@@QBE?AVCString@@HH@Z 004cfebf f   nafxcwd:winctrl2.obj
 0001:000cefc4       ?GetItemText@CListCtrl@@QBEHHHPADH@Z 004cffc4 f   nafxcwd:winctrl2.obj
 0001:000cf040       ?GetItemData@CListCtrl@@QBEKH@Z 004d0040 f   nafxcwd:winctrl2.obj
 0001:000cf0d6       ?DrawItem@CListCtrl@@UAEXPAUtagDRAWITEMSTRUCT@@@Z 004d00d6 f   nafxcwd:winctrl2.obj
 0001:000cf10c       ?OnChildNotify@CListCtrl@@MAEHIIJPAJ@Z 004d010c f   nafxcwd:winctrl2.obj
 0001:000cf176       ?RemoveImageList@CListCtrl@@IAEXH@Z 004d0176 f   nafxcwd:winctrl2.obj
 0001:000cf1bb       ?OnNcDestroy@CListCtrl@@IAEXXZ 004d01bb f   nafxcwd:winctrl2.obj
 0001:000cf1ec       ?CreateDragImage@CListCtrl@@QAEPAVCImageList@@HPAUtagPOINT@@@Z 004d01ec f   nafxcwd:winctrl2.obj
 0001:000cf2e7       ?GetMessageMap@CTreeCtrl@@MBEPBUAFX_MSGMAP@@XZ 004d02e7 f   nafxcwd:winctrl2.obj
 0001:000cf2f7       ?Create@CTreeCtrl@@QAEHKABUtagRECT@@PAVCWnd@@I@Z 004d02f7 f   nafxcwd:winctrl2.obj
 0001:000cf35e       ??1CTreeCtrl@@UAE@XZ       004d035e f   nafxcwd:winctrl2.obj
 0001:000cf3af       ?GetItemRect@CTreeCtrl@@QBEHPAU_TREEITEM@@PAUtagRECT@@H@Z 004d03af f   nafxcwd:winctrl2.obj
 0001:000cf40f       ?GetItemText@CTreeCtrl@@QBE?AVCString@@PAU_TREEITEM@@@Z 004d040f f   nafxcwd:winctrl2.obj
 0001:000cf513       ?GetItemImage@CTreeCtrl@@QBEHPAU_TREEITEM@@AAH1@Z 004d0513 f   nafxcwd:winctrl2.obj
 0001:000cf594       ?GetItemState@CTreeCtrl@@QBEIPAU_TREEITEM@@I@Z 004d0594 f   nafxcwd:winctrl2.obj
 0001:000cf627       ?GetItemData@CTreeCtrl@@QBEKPAU_TREEITEM@@@Z 004d0627 f   nafxcwd:winctrl2.obj
 0001:000cf6ad       ?ItemHasChildren@CTreeCtrl@@QBEHPAU_TREEITEM@@@Z 004d06ad f   nafxcwd:winctrl2.obj
 0001:000cf715       ?SetItem@CTreeCtrl@@QAEHPAU_TREEITEM@@IPBDHHIIJ@Z 004d0715 f   nafxcwd:winctrl2.obj
 0001:000cf79d       ?InsertItem@CTreeCtrl@@QAEPAU_TREEITEM@@IPBDHHIIJPAU2@1@Z 004d079d f   nafxcwd:winctrl2.obj
 0001:000cf82b       ?HitTest@CTreeCtrl@@QBEPAU_TREEITEM@@VCPoint@@PAI@Z 004d082b f   nafxcwd:winctrl2.obj
 0001:000cf8a3       ?RemoveImageList@CTreeCtrl@@IAEXH@Z 004d08a3 f   nafxcwd:winctrl2.obj
 0001:000cf8e8       ?OnDestroy@CTreeCtrl@@QAEXXZ 004d08e8 f   nafxcwd:winctrl2.obj
 0001:000cf90f       ?CreateDragImage@CTreeCtrl@@QAEPAVCImageList@@PAU_TREEITEM@@@Z 004d090f f   nafxcwd:winctrl2.obj
 0001:000cfa08       ?GetCheck@CTreeCtrl@@QBEHPAU_TREEITEM@@@Z 004d0a08 f   nafxcwd:winctrl2.obj
 0001:000cfa9b       ?SetCheck@CTreeCtrl@@QAEHPAU_TREEITEM@@H@Z 004d0a9b f   nafxcwd:winctrl2.obj
 0001:000cfb17       ?Create@CSpinButtonCtrl@@QAEHKABUtagRECT@@PAVCWnd@@I@Z 004d0b17 f   nafxcwd:winctrl2.obj
 0001:000cfb7b       ??1CSpinButtonCtrl@@UAE@XZ 004d0b7b f   nafxcwd:winctrl2.obj
 0001:000cfbcc       ?GetRange@CSpinButtonCtrl@@QBEXAAH0@Z 004d0bcc f   nafxcwd:winctrl2.obj
 0001:000cfc42       ?Create@CSliderCtrl@@QAEHKABUtagRECT@@PAVCWnd@@I@Z 004d0c42 f   nafxcwd:winctrl2.obj
 0001:000cfca9       ??1CSliderCtrl@@UAE@XZ     004d0ca9 f   nafxcwd:winctrl2.obj
 0001:000cfcfa       ?GetRange@CSliderCtrl@@QBEXAAH0@Z 004d0cfa f   nafxcwd:winctrl2.obj
 0001:000cfd52       ?SetRange@CSliderCtrl@@QAEXHHH@Z 004d0d52 f   nafxcwd:winctrl2.obj
 0001:000cfd7f       ?GetSelection@CSliderCtrl@@QBEXAAH0@Z 004d0d7f f   nafxcwd:winctrl2.obj
 0001:000cfdf3       ?SetSelection@CSliderCtrl@@QAEXHH@Z 004d0df3 f   nafxcwd:winctrl2.obj
 0001:000cfe61       ?Create@CProgressCtrl@@QAEHKABUtagRECT@@PAVCWnd@@I@Z 004d0e61 f   nafxcwd:winctrl2.obj
 0001:000cfec8       ??1CProgressCtrl@@UAE@XZ   004d0ec8 f   nafxcwd:winctrl2.obj
 0001:000cff19       ?Create@CHeaderCtrl@@QAEHKABUtagRECT@@PAVCWnd@@I@Z 004d0f19 f   nafxcwd:winctrl2.obj
 0001:000cff80       ??1CHeaderCtrl@@UAE@XZ     004d0f80 f   nafxcwd:winctrl2.obj
 0001:000cffd1       ?DrawItem@CHeaderCtrl@@UAEXPAUtagDRAWITEMSTRUCT@@@Z 004d0fd1 f   nafxcwd:winctrl2.obj
 0001:000d0007       ?OnChildNotify@CHeaderCtrl@@MAEHIIJPAJ@Z 004d1007 f   nafxcwd:winctrl2.obj
 0001:000d0071       ?Create@CHotKeyCtrl@@QAEHKABUtagRECT@@PAVCWnd@@I@Z 004d1071 f   nafxcwd:winctrl2.obj
 0001:000d00d8       ??1CHotKeyCtrl@@UAE@XZ     004d10d8 f   nafxcwd:winctrl2.obj
 0001:000d0129       ?GetHotKey@CHotKeyCtrl@@QBEXAAG0@Z 004d1129 f   nafxcwd:winctrl2.obj
 0001:000d01aa       ?GetMessageMap@CTabCtrl@@MBEPBUAFX_MSGMAP@@XZ 004d11aa f   nafxcwd:winctrl2.obj
 0001:000d01ba       ?Create@CTabCtrl@@QAEHKABUtagRECT@@PAVCWnd@@I@Z 004d11ba f   nafxcwd:winctrl2.obj
 0001:000d0221       ??1CTabCtrl@@UAE@XZ        004d1221 f   nafxcwd:winctrl2.obj
 0001:000d0272       ?DrawItem@CTabCtrl@@UAEXPAUtagDRAWITEMSTRUCT@@@Z 004d1272 f   nafxcwd:winctrl2.obj
 0001:000d02a8       ?OnChildNotify@CTabCtrl@@MAEHIIJPAJ@Z 004d12a8 f   nafxcwd:winctrl2.obj
 0001:000d0312       ?OnDestroy@CTabCtrl@@IAEXXZ 004d1312 f   nafxcwd:winctrl2.obj
 0001:000d0359       ?GetItemState@CTabCtrl@@QBEKHK@Z 004d1359 f   nafxcwd:winctrl2.obj
 0001:000d03e1       ?SetItemState@CTabCtrl@@QAEHHKK@Z 004d13e1 f   nafxcwd:winctrl2.obj
 0001:000d044e       ?InsertItem@CTabCtrl@@QAEHIHPBDHJ@Z 004d144e f   nafxcwd:winctrl2.obj
 0001:000d04c0       ?InsertItem@CTabCtrl@@QAEHIHPBDHJKK@Z 004d14c0 f   nafxcwd:winctrl2.obj
 0001:000d053e       ?Create@CAnimateCtrl@@QAEHKABUtagRECT@@PAVCWnd@@I@Z 004d153e f   nafxcwd:winctrl2.obj
 0001:000d05a5       ??1CAnimateCtrl@@UAE@XZ    004d15a5 f   nafxcwd:winctrl2.obj
 0001:000d05f6       ??1CRichEditCtrl@@UAE@XZ   004d15f6 f   nafxcwd:winctrl2.obj
 0001:000d0647       ?afxMapHIMAGELIST@@YGPAVCHandleMap@@H@Z 004d1647 f   nafxcwd:winctrl2.obj
 0001:000d0717       ??0CImageList@@QAE@XZ      004d1717 f   nafxcwd:winctrl2.obj
 0001:000d0740       ??1CImageList@@UAE@XZ      004d1740 f   nafxcwd:winctrl2.obj
 0001:000d0791       ?Detach@CImageList@@QAEPAU_IMAGELIST@@XZ 004d1791 f   nafxcwd:winctrl2.obj
 0001:000d07d9       ?DeleteImageList@CImageList@@QAEHXZ 004d17d9 f   nafxcwd:winctrl2.obj
 0001:000d0800       ?FromHandle@CImageList@@SGPAV1@PAU_IMAGELIST@@@Z 004d1800 f   nafxcwd:winctrl2.obj
 0001:000d0879       ?FromHandlePermanent@CImageList@@SGPAV1@PAU_IMAGELIST@@@Z 004d1879 f   nafxcwd:winctrl2.obj
 0001:000d08df       ?Create@CImageList@@QAEHHHIHH@Z 004d18df f   nafxcwd:winctrl2.obj
 0001:000d090f       ?Create@CImageList@@QAEHIHHK@Z 004d190f f   nafxcwd:winctrl2.obj
 0001:000d09a1       ?Create@CImageList@@QAEHPBDHHK@Z 004d19a1 f   nafxcwd:winctrl2.obj
 0001:000d0a05       ?Create@CImageList@@QAEHAAV1@H0HHH@Z 004d1a05 f   nafxcwd:winctrl2.obj
 0001:000d0a3f       ?Attach@CImageList@@QAEHPAU_IMAGELIST@@@Z 004d1a3f f   nafxcwd:winctrl2.obj
 0001:000d0af0       ?Read@CImageList@@QAEHPAVCArchive@@@Z 004d1af0 f   nafxcwd:winctrl2.obj
 0001:000d0b95       ?Write@CImageList@@QAEHPAVCArchive@@@Z 004d1b95 f   nafxcwd:winctrl2.obj
 0001:000d0c2f       ?Dump@CImageList@@UBEXAAVCDumpContext@@@Z 004d1c2f f   nafxcwd:winctrl2.obj
 0001:000d0c70       ?AssertValid@CImageList@@UBEXXZ 004d1c70 f   nafxcwd:winctrl2.obj
 0001:000d0d2f       ??0CDragListBox@@QAE@XZ    004d1d2f f   nafxcwd:winctrl2.obj
 0001:000d0d58       ?ItemFromPt@CDragListBox@@QBEHVCPoint@@H@Z 004d1d58 f   nafxcwd:winctrl2.obj
 0001:000d0dba       ??0CToolBarCtrl@@QAE@XZ    004d1dba f   nafxcwd:winctrl2.obj
 0001:000d0dd9       ?EnableButton@CToolBarCtrl@@QAEHHH@Z 004d1dd9 f   nafxcwd:winctrl2.obj
 0001:000d0e33       ?CheckButton@CToolBarCtrl@@QAEHHH@Z 004d1e33 f   nafxcwd:winctrl2.obj
 0001:000d0e8d       ?PressButton@CToolBarCtrl@@QAEHHH@Z 004d1e8d f   nafxcwd:winctrl2.obj
 0001:000d0ee7       ?HideButton@CToolBarCtrl@@QAEHHH@Z 004d1ee7 f   nafxcwd:winctrl2.obj
 0001:000d0f41       ?Indeterminate@CToolBarCtrl@@QAEHHH@Z 004d1f41 f   nafxcwd:winctrl2.obj
 0001:000d0f9b       ?IsButtonEnabled@CToolBarCtrl@@QBEHH@Z 004d1f9b f   nafxcwd:winctrl2.obj
 0001:000d0fee       ?IsButtonChecked@CToolBarCtrl@@QBEHH@Z 004d1fee f   nafxcwd:winctrl2.obj
 0001:000d1041       ?IsButtonPressed@CToolBarCtrl@@QBEHH@Z 004d2041 f   nafxcwd:winctrl2.obj
 0001:000d1094       ?IsButtonHidden@CToolBarCtrl@@QBEHH@Z 004d2094 f   nafxcwd:winctrl2.obj
 0001:000d10e7       ?IsButtonIndeterminate@CToolBarCtrl@@QBEHH@Z 004d20e7 f   nafxcwd:winctrl2.obj
 0001:000d113a       ?SetState@CToolBarCtrl@@QAEHHI@Z 004d213a f   nafxcwd:winctrl2.obj
 0001:000d1194       ?GetState@CToolBarCtrl@@QBEHH@Z 004d2194 f   nafxcwd:winctrl2.obj
 0001:000d11e7       ?AddButtons@CToolBarCtrl@@QAEHHPAU_TBBUTTON@@@Z 004d21e7 f   nafxcwd:winctrl2.obj
 0001:000d123c       ?InsertButton@CToolBarCtrl@@QAEHHPAU_TBBUTTON@@@Z 004d223c f   nafxcwd:winctrl2.obj
 0001:000d1291       ?DeleteButton@CToolBarCtrl@@QAEHH@Z 004d2291 f   nafxcwd:winctrl2.obj
 0001:000d12e4       ?GetButton@CToolBarCtrl@@QBEHHPAU_TBBUTTON@@@Z 004d22e4 f   nafxcwd:winctrl2.obj
 0001:000d1339       ?GetButtonCount@CToolBarCtrl@@QBEHXZ 004d2339 f   nafxcwd:winctrl2.obj
 0001:000d1388       ?CommandToIndex@CToolBarCtrl@@QBEII@Z 004d2388 f   nafxcwd:winctrl2.obj
 0001:000d13db       ?Customize@CToolBarCtrl@@QAEXXZ 004d23db f   nafxcwd:winctrl2.obj
 0001:000d142a       ?AddStrings@CToolBarCtrl@@QAEHPBD@Z 004d242a f   nafxcwd:winctrl2.obj
 0001:000d147d       ?GetItemRect@CToolBarCtrl@@QBEHHPAUtagRECT@@@Z 004d247d f   nafxcwd:winctrl2.obj
 0001:000d14d2       ?SetButtonStructSize@CToolBarCtrl@@QAEXH@Z 004d24d2 f   nafxcwd:winctrl2.obj
 0001:000d1525       ?SetButtonSize@CToolBarCtrl@@QAEHVCSize@@@Z 004d2525 f   nafxcwd:winctrl2.obj
 0001:000d158b       ?SetBitmapSize@CToolBarCtrl@@QAEHVCSize@@@Z 004d258b f   nafxcwd:winctrl2.obj
 0001:000d15f1       ?AutoSize@CToolBarCtrl@@QAEXXZ 004d25f1 f   nafxcwd:winctrl2.obj
 0001:000d1640       ?GetToolTips@CToolBarCtrl@@QBEPAVCToolTipCtrl@@XZ 004d2640 f   nafxcwd:winctrl2.obj
 0001:000d1695       ?SetToolTips@CToolBarCtrl@@QAEXPAVCToolTipCtrl@@@Z 004d2695 f   nafxcwd:winctrl2.obj
 0001:000d16ed       ?SetOwner@CToolBarCtrl@@QAEXPAVCWnd@@@Z 004d26ed f   nafxcwd:winctrl2.obj
 0001:000d1745       ?SetRows@CToolBarCtrl@@QAEXHHPAUtagRECT@@@Z 004d2745 f   nafxcwd:winctrl2.obj
 0001:000d17ae       ?GetRows@CToolBarCtrl@@QBEHXZ 004d27ae f   nafxcwd:winctrl2.obj
 0001:000d17fd       ?SetCmdID@CToolBarCtrl@@QAEHHI@Z 004d27fd f   nafxcwd:winctrl2.obj
 0001:000d1852       ?GetBitmapFlags@CToolBarCtrl@@QBEIXZ 004d2852 f   nafxcwd:winctrl2.obj
 0001:000d18a1       ?HitTest@CToolBarCtrl@@QBEHPAUtagPOINT@@@Z 004d28a1 f   nafxcwd:winctrl2.obj
 0001:000d18f4       ?GetExtendedStyle@CToolBarCtrl@@QBEKXZ 004d28f4 f   nafxcwd:winctrl2.obj
 0001:000d1943       ?SetExtendedStyle@CToolBarCtrl@@QAEKK@Z 004d2943 f   nafxcwd:winctrl2.obj
 0001:000d1996       ?GetInsertMarkColor@CToolBarCtrl@@QBEKXZ 004d2996 f   nafxcwd:winctrl2.obj
 0001:000d19e5       ?SetInsertMarkColor@CToolBarCtrl@@QAEKK@Z 004d29e5 f   nafxcwd:winctrl2.obj
 0001:000d1a38       ??0CStatusBarCtrl@@QAE@XZ  004d2a38 f   nafxcwd:winctrl2.obj
 0001:000d1a57       ?SetText@CStatusBarCtrl@@QAEHPBDHH@Z 004d2a57 f   nafxcwd:winctrl2.obj
 0001:000d1acf       ?SetParts@CStatusBarCtrl@@QAEHHPAH@Z 004d2acf f   nafxcwd:winctrl2.obj
 0001:000d1b24       ?GetParts@CStatusBarCtrl@@QBEHHPAH@Z 004d2b24 f   nafxcwd:winctrl2.obj
 0001:000d1b79       ?GetBorders@CStatusBarCtrl@@QBEHPAH@Z 004d2b79 f   nafxcwd:winctrl2.obj
 0001:000d1bcc       ?SetMinHeight@CStatusBarCtrl@@QAEXH@Z 004d2bcc f   nafxcwd:winctrl2.obj
 0001:000d1c1f       ?SetSimple@CStatusBarCtrl@@QAEHH@Z 004d2c1f f   nafxcwd:winctrl2.obj
 0001:000d1c72       ?GetRect@CStatusBarCtrl@@QBEHHPAUtagRECT@@@Z 004d2c72 f   nafxcwd:winctrl2.obj
 0001:000d1cc7       ??0CListCtrl@@QAE@XZ       004d2cc7 f   nafxcwd:winctrl2.obj
 0001:000d1ce6       ?GetBkColor@CListCtrl@@QBEKXZ 004d2ce6 f   nafxcwd:winctrl2.obj
 0001:000d1d35       ?SetBkColor@CListCtrl@@QAEHK@Z 004d2d35 f   nafxcwd:winctrl2.obj
 0001:000d1d88       ?GetImageList@CListCtrl@@QBEPAVCImageList@@H@Z 004d2d88 f   nafxcwd:winctrl2.obj
 0001:000d1de4       ?SetImageList@CListCtrl@@QAEPAVCImageList@@PAV2@H@Z 004d2de4 f   nafxcwd:winctrl2.obj
 0001:000d1e47       ?GetItemCount@CListCtrl@@QBEHXZ 004d2e47 f   nafxcwd:winctrl2.obj
 0001:000d1e99       ?GetItem@CListCtrl@@QBEHPAUtagLVITEMA@@@Z 004d2e99 f   nafxcwd:winctrl2.obj
 0001:000d1eef       ?SetItem@CListCtrl@@QAEHPBUtagLVITEMA@@@Z 004d2eef f   nafxcwd:winctrl2.obj
 0001:000d1f45       ?SetItemData@CListCtrl@@QAEHHK@Z 004d2f45 f   nafxcwd:winctrl2.obj
 0001:000d1f9f       ?InsertItem@CListCtrl@@QAEHPBUtagLVITEMA@@@Z 004d2f9f f   nafxcwd:winctrl2.obj
 0001:000d1ff5       ?InsertItem@CListCtrl@@QAEHHPBD@Z 004d2ff5 f   nafxcwd:winctrl2.obj
 0001:000d204d       ?InsertItem@CListCtrl@@QAEHHPBDH@Z 004d304d f   nafxcwd:winctrl2.obj
 0001:000d20a7       ?DeleteItem@CListCtrl@@QAEHH@Z 004d30a7 f   nafxcwd:winctrl2.obj
 0001:000d20fd       ?DeleteAllItems@CListCtrl@@QAEHXZ 004d30fd f   nafxcwd:winctrl2.obj
 0001:000d214f       ?GetCallbackMask@CListCtrl@@QBEIXZ 004d314f f   nafxcwd:winctrl2.obj
 0001:000d21a1       ?SetCallbackMask@CListCtrl@@QAEHI@Z 004d31a1 f   nafxcwd:winctrl2.obj
 0001:000d21f7       ?GetNextItem@CListCtrl@@QBEHHH@Z 004d31f7 f   nafxcwd:winctrl2.obj
 0001:000d2254       ?GetFirstSelectedItemPosition@CListCtrl@@QBEPAU__POSITION@@XZ 004d3254 f   nafxcwd:winctrl2.obj
 0001:000d229f       ?GetNextSelectedItem@CListCtrl@@QBEHAAPAU__POSITION@@@Z 004d329f f   nafxcwd:winctrl2.obj
 0001:000d2303       ?FindItem@CListCtrl@@QBEHPAUtagLVFINDINFOA@@H@Z 004d3303 f   nafxcwd:winctrl2.obj
 0001:000d235b       ?HitTest@CListCtrl@@QBEHPAUtagLVHITTESTINFO@@@Z 004d335b f   nafxcwd:winctrl2.obj
 0001:000d23b1       ?SetItemPosition@CListCtrl@@QAEHHUtagPOINT@@@Z 004d33b1 f   nafxcwd:winctrl2.obj
 0001:000d2434       ?GetItemPosition@CListCtrl@@QBEHHPAUtagPOINT@@@Z 004d3434 f   nafxcwd:winctrl2.obj
 0001:000d248c       ?GetStringWidth@CListCtrl@@QBEHPBD@Z 004d348c f   nafxcwd:winctrl2.obj
 0001:000d24e2       ?EnsureVisible@CListCtrl@@QAEHHH@Z 004d34e2 f   nafxcwd:winctrl2.obj
 0001:000d253f       ?Scroll@CListCtrl@@QAEHVCSize@@@Z 004d353f f   nafxcwd:winctrl2.obj
 0001:000d2597       ?RedrawItems@CListCtrl@@QAEHHH@Z 004d3597 f   nafxcwd:winctrl2.obj
 0001:000d25ef       ?Arrange@CListCtrl@@QAEHI@Z 004d35ef f   nafxcwd:winctrl2.obj
 0001:000d2645       ?EditLabel@CListCtrl@@QAEPAVCEdit@@H@Z 004d3645 f   nafxcwd:winctrl2.obj
 0001:000d26a1       ?GetEditControl@CListCtrl@@QBEPAVCEdit@@XZ 004d36a1 f   nafxcwd:winctrl2.obj
 0001:000d26f9       ?GetColumn@CListCtrl@@QBEHHPAUtagLVCOLUMNA@@@Z 004d36f9 f   nafxcwd:winctrl2.obj
 0001:000d2751       ?SetColumn@CListCtrl@@QAEHHPBUtagLVCOLUMNA@@@Z 004d3751 f   nafxcwd:winctrl2.obj
 0001:000d27a9       ?InsertColumn@CListCtrl@@QAEHHPBUtagLVCOLUMNA@@@Z 004d37a9 f   nafxcwd:winctrl2.obj
 0001:000d2801       ?DeleteColumn@CListCtrl@@QAEHH@Z 004d3801 f   nafxcwd:winctrl2.obj
 0001:000d2857       ?GetColumnWidth@CListCtrl@@QBEHH@Z 004d3857 f   nafxcwd:winctrl2.obj
 0001:000d28ad       ?SetColumnWidth@CListCtrl@@QAEHHH@Z 004d38ad f   nafxcwd:winctrl2.obj
 0001:000d290a       ?GetViewRect@CListCtrl@@QBEHPAUtagRECT@@@Z 004d390a f   nafxcwd:winctrl2.obj
 0001:000d2960       ?GetTextColor@CListCtrl@@QBEKXZ 004d3960 f   nafxcwd:winctrl2.obj
 0001:000d29b2       ?SetTextColor@CListCtrl@@QAEHK@Z 004d39b2 f   nafxcwd:winctrl2.obj
 0001:000d2a08       ?GetTextBkColor@CListCtrl@@QBEKXZ 004d3a08 f   nafxcwd:winctrl2.obj
 0001:000d2a5a       ?SetTextBkColor@CListCtrl@@QAEHK@Z 004d3a5a f   nafxcwd:winctrl2.obj
 0001:000d2ab0       ?GetTopIndex@CListCtrl@@QBEHXZ 004d3ab0 f   nafxcwd:winctrl2.obj
 0001:000d2b02       ?GetCountPerPage@CListCtrl@@QBEHXZ 004d3b02 f   nafxcwd:winctrl2.obj
 0001:000d2b54       ?GetOrigin@CListCtrl@@QBEHPAUtagPOINT@@@Z 004d3b54 f   nafxcwd:winctrl2.obj
 0001:000d2baa       ?Update@CListCtrl@@QAEHH@Z 004d3baa f   nafxcwd:winctrl2.obj
 0001:000d2c00       ?SetItemState@CListCtrl@@QAEHHPAUtagLVITEMA@@@Z 004d3c00 f   nafxcwd:winctrl2.obj
 0001:000d2c58       ?GetItemState@CListCtrl@@QBEIHI@Z 004d3c58 f   nafxcwd:winctrl2.obj
 0001:000d2cb0       ?SetItemCount@CListCtrl@@QAEXH@Z 004d3cb0 f   nafxcwd:winctrl2.obj
 0001:000d2d06       ?SortItems@CListCtrl@@QAEHP6GHJJJ@ZK@Z 004d3d06 f   nafxcwd:winctrl2.obj
 0001:000d2d89       ?GetSelectedCount@CListCtrl@@QBEIXZ 004d3d89 f   nafxcwd:winctrl2.obj
 0001:000d2ddb       ??0CTreeCtrl@@QAE@XZ       004d3ddb f   nafxcwd:winctrl2.obj
 0001:000d2dfa       ?InsertItem@CTreeCtrl@@QAEPAU_TREEITEM@@PAUtagTVINSERTSTRUCTA@@@Z 004d3dfa f   nafxcwd:winctrl2.obj
 0001:000d2e50       ?InsertItem@CTreeCtrl@@QAEPAU_TREEITEM@@PBDHHPAU2@1@Z 004d3e50 f   nafxcwd:winctrl2.obj
 0001:000d2eb2       ?InsertItem@CTreeCtrl@@QAEPAU_TREEITEM@@PBDPAU2@1@Z 004d3eb2 f   nafxcwd:winctrl2.obj
 0001:000d2f10       ?DeleteItem@CTreeCtrl@@QAEHPAU_TREEITEM@@@Z 004d3f10 f   nafxcwd:winctrl2.obj
 0001:000d2f66       ?DeleteAllItems@CTreeCtrl@@QAEHXZ 004d3f66 f   nafxcwd:winctrl2.obj
 0001:000d2fbb       ?Expand@CTreeCtrl@@QAEHPAU_TREEITEM@@I@Z 004d3fbb f   nafxcwd:winctrl2.obj
 0001:000d3013       ?GetCount@CTreeCtrl@@QBEIXZ 004d4013 f   nafxcwd:winctrl2.obj
 0001:000d3065       ?GetIndent@CTreeCtrl@@QBEIXZ 004d4065 f   nafxcwd:winctrl2.obj
 0001:000d30b7       ?SetIndent@CTreeCtrl@@QAEXI@Z 004d40b7 f   nafxcwd:winctrl2.obj
 0001:000d310d       ?GetImageList@CTreeCtrl@@QBEPAVCImageList@@I@Z 004d410d f   nafxcwd:winctrl2.obj
 0001:000d3169       ?SetImageList@CTreeCtrl@@QAEPAVCImageList@@PAV2@H@Z 004d4169 f   nafxcwd:winctrl2.obj
 0001:000d31cc       ?GetNextItem@CTreeCtrl@@QBEPAU_TREEITEM@@PAU2@I@Z 004d41cc f   nafxcwd:winctrl2.obj
 0001:000d3224       ?GetChildItem@CTreeCtrl@@QBEPAU_TREEITEM@@PAU2@@Z 004d4224 f   nafxcwd:winctrl2.obj
 0001:000d327a       ?GetNextSiblingItem@CTreeCtrl@@QBEPAU_TREEITEM@@PAU2@@Z 004d427a f   nafxcwd:winctrl2.obj
 0001:000d32d0       ?GetPrevSiblingItem@CTreeCtrl@@QBEPAU_TREEITEM@@PAU2@@Z 004d42d0 f   nafxcwd:winctrl2.obj
 0001:000d3326       ?GetParentItem@CTreeCtrl@@QBEPAU_TREEITEM@@PAU2@@Z 004d4326 f   nafxcwd:winctrl2.obj
 0001:000d337c       ?GetFirstVisibleItem@CTreeCtrl@@QBEPAU_TREEITEM@@XZ 004d437c f   nafxcwd:winctrl2.obj
 0001:000d33ce       ?GetNextVisibleItem@CTreeCtrl@@QBEPAU_TREEITEM@@PAU2@@Z 004d43ce f   nafxcwd:winctrl2.obj
 0001:000d3424       ?GetPrevVisibleItem@CTreeCtrl@@QBEPAU_TREEITEM@@PAU2@@Z 004d4424 f   nafxcwd:winctrl2.obj
 0001:000d347a       ?GetSelectedItem@CTreeCtrl@@QBEPAU_TREEITEM@@XZ 004d447a f   nafxcwd:winctrl2.obj
 0001:000d34cc       ?GetDropHilightItem@CTreeCtrl@@QBEPAU_TREEITEM@@XZ 004d44cc f   nafxcwd:winctrl2.obj
 0001:000d351e       ?GetRootItem@CTreeCtrl@@QBEPAU_TREEITEM@@XZ 004d451e f   nafxcwd:winctrl2.obj
 0001:000d3570       ?Select@CTreeCtrl@@QAEHPAU_TREEITEM@@I@Z 004d4570 f   nafxcwd:winctrl2.obj
 0001:000d35c8       ?SelectItem@CTreeCtrl@@QAEHPAU_TREEITEM@@@Z 004d45c8 f   nafxcwd:winctrl2.obj
 0001:000d361e       ?SelectDropTarget@CTreeCtrl@@QAEHPAU_TREEITEM@@@Z 004d461e f   nafxcwd:winctrl2.obj
 0001:000d3674       ?SelectSetFirstVisible@CTreeCtrl@@QAEHPAU_TREEITEM@@@Z 004d4674 f   nafxcwd:winctrl2.obj
 0001:000d36ca       ?GetItem@CTreeCtrl@@QBEHPAUtagTVITEMA@@@Z 004d46ca f   nafxcwd:winctrl2.obj
 0001:000d3720       ?SetItem@CTreeCtrl@@QAEHPAUtagTVITEMA@@@Z 004d4720 f   nafxcwd:winctrl2.obj
 0001:000d3776       ?SetItemText@CTreeCtrl@@QAEHPAU_TREEITEM@@PBD@Z 004d4776 f   nafxcwd:winctrl2.obj
 0001:000d37d0       ?SetItemImage@CTreeCtrl@@QAEHPAU_TREEITEM@@HH@Z 004d47d0 f   nafxcwd:winctrl2.obj
 0001:000d382c       ?SetItemState@CTreeCtrl@@QAEHPAU_TREEITEM@@II@Z 004d482c f   nafxcwd:winctrl2.obj
 0001:000d3888       ?SetItemData@CTreeCtrl@@QAEHPAU_TREEITEM@@K@Z 004d4888 f   nafxcwd:winctrl2.obj
 0001:000d38e2       ?EditLabel@CTreeCtrl@@QAEPAVCEdit@@PAU_TREEITEM@@@Z 004d48e2 f   nafxcwd:winctrl2.obj
 0001:000d393e       ?HitTest@CTreeCtrl@@QBEPAU_TREEITEM@@PAUtagTVHITTESTINFO@@@Z 004d493e f   nafxcwd:winctrl2.obj
 0001:000d3994       ?GetEditControl@CTreeCtrl@@QBEPAVCEdit@@XZ 004d4994 f   nafxcwd:winctrl2.obj
 0001:000d39ec       ?GetVisibleCount@CTreeCtrl@@QBEIXZ 004d49ec f   nafxcwd:winctrl2.obj
 0001:000d3a3e       ?SortChildren@CTreeCtrl@@QAEHPAU_TREEITEM@@@Z 004d4a3e f   nafxcwd:winctrl2.obj
 0001:000d3a94       ?EnsureVisible@CTreeCtrl@@QAEHPAU_TREEITEM@@@Z 004d4a94 f   nafxcwd:winctrl2.obj
 0001:000d3aea       ?SortChildrenCB@CTreeCtrl@@QAEHPAUtagTVSORTCB@@@Z 004d4aea f   nafxcwd:winctrl2.obj
 0001:000d3b40       ?GetToolTips@CTreeCtrl@@QBEPAVCToolTipCtrl@@XZ 004d4b40 f   nafxcwd:winctrl2.obj
 0001:000d3b98       ?SetToolTips@CTreeCtrl@@QAEPAVCToolTipCtrl@@PAV2@@Z 004d4b98 f   nafxcwd:winctrl2.obj
 0001:000d3bf9       ?GetBkColor@CTreeCtrl@@QBEKXZ 004d4bf9 f   nafxcwd:winctrl2.obj
 0001:000d3c4b       ?SetBkColor@CTreeCtrl@@QAEKK@Z 004d4c4b f   nafxcwd:winctrl2.obj
 0001:000d3ca1       ?GetItemHeight@CTreeCtrl@@QBEFXZ 004d4ca1 f   nafxcwd:winctrl2.obj
 0001:000d3cf3       ?SetItemHeight@CTreeCtrl@@QAEFF@Z 004d4cf3 f   nafxcwd:winctrl2.obj
 0001:000d3d4a       ?GetTextColor@CTreeCtrl@@QBEKXZ 004d4d4a f   nafxcwd:winctrl2.obj
 0001:000d3d9c       ?SetTextColor@CTreeCtrl@@QAEKK@Z 004d4d9c f   nafxcwd:winctrl2.obj
 0001:000d3df2       ?SetInsertMark@CTreeCtrl@@QAEHPAU_TREEITEM@@H@Z 004d4df2 f   nafxcwd:winctrl2.obj
 0001:000d3e4a       ?GetInsertMarkColor@CTreeCtrl@@QBEKXZ 004d4e4a f   nafxcwd:winctrl2.obj
 0001:000d3e9c       ?SetInsertMarkColor@CTreeCtrl@@QAEKK@Z 004d4e9c f   nafxcwd:winctrl2.obj
 0001:000d3ef2       ??0CHotKeyCtrl@@QAE@XZ     004d4ef2 f   nafxcwd:winctrl2.obj
 0001:000d3f11       ?SetHotKey@CHotKeyCtrl@@QAEXGG@Z 004d4f11 f   nafxcwd:winctrl2.obj
 0001:000d3f7f       ?GetHotKey@CHotKeyCtrl@@QBEKXZ 004d4f7f f   nafxcwd:winctrl2.obj
 0001:000d3fd1       ?SetRules@CHotKeyCtrl@@QAEXGG@Z 004d4fd1 f   nafxcwd:winctrl2.obj
 0001:000d4034       ?Activate@CToolTipCtrl@@QAEXH@Z 004d5034 f   nafxcwd:winctrl2.obj
 0001:000d408a       ?SetToolInfo@CToolTipCtrl@@QAEXPAUtagTOOLINFOA@@@Z 004d508a f   nafxcwd:winctrl2.obj
 0001:000d40e0       ?RelayEvent@CToolTipCtrl@@QAEXPAUtagMSG@@@Z 004d50e0 f   nafxcwd:winctrl2.obj
 0001:000d4136       ?GetToolCount@CToolTipCtrl@@QBEHXZ 004d5136 f   nafxcwd:winctrl2.obj
 0001:000d4188       ??0CSpinButtonCtrl@@QAE@XZ 004d5188 f   nafxcwd:winctrl2.obj
 0001:000d41a7       ?GetAccel@CSpinButtonCtrl@@QBEIHPAU_UDACCEL@@@Z 004d51a7 f   nafxcwd:winctrl2.obj
 0001:000d4204       ?GetBase@CSpinButtonCtrl@@QBEIXZ 004d5204 f   nafxcwd:winctrl2.obj
 0001:000d425b       ?GetBuddy@CSpinButtonCtrl@@QBEPAVCWnd@@XZ 004d525b f   nafxcwd:winctrl2.obj
 0001:000d42b3       ?GetPos@CSpinButtonCtrl@@QBEHXZ 004d52b3 f   nafxcwd:winctrl2.obj
 0001:000d4305       ?GetRange@CSpinButtonCtrl@@QBEKXZ 004d5305 f   nafxcwd:winctrl2.obj
 0001:000d4357       ?SetAccel@CSpinButtonCtrl@@QAEHHPAU_UDACCEL@@@Z 004d5357 f   nafxcwd:winctrl2.obj
 0001:000d43b4       ?SetBase@CSpinButtonCtrl@@QAEHH@Z 004d53b4 f   nafxcwd:winctrl2.obj
 0001:000d440a       ?SetBuddy@CSpinButtonCtrl@@QAEPAVCWnd@@PAV2@@Z 004d540a f   nafxcwd:winctrl2.obj
 0001:000d446b       ?SetPos@CSpinButtonCtrl@@QAEHH@Z 004d546b f   nafxcwd:winctrl2.obj
 0001:000d44c9       ?SetRange@CSpinButtonCtrl@@QAEXHH@Z 004d54c9 f   nafxcwd:winctrl2.obj
 0001:000d4532       ??0CSliderCtrl@@QAE@XZ     004d5532 f   nafxcwd:winctrl2.obj
 0001:000d4551       ?GetLineSize@CSliderCtrl@@QBEHXZ 004d5551 f   nafxcwd:winctrl2.obj
 0001:000d45a3       ?SetLineSize@CSliderCtrl@@QAEHH@Z 004d55a3 f   nafxcwd:winctrl2.obj
 0001:000d45f9       ?GetPageSize@CSliderCtrl@@QBEHXZ 004d55f9 f   nafxcwd:winctrl2.obj
 0001:000d464b       ?SetPageSize@CSliderCtrl@@QAEHH@Z 004d564b f   nafxcwd:winctrl2.obj
 0001:000d46a1       ?GetRangeMax@CSliderCtrl@@QBEHXZ 004d56a1 f   nafxcwd:winctrl2.obj
 0001:000d46f3       ?GetRangeMin@CSliderCtrl@@QBEHXZ 004d56f3 f   nafxcwd:winctrl2.obj
 0001:000d4745       ?SetRangeMin@CSliderCtrl@@QAEXHH@Z 004d5745 f   nafxcwd:winctrl2.obj
 0001:000d479d       ?SetRangeMax@CSliderCtrl@@QAEXHH@Z 004d579d f   nafxcwd:winctrl2.obj
 0001:000d47f5       ?ClearSel@CSliderCtrl@@QAEXH@Z 004d57f5 f   nafxcwd:winctrl2.obj
 0001:000d484b       ?GetChannelRect@CSliderCtrl@@QBEXPAUtagRECT@@@Z 004d584b f   nafxcwd:winctrl2.obj
 0001:000d48a1       ?GetThumbRect@CSliderCtrl@@QBEXPAUtagRECT@@@Z 004d58a1 f   nafxcwd:winctrl2.obj
 0001:000d48f7       ?GetPos@CSliderCtrl@@QBEHXZ 004d58f7 f   nafxcwd:winctrl2.obj
 0001:000d4949       ?SetPos@CSliderCtrl@@QAEXH@Z 004d5949 f   nafxcwd:winctrl2.obj
 0001:000d499f       ?VerifyPos@CSliderCtrl@@QAEXXZ 004d599f f   nafxcwd:winctrl2.obj
 0001:000d49f1       ?ClearTics@CSliderCtrl@@QAEXH@Z 004d59f1 f   nafxcwd:winctrl2.obj
 0001:000d4a47       ?GetNumTics@CSliderCtrl@@QBEIXZ 004d5a47 f   nafxcwd:winctrl2.obj
 0001:000d4a99       ?GetTicArray@CSliderCtrl@@QBEPAKXZ 004d5a99 f   nafxcwd:winctrl2.obj
 0001:000d4aeb       ?GetTic@CSliderCtrl@@QBEHH@Z 004d5aeb f   nafxcwd:winctrl2.obj
 0001:000d4b41       ?GetTicPos@CSliderCtrl@@QBEHH@Z 004d5b41 f   nafxcwd:winctrl2.obj
 0001:000d4b97       ?SetTic@CSliderCtrl@@QAEHH@Z 004d5b97 f   nafxcwd:winctrl2.obj
 0001:000d4bed       ?SetTicFreq@CSliderCtrl@@QAEXH@Z 004d5bed f   nafxcwd:winctrl2.obj
 0001:000d4c43       ?GetBuddy@CSliderCtrl@@QBEPAVCWnd@@H@Z 004d5c43 f   nafxcwd:winctrl2.obj
 0001:000d4c9f       ?SetBuddy@CSliderCtrl@@QAEPAVCWnd@@PAV2@H@Z 004d5c9f f   nafxcwd:winctrl2.obj
 0001:000d4d02       ?GetToolTips@CSliderCtrl@@QBEPAVCToolTipCtrl@@XZ 004d5d02 f   nafxcwd:winctrl2.obj
 0001:000d4d5a       ?SetToolTips@CSliderCtrl@@QAEXPAVCToolTipCtrl@@@Z 004d5d5a f   nafxcwd:winctrl2.obj
 0001:000d4db5       ?SetTipSide@CSliderCtrl@@QAEHH@Z 004d5db5 f   nafxcwd:winctrl2.obj
 0001:000d4e0b       ??0CProgressCtrl@@QAE@XZ   004d5e0b f   nafxcwd:winctrl2.obj
 0001:000d4e2a       ?SetRange@CProgressCtrl@@QAEXFF@Z 004d5e2a f   nafxcwd:winctrl2.obj
 0001:000d4e93       ?SetRange32@CProgressCtrl@@QAEXHH@Z 004d5e93 f   nafxcwd:winctrl2.obj
 0001:000d4eeb       ?GetPos@CProgressCtrl@@QAEHXZ 004d5eeb f   nafxcwd:winctrl2.obj
 0001:000d4f3d       ?OffsetPos@CProgressCtrl@@QAEHH@Z 004d5f3d f   nafxcwd:winctrl2.obj
 0001:000d4f93       ?SetStep@CProgressCtrl@@QAEHH@Z 004d5f93 f   nafxcwd:winctrl2.obj
 0001:000d4fe9       ?StepIt@CProgressCtrl@@QAEHXZ 004d5fe9 f   nafxcwd:winctrl2.obj
 0001:000d503b       ??0CHeaderCtrl@@QAE@XZ     004d603b f   nafxcwd:winctrl2.obj
 0001:000d505a       ?GetItemCount@CHeaderCtrl@@QBEHXZ 004d605a f   nafxcwd:winctrl2.obj
 0001:000d50ac       ?InsertItem@CHeaderCtrl@@QAEHHPAU_HD_ITEMA@@@Z 004d60ac f   nafxcwd:winctrl2.obj
 0001:000d5104       ?DeleteItem@CHeaderCtrl@@QAEHH@Z 004d6104 f   nafxcwd:winctrl2.obj
 0001:000d515a       ?GetItem@CHeaderCtrl@@QBEHHPAU_HD_ITEMA@@@Z 004d615a f   nafxcwd:winctrl2.obj
 0001:000d51b2       ?SetItem@CHeaderCtrl@@QAEHHPAU_HD_ITEMA@@@Z 004d61b2 f   nafxcwd:winctrl2.obj
 0001:000d520a       ?Layout@CHeaderCtrl@@QAEHPAU_HD_LAYOUT@@@Z 004d620a f   nafxcwd:winctrl2.obj
 0001:000d5260       ??BCImageList@@QBEPAU_IMAGELIST@@XZ 004d6260 f   nafxcwd:winctrl2.obj
 0001:000d5271       ?GetSafeHandle@CImageList@@QBEPAU_IMAGELIST@@XZ 004d6271 f   nafxcwd:winctrl2.obj
 0001:000d5299       ?GetImageCount@CImageList@@QBEHXZ 004d6299 f   nafxcwd:winctrl2.obj
 0001:000d52da       ?Add@CImageList@@QAEHPAVCBitmap@@0@Z 004d62da f   nafxcwd:winctrl2.obj
 0001:000d532f       ?Add@CImageList@@QAEHPAVCBitmap@@K@Z 004d632f f   nafxcwd:winctrl2.obj
 0001:000d537f       ?Remove@CImageList@@QAEHH@Z 004d637f f   nafxcwd:winctrl2.obj
 0001:000d53c6       ?Replace@CImageList@@QAEHHPAVCBitmap@@0@Z 004d63c6 f   nafxcwd:winctrl2.obj
 0001:000d541f       ?Add@CImageList@@QAEHPAUHICON__@@@Z 004d641f f   nafxcwd:winctrl2.obj
 0001:000d5468       ?Replace@CImageList@@QAEHHPAUHICON__@@@Z 004d6468 f   nafxcwd:winctrl2.obj
 0001:000d54b3       ?ExtractIconA@CImageList@@QAEPAUHICON__@@H@Z 004d64b3 f   nafxcwd:winctrl2.obj
 0001:000d54fc       ?Draw@CImageList@@QAEHPAVCDC@@HUtagPOINT@@I@Z 004d64fc f   nafxcwd:winctrl2.obj
 0001:000d5578       ?SetBkColor@CImageList@@QAEKK@Z 004d6578 f   nafxcwd:winctrl2.obj
 0001:000d55bf       ?GetBkColor@CImageList@@QBEKXZ 004d65bf f   nafxcwd:winctrl2.obj
 0001:000d5600       ?SetOverlayImage@CImageList@@QAEHHH@Z 004d6600 f   nafxcwd:winctrl2.obj
 0001:000d564b       ?GetImageInfo@CImageList@@QBEHHPAU_IMAGEINFO@@@Z 004d664b f   nafxcwd:winctrl2.obj
 0001:000d5696       ?BeginDrag@CImageList@@QAEHHVCPoint@@@Z 004d6696 f   nafxcwd:winctrl2.obj
 0001:000d56e5       ?EndDrag@CImageList@@SGXXZ 004d66e5 f   nafxcwd:winctrl2.obj
 0001:000d56f0       ?DragMove@CImageList@@SGHVCPoint@@@Z 004d66f0 f   nafxcwd:winctrl2.obj
 0001:000d5705       ?SetDragCursorImage@CImageList@@QAEHHVCPoint@@@Z 004d6705 f   nafxcwd:winctrl2.obj
 0001:000d5754       ?DragShowNolock@CImageList@@SGHH@Z 004d6754 f   nafxcwd:winctrl2.obj
 0001:000d5765       ?GetDragImage@CImageList@@SGPAV1@PAUtagPOINT@@0@Z 004d6765 f   nafxcwd:winctrl2.obj
 0001:000d5780       ?DragEnter@CImageList@@SGHPAVCWnd@@VCPoint@@@Z 004d6780 f   nafxcwd:winctrl2.obj
 0001:000d579e       ?DragLeave@CImageList@@SGHPAVCWnd@@@Z 004d679e f   nafxcwd:winctrl2.obj
 0001:000d57b4       ??0CTabCtrl@@QAE@XZ        004d67b4 f   nafxcwd:winctrl2.obj
 0001:000d57d3       ?GetImageList@CTabCtrl@@QBEPAVCImageList@@XZ 004d67d3 f   nafxcwd:winctrl2.obj
 0001:000d582b       ?SetImageList@CTabCtrl@@QAEPAVCImageList@@PAV2@@Z 004d682b f   nafxcwd:winctrl2.obj
 0001:000d588c       ?GetItemCount@CTabCtrl@@QBEHXZ 004d688c f   nafxcwd:winctrl2.obj
 0001:000d58de       ?GetItem@CTabCtrl@@QBEHHPAUtagTCITEMA@@@Z 004d68de f   nafxcwd:winctrl2.obj
 0001:000d5936       ?SetItem@CTabCtrl@@QAEHHPAUtagTCITEMA@@@Z 004d6936 f   nafxcwd:winctrl2.obj
 0001:000d598e       ?SetItemExtra@CTabCtrl@@QAEHH@Z 004d698e f   nafxcwd:winctrl2.obj
 0001:000d59e4       ?SetCurFocus@CTabCtrl@@QAEXH@Z 004d69e4 f   nafxcwd:winctrl2.obj
 0001:000d5a3a       ?InsertItem@CTabCtrl@@QAEHHPAUtagTCITEMA@@@Z 004d6a3a f   nafxcwd:winctrl2.obj
 0001:000d5a92       ?InsertItem@CTabCtrl@@QAEHHPBD@Z 004d6a92 f   nafxcwd:winctrl2.obj
 0001:000d5ae6       ?InsertItem@CTabCtrl@@QAEHHPBDH@Z 004d6ae6 f   nafxcwd:winctrl2.obj
 0001:000d5b3c       ?DeleteItem@CTabCtrl@@QAEHH@Z 004d6b3c f   nafxcwd:winctrl2.obj
 0001:000d5b92       ?DeleteAllItems@CTabCtrl@@QAEHXZ 004d6b92 f   nafxcwd:winctrl2.obj
 0001:000d5be4       ?GetItemRect@CTabCtrl@@QBEHHPAUtagRECT@@@Z 004d6be4 f   nafxcwd:winctrl2.obj
 0001:000d5c3c       ?GetCurSel@CTabCtrl@@QBEHXZ 004d6c3c f   nafxcwd:winctrl2.obj
 0001:000d5c8e       ?SetCurSel@CTabCtrl@@QAEHH@Z 004d6c8e f   nafxcwd:winctrl2.obj
 0001:000d5ce4       ?HitTest@CTabCtrl@@QBEHPAUtagTCHITTESTINFO@@@Z 004d6ce4 f   nafxcwd:winctrl2.obj
 0001:000d5d3a       ?AdjustRect@CTabCtrl@@QAEXHPAUtagRECT@@@Z 004d6d3a f   nafxcwd:winctrl2.obj
 0001:000d5d92       ?SetItemSize@CTabCtrl@@QAE?AVCSize@@V2@@Z 004d6d92 f   nafxcwd:winctrl2.obj
 0001:000d5e07       ?RemoveImage@CTabCtrl@@QAEXH@Z 004d6e07 f   nafxcwd:winctrl2.obj
 0001:000d5e5d       ?SetPadding@CTabCtrl@@QAEXVCSize@@@Z 004d6e5d f   nafxcwd:winctrl2.obj
 0001:000d5ec6       ?GetRowCount@CTabCtrl@@QBEHXZ 004d6ec6 f   nafxcwd:winctrl2.obj
 0001:000d5f18       ?GetToolTips@CTabCtrl@@QBEPAVCToolTipCtrl@@XZ 004d6f18 f   nafxcwd:winctrl2.obj
 0001:000d5f70       ?SetToolTips@CTabCtrl@@QAEXPAVCToolTipCtrl@@@Z 004d6f70 f   nafxcwd:winctrl2.obj
 0001:000d5fcb       ?GetCurFocus@CTabCtrl@@QBEHXZ 004d6fcb f   nafxcwd:winctrl2.obj
 0001:000d601d       ?SetMinTabWidth@CTabCtrl@@QAEHH@Z 004d701d f   nafxcwd:winctrl2.obj
 0001:000d6073       ?DeselectAll@CTabCtrl@@QAEXH@Z 004d7073 f   nafxcwd:winctrl2.obj
 0001:000d60c9       ?HighlightItem@CTabCtrl@@QAEHHH@Z 004d70c9 f   nafxcwd:winctrl2.obj
 0001:000d6126       ?GetExtendedStyle@CTabCtrl@@QAEKXZ 004d7126 f   nafxcwd:winctrl2.obj
 0001:000d6178       ?SetExtendedStyle@CTabCtrl@@QAEKKK@Z 004d7178 f   nafxcwd:winctrl2.obj
 0001:000d61d0       ??0CAnimateCtrl@@QAE@XZ    004d71d0 f   nafxcwd:winctrl2.obj
 0001:000d61ef       ?Open@CAnimateCtrl@@QAEHPBD@Z 004d71ef f   nafxcwd:winctrl2.obj
 0001:000d6245       ?Open@CAnimateCtrl@@QAEHI@Z 004d7245 f   nafxcwd:winctrl2.obj
 0001:000d629b       ?Play@CAnimateCtrl@@QAEHIII@Z 004d729b f   nafxcwd:winctrl2.obj
 0001:000d6306       ?Stop@CAnimateCtrl@@QAEHXZ 004d7306 f   nafxcwd:winctrl2.obj
 0001:000d6358       ?Close@CAnimateCtrl@@QAEHXZ 004d7358 f   nafxcwd:winctrl2.obj
 0001:000d63aa       ?Seek@CAnimateCtrl@@QAEHI@Z 004d73aa f   nafxcwd:winctrl2.obj
 0001:000d6413       ??0CRichEditCtrl@@QAE@XZ   004d7413 f   nafxcwd:winctrl2.obj
 0001:000d6432       ?CanUndo@CRichEditCtrl@@QBEHXZ 004d7432 f   nafxcwd:winctrl2.obj
 0001:000d6484       ?GetLineCount@CRichEditCtrl@@QBEHXZ 004d7484 f   nafxcwd:winctrl2.obj
 0001:000d64d6       ?GetModify@CRichEditCtrl@@QBEHXZ 004d74d6 f   nafxcwd:winctrl2.obj
 0001:000d6528       ?SetModify@CRichEditCtrl@@QAEXH@Z 004d7528 f   nafxcwd:winctrl2.obj
 0001:000d657e       ?GetRect@CRichEditCtrl@@QBEXPAUtagRECT@@@Z 004d757e f   nafxcwd:winctrl2.obj
 0001:000d65d4       ?GetCharPos@CRichEditCtrl@@QBE?AVCPoint@@J@Z 004d75d4 f   nafxcwd:winctrl2.obj
 0001:000d6647       ?SetOptions@CRichEditCtrl@@QAEXGK@Z 004d7647 f   nafxcwd:winctrl2.obj
 0001:000d66a5       ?EmptyUndoBuffer@CRichEditCtrl@@QAEXXZ 004d76a5 f   nafxcwd:winctrl2.obj
 0001:000d66f7       ?ReplaceSel@CRichEditCtrl@@QAEXPBDH@Z 004d76f7 f   nafxcwd:winctrl2.obj
 0001:000d674f       ?SetRect@CRichEditCtrl@@QAEXPBUtagRECT@@@Z 004d774f f   nafxcwd:winctrl2.obj
 0001:000d67a5       ?Undo@CRichEditCtrl@@QAEHXZ 004d77a5 f   nafxcwd:winctrl2.obj
 0001:000d67f7       ?Clear@CRichEditCtrl@@QAEXXZ 004d77f7 f   nafxcwd:winctrl2.obj
 0001:000d6849       ?Copy@CRichEditCtrl@@QAEXXZ 004d7849 f   nafxcwd:winctrl2.obj
 0001:000d689b       ?Cut@CRichEditCtrl@@QAEXXZ 004d789b f   nafxcwd:winctrl2.obj
 0001:000d68ed       ?Paste@CRichEditCtrl@@QAEXXZ 004d78ed f   nafxcwd:winctrl2.obj
 0001:000d693f       ?SetReadOnly@CRichEditCtrl@@QAEHH@Z 004d793f f   nafxcwd:winctrl2.obj
 0001:000d6995       ?GetFirstVisibleLine@CRichEditCtrl@@QBEHXZ 004d7995 f   nafxcwd:winctrl2.obj
 0001:000d69e7       ?DisplayBand@CRichEditCtrl@@QAEHPAUtagRECT@@@Z 004d79e7 f   nafxcwd:winctrl2.obj
 0001:000d6a3d       ?GetSel@CRichEditCtrl@@QBEXAAU_charrange@@@Z 004d7a3d f   nafxcwd:winctrl2.obj
 0001:000d6a93       ?LimitText@CRichEditCtrl@@QAEXJ@Z 004d7a93 f   nafxcwd:winctrl2.obj
 0001:000d6ae9       ?LineFromChar@CRichEditCtrl@@QBEJJ@Z 004d7ae9 f   nafxcwd:winctrl2.obj
 0001:000d6b3f       ?SetSel@CRichEditCtrl@@QAEXAAU_charrange@@@Z 004d7b3f f   nafxcwd:winctrl2.obj
 0001:000d6b95       ?FindTextA@CRichEditCtrl@@QBEJKPAU_findtextexa@@@Z 004d7b95 f   nafxcwd:winctrl2.obj
 0001:000d6bed       ?FormatRange@CRichEditCtrl@@QAEJPAU_formatrange@@H@Z 004d7bed f   nafxcwd:winctrl2.obj
 0001:000d6c45       ?GetEventMask@CRichEditCtrl@@QBEJXZ 004d7c45 f   nafxcwd:winctrl2.obj
 0001:000d6c97       ?GetLimitText@CRichEditCtrl@@QBEJXZ 004d7c97 f   nafxcwd:winctrl2.obj
 0001:000d6ce9       ?GetSelText@CRichEditCtrl@@QBEJPAD@Z 004d7ce9 f   nafxcwd:winctrl2.obj
 0001:000d6d3f       ?HideSelection@CRichEditCtrl@@QAEXHH@Z 004d7d3f f   nafxcwd:winctrl2.obj
 0001:000d6d97       ?RequestResize@CRichEditCtrl@@QAEXXZ 004d7d97 f   nafxcwd:winctrl2.obj
 0001:000d6de9       ?GetSelectionType@CRichEditCtrl@@QBEGXZ 004d7de9 f   nafxcwd:winctrl2.obj
 0001:000d6e3b       ?SetBackgroundColor@CRichEditCtrl@@QAEKHK@Z 004d7e3b f   nafxcwd:winctrl2.obj
 0001:000d6e93       ?SetEventMask@CRichEditCtrl@@QAEKK@Z 004d7e93 f   nafxcwd:winctrl2.obj
 0001:000d6ee9       ?SetOLECallback@CRichEditCtrl@@QAEHPAUIRichEditOleCallback@@@Z 004d7ee9 f   nafxcwd:winctrl2.obj
 0001:000d6f3f       ?SetTargetDevice@CRichEditCtrl@@QAEHPAUHDC__@@J@Z 004d7f3f f   nafxcwd:winctrl2.obj
 0001:000d6f97       ?SetTargetDevice@CRichEditCtrl@@QAEHAAVCDC@@J@Z 004d7f97 f   nafxcwd:winctrl2.obj
 0001:000d6ff2       ?StreamIn@CRichEditCtrl@@QAEJHAAU_editstream@@@Z 004d7ff2 f   nafxcwd:winctrl2.obj
 0001:000d704a       ?StreamOut@CRichEditCtrl@@QAEJHAAU_editstream@@@Z 004d804a f   nafxcwd:winctrl2.obj
 0001:000d70a2       ?GetTextLength@CRichEditCtrl@@QBEJXZ 004d80a2 f   nafxcwd:winctrl2.obj
 0001:000d7100       ??_ECDragListBox@@UAEPAXI@Z 004d8100 f i nafxcwd:winctrl2.obj
 0001:000d7100       ??_GCDragListBox@@UAEPAXI@Z 004d8100 f i nafxcwd:winctrl2.obj
 0001:000d7130       ??_ECToolBarCtrl@@UAEPAXI@Z 004d8130 f i nafxcwd:winctrl2.obj
 0001:000d7130       ??_GCToolBarCtrl@@UAEPAXI@Z 004d8130 f i nafxcwd:winctrl2.obj
 0001:000d7160       ??_ECStatusBarCtrl@@UAEPAXI@Z 004d8160 f i nafxcwd:winctrl2.obj
 0001:000d7160       ??_GCStatusBarCtrl@@UAEPAXI@Z 004d8160 f i nafxcwd:winctrl2.obj
 0001:000d7190       ??_ECListCtrl@@UAEPAXI@Z   004d8190 f i nafxcwd:winctrl2.obj
 0001:000d7190       ??_GCListCtrl@@UAEPAXI@Z   004d8190 f i nafxcwd:winctrl2.obj
 0001:000d71c0       ??_GCTreeCtrl@@UAEPAXI@Z   004d81c0 f i nafxcwd:winctrl2.obj
 0001:000d71c0       ??_ECTreeCtrl@@UAEPAXI@Z   004d81c0 f i nafxcwd:winctrl2.obj
 0001:000d71f0       ??_GCSpinButtonCtrl@@UAEPAXI@Z 004d81f0 f i nafxcwd:winctrl2.obj
 0001:000d71f0       ??_ECSpinButtonCtrl@@UAEPAXI@Z 004d81f0 f i nafxcwd:winctrl2.obj
 0001:000d7220       ??_ECSliderCtrl@@UAEPAXI@Z 004d8220 f i nafxcwd:winctrl2.obj
 0001:000d7220       ??_GCSliderCtrl@@UAEPAXI@Z 004d8220 f i nafxcwd:winctrl2.obj
 0001:000d7250       ??_GCProgressCtrl@@UAEPAXI@Z 004d8250 f i nafxcwd:winctrl2.obj
 0001:000d7250       ??_ECProgressCtrl@@UAEPAXI@Z 004d8250 f i nafxcwd:winctrl2.obj
 0001:000d7280       ??_GCHeaderCtrl@@UAEPAXI@Z 004d8280 f i nafxcwd:winctrl2.obj
 0001:000d7280       ??_ECHeaderCtrl@@UAEPAXI@Z 004d8280 f i nafxcwd:winctrl2.obj
 0001:000d72b0       ??_GCHotKeyCtrl@@UAEPAXI@Z 004d82b0 f i nafxcwd:winctrl2.obj
 0001:000d72b0       ??_ECHotKeyCtrl@@UAEPAXI@Z 004d82b0 f i nafxcwd:winctrl2.obj
 0001:000d72e0       ??_GCTabCtrl@@UAEPAXI@Z    004d82e0 f i nafxcwd:winctrl2.obj
 0001:000d72e0       ??_ECTabCtrl@@UAEPAXI@Z    004d82e0 f i nafxcwd:winctrl2.obj
 0001:000d7310       ??_GCAnimateCtrl@@UAEPAXI@Z 004d8310 f i nafxcwd:winctrl2.obj
 0001:000d7310       ??_ECAnimateCtrl@@UAEPAXI@Z 004d8310 f i nafxcwd:winctrl2.obj
 0001:000d7340       ??_GCRichEditCtrl@@UAEPAXI@Z 004d8340 f i nafxcwd:winctrl2.obj
 0001:000d7340       ??_ECRichEditCtrl@@UAEPAXI@Z 004d8340 f i nafxcwd:winctrl2.obj
 0001:000d7370       ??_GCImageList@@UAEPAXI@Z  004d8370 f i nafxcwd:winctrl2.obj
 0001:000d7370       ??_ECImageList@@UAEPAXI@Z  004d8370 f i nafxcwd:winctrl2.obj
 0001:000d73a0       ?Create@CComboBoxEx@@QAEHKABUtagRECT@@PAVCWnd@@I@Z 004d83a0 f   nafxcwd:winctrl6.obj
 0001:000d7404       ?DeleteItem@CComboBoxEx@@QAEHH@Z 004d8404 f   nafxcwd:winctrl6.obj
 0001:000d7457       ?GetItem@CComboBoxEx@@QAEHPAUtagCOMBOBOXEXITEMA@@@Z 004d8457 f   nafxcwd:winctrl6.obj
 0001:000d74ef       ?InsertItem@CComboBoxEx@@QAEHPBUtagCOMBOBOXEXITEMA@@@Z 004d84ef f   nafxcwd:winctrl6.obj
 0001:000d7587       ?SetItem@CComboBoxEx@@QAEHPBUtagCOMBOBOXEXITEMA@@@Z 004d8587 f   nafxcwd:winctrl6.obj
 0001:000d761f       ??1CComboBoxEx@@UAE@XZ     004d861f f   nafxcwd:winctrl6.obj
 0001:000d7670       ?Create@CReBarCtrl@@QAEHKABUtagRECT@@PAVCWnd@@I@Z 004d8670 f   nafxcwd:winctrl6.obj
 0001:000d76d4       ?GetImageList@CReBarCtrl@@QBEPAVCImageList@@XZ 004d86d4 f   nafxcwd:winctrl6.obj
 0001:000d7717       ?SetImageList@CReBarCtrl@@QAEHPAVCImageList@@@Z 004d8717 f   nafxcwd:winctrl6.obj
 0001:000d774b       ?GetColorScheme@CReBarCtrl@@QAEHPAUtagCOLORSCHEME@@@Z 004d874b f   nafxcwd:winctrl6.obj
 0001:000d7774       ?SetColorScheme@CReBarCtrl@@QAEXPBUtagCOLORSCHEME@@@Z 004d8774 f   nafxcwd:winctrl6.obj
 0001:000d779d       ?SetColumnOrderArray@CListCtrl@@QAEHHPAH@Z 004d879d f   nafxcwd:winctrl6.obj
 0001:000d7825       ?GetColumnOrderArray@CListCtrl@@QAEHPAHH@Z 004d8825 f   nafxcwd:winctrl6.obj
 0001:000d7901       ?SetBkImage@CListCtrl@@QAEHPAUHBITMAP__@@HHH@Z 004d8901 f   nafxcwd:winctrl6.obj
 0001:000d794b       ?SetBkImage@CListCtrl@@QAEHPADHHH@Z 004d894b f   nafxcwd:winctrl6.obj
 0001:000d7995       ?GetCheck@CListCtrl@@QBEHH@Z 004d8995 f   nafxcwd:winctrl6.obj
 0001:000d79fc       ?SetCheck@CListCtrl@@QAEHHH@Z 004d89fc f   nafxcwd:winctrl6.obj
 0001:000d7a6d       ?GetHeaderCtrl@CListCtrl@@QAEPAVCHeaderCtrl@@XZ 004d8a6d f   nafxcwd:winctrl6.obj
 0001:000d7ad7       ?SetOrderArray@CHeaderCtrl@@QAEHHPAH@Z 004d8ad7 f   nafxcwd:winctrl6.obj
 0001:000d7b5f       ?GetOrderArray@CHeaderCtrl@@QAEHPAHH@Z 004d8b5f f   nafxcwd:winctrl6.obj
 0001:000d7c0a       ?GetRange@CProgressCtrl@@QAEXAAH0@Z 004d8c0a f   nafxcwd:winctrl6.obj
 0001:000d7c72       ?IsSimple@CStatusBarCtrl@@QBEHXZ 004d8c72 f   nafxcwd:winctrl6.obj
 0001:000d7cc1       ?SetTipText@CStatusBarCtrl@@QAEXHPBD@Z 004d8cc1 f   nafxcwd:winctrl6.obj
 0001:000d7d16       ?SetBkColor@CStatusBarCtrl@@QAEKK@Z 004d8d16 f   nafxcwd:winctrl6.obj
 0001:000d7d69       ?SetIcon@CStatusBarCtrl@@QAEHHPAUHICON__@@@Z 004d8d69 f   nafxcwd:winctrl6.obj
 0001:000d7dbe       ?SetRange32@CSpinButtonCtrl@@QAEXHH@Z 004d8dbe f   nafxcwd:winctrl6.obj
 0001:000d7e13       ?GetRange32@CSpinButtonCtrl@@QBEXAAH0@Z 004d8e13 f   nafxcwd:winctrl6.obj
 0001:000d7e68       ?GetButtonSize@CToolBarCtrl@@QBEKXZ 004d8e68 f   nafxcwd:winctrl6.obj
 0001:000d7eb7       ?GetDisabledImageList@CToolBarCtrl@@QBEPAVCImageList@@XZ 004d8eb7 f   nafxcwd:winctrl6.obj
 0001:000d7f0c       ?GetHotImageList@CToolBarCtrl@@QBEPAVCImageList@@XZ 004d8f0c f   nafxcwd:winctrl6.obj
 0001:000d7f61       ?GetImageList@CToolBarCtrl@@QBEPAVCImageList@@XZ 004d8f61 f   nafxcwd:winctrl6.obj
 0001:000d7fb6       ?GetStyle@CToolBarCtrl@@QBEKXZ 004d8fb6 f   nafxcwd:winctrl6.obj
 0001:000d8005       ?GetMaxTextRows@CToolBarCtrl@@QBEHXZ 004d9005 f   nafxcwd:winctrl6.obj
 0001:000d8054       ?GetRect@CToolBarCtrl@@QBEHHPAUtagRECT@@@Z 004d9054 f   nafxcwd:winctrl6.obj
 0001:000d80a9       ?IsButtonHighlighted@CToolBarCtrl@@QBEHH@Z 004d90a9 f   nafxcwd:winctrl6.obj
 0001:000d80fc       ?LoadImages@CToolBarCtrl@@QAEXHPAUHINSTANCE__@@@Z 004d90fc f   nafxcwd:winctrl6.obj
 0001:000d8151       ?SetButtonWidth@CToolBarCtrl@@QAEHHH@Z 004d9151 f   nafxcwd:winctrl6.obj
 0001:000d81b7       ?SetDisabledImageList@CToolBarCtrl@@QAEPAVCImageList@@PAV2@@Z 004d91b7 f   nafxcwd:winctrl6.obj
 0001:000d8215       ?SetHotImageList@CToolBarCtrl@@QAEPAVCImageList@@PAV2@@Z 004d9215 f   nafxcwd:winctrl6.obj
 0001:000d8273       ?SetImageList@CToolBarCtrl@@QAEPAVCImageList@@PAV2@@Z 004d9273 f   nafxcwd:winctrl6.obj
 0001:000d82d1       ?SetIndent@CToolBarCtrl@@QAEHH@Z 004d92d1 f   nafxcwd:winctrl6.obj
 0001:000d8324       ?SetMaxTextRows@CToolBarCtrl@@QAEHH@Z 004d9324 f   nafxcwd:winctrl6.obj
 0001:000d8377       ?SetStyle@CToolBarCtrl@@QAEXK@Z 004d9377 f   nafxcwd:winctrl6.obj
 0001:000d83ca       ?GetButtonInfo@CToolBarCtrl@@QBEHHPAUTBBUTTONINFOA@@@Z 004d93ca f   nafxcwd:winctrl6.obj
 0001:000d841f       ?SetButtonInfo@CToolBarCtrl@@QAEHHPAUTBBUTTONINFOA@@@Z 004d941f f   nafxcwd:winctrl6.obj
 0001:000d8474       ?SetDrawTextFlags@CToolBarCtrl@@QAEKKK@Z 004d9474 f   nafxcwd:winctrl6.obj
 0001:000d84c9       ?GetAnchorHighlight@CToolBarCtrl@@QBEHXZ 004d94c9 f   nafxcwd:winctrl6.obj
 0001:000d8518       ?SetAnchorHighlight@CToolBarCtrl@@QAEHH@Z 004d9518 f   nafxcwd:winctrl6.obj
 0001:000d856b       ?GetHotItem@CToolBarCtrl@@QBEHXZ 004d956b f   nafxcwd:winctrl6.obj
 0001:000d85ba       ?SetHotItem@CToolBarCtrl@@QAEHH@Z 004d95ba f   nafxcwd:winctrl6.obj
 0001:000d860d       ?GetInsertMark@CToolBarCtrl@@QBEXPAUTBINSERTMARK@@@Z 004d960d f   nafxcwd:winctrl6.obj
 0001:000d8660       ?SetInsertMark@CToolBarCtrl@@QAEXPAUTBINSERTMARK@@@Z 004d9660 f   nafxcwd:winctrl6.obj
 0001:000d86b3       ?GetMaxSize@CToolBarCtrl@@QBEHPAUtagSIZE@@@Z 004d96b3 f   nafxcwd:winctrl6.obj
 0001:000d8706       ?InsertMarkHitTest@CToolBarCtrl@@QBEHPAUtagPOINT@@PAUTBINSERTMARK@@@Z 004d9706 f   nafxcwd:winctrl6.obj
 0001:000d875b       ?MapAccelerator@CToolBarCtrl@@QAEHDPAI@Z 004d975b f   nafxcwd:winctrl6.obj
 0001:000d87b1       ?MarkButton@CToolBarCtrl@@QAEHHH@Z 004d97b1 f   nafxcwd:winctrl6.obj
 0001:000d880b       ?MoveButton@CToolBarCtrl@@QAEHII@Z 004d980b f   nafxcwd:winctrl6.obj
 0001:000d8860       ?SetExtendedStyle@CListCtrl@@QAEKK@Z 004d9860 f   nafxcwd:winctrl6.obj
 0001:000d88b3       ?SetHotCursor@CListCtrl@@QAEPAUHICON__@@PAU2@@Z 004d98b3 f   nafxcwd:winctrl6.obj
 0001:000d890c       ?SetHotItem@CListCtrl@@QAEHH@Z 004d990c f   nafxcwd:winctrl6.obj
 0001:000d895f       ?SetWorkAreas@CListCtrl@@QAEXHPAUtagRECT@@@Z 004d995f f   nafxcwd:winctrl6.obj
 0001:000d89b4       ?SubItemHitTest@CListCtrl@@QAEHPAUtagLVHITTESTINFO@@@Z 004d99b4 f   nafxcwd:winctrl6.obj
 0001:000d8a07       ?GetHotCursor@CListCtrl@@QAEPAUHICON__@@XZ 004d9a07 f   nafxcwd:winctrl6.obj
 0001:000d8a56       ?GetHotItem@CListCtrl@@QAEHXZ 004d9a56 f   nafxcwd:winctrl6.obj
 0001:000d8aa5       ?GetExtendedStyle@CListCtrl@@QAEKXZ 004d9aa5 f   nafxcwd:winctrl6.obj
 0001:000d8af4       ?ApproximateViewRect@CListCtrl@@QBE?AVCSize@@V2@H@Z 004d9af4 f   nafxcwd:winctrl6.obj
 0001:000d8b68       ?GetBkImage@CListCtrl@@QBEHPAUtagLVBKIMAGEA@@@Z 004d9b68 f   nafxcwd:winctrl6.obj
 0001:000d8bbb       ?GetHoverTime@CListCtrl@@QBEKXZ 004d9bbb f   nafxcwd:winctrl6.obj
 0001:000d8c0a       ?GetWorkAreas@CListCtrl@@QBEXHPAUtagRECT@@@Z 004d9c0a f   nafxcwd:winctrl6.obj
 0001:000d8c5f       ?SetBkImage@CListCtrl@@QAEHPAUtagLVBKIMAGEA@@@Z 004d9c5f f   nafxcwd:winctrl6.obj
 0001:000d8cb2       ?SetHoverTime@CListCtrl@@QAEKK@Z 004d9cb2 f   nafxcwd:winctrl6.obj
 0001:000d8d05       ?GetNumberOfWorkAreas@CListCtrl@@QBEIXZ 004d9d05 f   nafxcwd:winctrl6.obj
 0001:000d8d5b       ?SetSelectionMark@CListCtrl@@QAEHH@Z 004d9d5b f   nafxcwd:winctrl6.obj
 0001:000d8db1       ?GetSelectionMark@CListCtrl@@QAEHXZ 004d9db1 f   nafxcwd:winctrl6.obj
 0001:000d8e03       ?GetItemRect@CHeaderCtrl@@QBEHHPAUtagRECT@@@Z 004d9e03 f   nafxcwd:winctrl6.obj
 0001:000d8e7b       ?OrderToIndex@CHeaderCtrl@@QBEHH@Z 004d9e7b f   nafxcwd:winctrl6.obj
 0001:000d8ed1       ?SetHotDivider@CHeaderCtrl@@QAEHVCPoint@@@Z 004d9ed1 f   nafxcwd:winctrl6.obj
 0001:000d8f3a       ?SetHotDivider@CHeaderCtrl@@QAEHH@Z 004d9f3a f   nafxcwd:winctrl6.obj
 0001:000d8f90       ?GetImageList@CHeaderCtrl@@QBEPAVCImageList@@XZ 004d9f90 f   nafxcwd:winctrl6.obj
 0001:000d8fe8       ?SetImageList@CHeaderCtrl@@QAEPAVCImageList@@PAV2@@Z 004d9fe8 f   nafxcwd:winctrl6.obj
 0001:000d9049       ?CreateDragImage@CHeaderCtrl@@QAEPAVCImageList@@H@Z 004da049 f   nafxcwd:winctrl6.obj
 0001:000d90a5       ??0CReBarCtrl@@QAE@XZ      004da0a5 f   nafxcwd:winctrl6.obj
 0001:000d90c4       ?GetBandCount@CReBarCtrl@@QBEIXZ 004da0c4 f   nafxcwd:winctrl6.obj
 0001:000d9116       ?GetBandInfo@CReBarCtrl@@QBEHIPAUtagREBARBANDINFOA@@@Z 004da116 f   nafxcwd:winctrl6.obj
 0001:000d916e       ?GetBarHeight@CReBarCtrl@@QBEIXZ 004da16e f   nafxcwd:winctrl6.obj
 0001:000d91c0       ?GetBarInfo@CReBarCtrl@@QBEHPAUtagREBARINFO@@@Z 004da1c0 f   nafxcwd:winctrl6.obj
 0001:000d9216       ?GetBkColor@CReBarCtrl@@QBEKXZ 004da216 f   nafxcwd:winctrl6.obj
 0001:000d9268       ?GetDropTarget@CReBarCtrl@@QBEPAUIDropTarget@@XZ 004da268 f   nafxcwd:winctrl6.obj
 0001:000d92c1       ?GetRect@CReBarCtrl@@QBEHIPAUtagRECT@@@Z 004da2c1 f   nafxcwd:winctrl6.obj
 0001:000d9319       ?GetRowCount@CReBarCtrl@@QBEIXZ 004da319 f   nafxcwd:winctrl6.obj
 0001:000d936b       ?GetRowHeight@CReBarCtrl@@QBEII@Z 004da36b f   nafxcwd:winctrl6.obj
 0001:000d93c1       ?GetTextColor@CReBarCtrl@@QBEKXZ 004da3c1 f   nafxcwd:winctrl6.obj
 0001:000d9413       ?GetToolTips@CReBarCtrl@@QBEPAVCToolTipCtrl@@XZ 004da413 f   nafxcwd:winctrl6.obj
 0001:000d946b       ?IDToIndex@CReBarCtrl@@QBEHI@Z 004da46b f   nafxcwd:winctrl6.obj
 0001:000d94c1       ?SetBandInfo@CReBarCtrl@@QAEHIPAUtagREBARBANDINFOA@@@Z 004da4c1 f   nafxcwd:winctrl6.obj
 0001:000d9519       ?SetBarInfo@CReBarCtrl@@QAEHPAUtagREBARINFO@@@Z 004da519 f   nafxcwd:winctrl6.obj
 0001:000d956f       ?SetBkColor@CReBarCtrl@@QAEKK@Z 004da56f f   nafxcwd:winctrl6.obj
 0001:000d95c5       ?SetOwner@CReBarCtrl@@QAEPAVCWnd@@PAV2@@Z 004da5c5 f   nafxcwd:winctrl6.obj
 0001:000d9624       ?SetTextColor@CReBarCtrl@@QAEKK@Z 004da624 f   nafxcwd:winctrl6.obj
 0001:000d967a       ?SetToolTips@CReBarCtrl@@QAEXPAVCToolTipCtrl@@@Z 004da67a f   nafxcwd:winctrl6.obj
 0001:000d96d3       ?BeginDrag@CReBarCtrl@@QAEXIK@Z 004da6d3 f   nafxcwd:winctrl6.obj
 0001:000d972b       ?DeleteBand@CReBarCtrl@@QAEHI@Z 004da72b f   nafxcwd:winctrl6.obj
 0001:000d9781       ?DragMove@CReBarCtrl@@QAEXK@Z 004da781 f   nafxcwd:winctrl6.obj
 0001:000d97d7       ?EndDrag@CReBarCtrl@@QAEXXZ 004da7d7 f   nafxcwd:winctrl6.obj
 0001:000d9829       ?HitTest@CReBarCtrl@@QAEHPAU_RB_HITTESTINFO@@@Z 004da829 f   nafxcwd:winctrl6.obj
 0001:000d987f       ?InsertBand@CReBarCtrl@@QAEHIPAUtagREBARBANDINFOA@@@Z 004da87f f   nafxcwd:winctrl6.obj
 0001:000d98d7       ?MaximizeBand@CReBarCtrl@@QAEXI@Z 004da8d7 f   nafxcwd:winctrl6.obj
 0001:000d992d       ?MinimizeBand@CReBarCtrl@@QAEXI@Z 004da92d f   nafxcwd:winctrl6.obj
 0001:000d9983       ?SizeToRect@CReBarCtrl@@QAEHAAVCRect@@@Z 004da983 f   nafxcwd:winctrl6.obj
 0001:000d99d9       ?ShowBand@CReBarCtrl@@QAEHIH@Z 004da9d9 f   nafxcwd:winctrl6.obj
 0001:000d9a31       ?GetBandBorders@CReBarCtrl@@QBEXIPAUtagRECT@@@Z 004daa31 f   nafxcwd:winctrl6.obj
 0001:000d9a89       ?GetPalette@CReBarCtrl@@QBEPAVCPalette@@XZ 004daa89 f   nafxcwd:winctrl6.obj
 0001:000d9ae1       ?SetPalette@CReBarCtrl@@QAEPAVCPalette@@PAUHPALETTE__@@@Z 004daae1 f   nafxcwd:winctrl6.obj
 0001:000d9b3d       ?MoveBand@CReBarCtrl@@QAEHII@Z 004dab3d f   nafxcwd:winctrl6.obj
 0001:000d9b95       ?SetDelayTime@CToolTipCtrl@@QAEXI@Z 004dab95 f   nafxcwd:winctrl6.obj
 0001:000d9beb       ?GetDelayTime@CToolTipCtrl@@QBEHK@Z 004dabeb f   nafxcwd:winctrl6.obj
 0001:000d9c41       ?GetMargin@CToolTipCtrl@@QBEXPAUtagRECT@@@Z 004dac41 f   nafxcwd:winctrl6.obj
 0001:000d9c97       ?GetMaxTipWidth@CToolTipCtrl@@QBEHXZ 004dac97 f   nafxcwd:winctrl6.obj
 0001:000d9ce9       ?GetTipBkColor@CToolTipCtrl@@QBEKXZ 004dace9 f   nafxcwd:winctrl6.obj
 0001:000d9d3b       ?GetTipTextColor@CToolTipCtrl@@QBEKXZ 004dad3b f   nafxcwd:winctrl6.obj
 0001:000d9d8d       ?Pop@CToolTipCtrl@@QAEXXZ  004dad8d f   nafxcwd:winctrl6.obj
 0001:000d9ddf       ?SetDelayTime@CToolTipCtrl@@QAEXKH@Z 004daddf f   nafxcwd:winctrl6.obj
 0001:000d9e3c       ?SetMargin@CToolTipCtrl@@QAEXPAUtagRECT@@@Z 004dae3c f   nafxcwd:winctrl6.obj
 0001:000d9e92       ?SetMaxTipWidth@CToolTipCtrl@@QAEHH@Z 004dae92 f   nafxcwd:winctrl6.obj
 0001:000d9ee8       ?SetTipBkColor@CToolTipCtrl@@QAEXK@Z 004daee8 f   nafxcwd:winctrl6.obj
 0001:000d9f3e       ?SetTipTextColor@CToolTipCtrl@@QAEXK@Z 004daf3e f   nafxcwd:winctrl6.obj
 0001:000d9f94       ?Update@CToolTipCtrl@@QAEXXZ 004daf94 f   nafxcwd:winctrl6.obj
 0001:000d9fe6       ??0CComboBoxEx@@QAE@XZ     004dafe6 f   nafxcwd:winctrl6.obj
 0001:000da005       ?GetExtendedStyle@CComboBoxEx@@QBEKXZ 004db005 f   nafxcwd:winctrl6.obj
 0001:000da057       ?SetExtendedStyle@CComboBoxEx@@QAEKKK@Z 004db057 f   nafxcwd:winctrl6.obj
 0001:000da0af       ?HasEditChanged@CComboBoxEx@@QAEHXZ 004db0af f   nafxcwd:winctrl6.obj
 0001:000da101       ?GetEditCtrl@CComboBoxEx@@QAEPAVCEdit@@XZ 004db101 f   nafxcwd:winctrl6.obj
 0001:000da159       ?GetComboBoxCtrl@CComboBoxEx@@QAEPAVCComboBox@@XZ 004db159 f   nafxcwd:winctrl6.obj
 0001:000da1b1       ?SetImageList@CComboBoxEx@@QAEPAVCImageList@@PAV2@@Z 004db1b1 f   nafxcwd:winctrl6.obj
 0001:000da212       ?GetImageList@CComboBoxEx@@QBEPAVCImageList@@XZ 004db212 f   nafxcwd:winctrl6.obj
 0001:000da26a       ?Dir@CComboBoxEx@@QAEHIPBD@Z 004db26a f   nafxcwd:winctrl6.obj
 0001:000da2a3       ?FindString@CComboBoxEx@@QBEHHPBD@Z 004db2a3 f   nafxcwd:winctrl6.obj
 0001:000da2dc       ?AddString@CComboBoxEx@@QAEHPBD@Z 004db2dc f   nafxcwd:winctrl6.obj
 0001:000da315       ?SetEditSel@CComboBoxEx@@QAEHHH@Z 004db315 f   nafxcwd:winctrl6.obj
 0001:000da34d       ?InsertString@CComboBoxEx@@QAEHHPBD@Z 004db34d f   nafxcwd:winctrl6.obj
 0001:000da386       ?SetPos@CProgressCtrl@@QAEHH@Z 004db386 f   nafxcwd:winctrl6.obj
 0001:000da3dc       ??0CIPAddressCtrl@@QAE@XZ  004db3dc f   nafxcwd:winctrl6.obj
 0001:000da3fb       ?ClearAddress@CIPAddressCtrl@@QAEXXZ 004db3fb f   nafxcwd:winctrl6.obj
 0001:000da44d       ?IsBlank@CIPAddressCtrl@@QBEHXZ 004db44d f   nafxcwd:winctrl6.obj
 0001:000da49f       ?GetAddress@CIPAddressCtrl@@QAEHAAK@Z 004db49f f   nafxcwd:winctrl6.obj
 0001:000da4f5       ?SetAddress@CIPAddressCtrl@@QAEXK@Z 004db4f5 f   nafxcwd:winctrl6.obj
 0001:000da54b       ?SetAddress@CIPAddressCtrl@@QAEXEEEE@Z 004db54b f   nafxcwd:winctrl6.obj
 0001:000da5d0       ?SetFieldFocus@CIPAddressCtrl@@QAEXG@Z 004db5d0 f   nafxcwd:winctrl6.obj
 0001:000da62b       ?SetFieldRange@CIPAddressCtrl@@QAEXHEE@Z 004db62b f   nafxcwd:winctrl6.obj
 0001:000da69b       ?SetImageCount@CImageList@@QAEHI@Z 004db69b f   nafxcwd:winctrl6.obj
 0001:000da6e2       ?Copy@CImageList@@QAEHHHI@Z 004db6e2 f   nafxcwd:winctrl6.obj
 0001:000da738       ?Copy@CImageList@@QAEHHPAV1@HI@Z 004db738 f   nafxcwd:winctrl6.obj
 0001:000da7c0       ??_ECComboBoxEx@@UAEPAXI@Z 004db7c0 f i nafxcwd:winctrl6.obj
 0001:000da7c0       ??_GCComboBoxEx@@UAEPAXI@Z 004db7c0 f i nafxcwd:winctrl6.obj
 0001:000da7f0       ??_GCReBarCtrl@@UAEPAXI@Z  004db7f0 f i nafxcwd:winctrl6.obj
 0001:000da7f0       ??_ECReBarCtrl@@UAEPAXI@Z  004db7f0 f i nafxcwd:winctrl6.obj
 0001:000da820       ??1CReBarCtrl@@UAE@XZ      004db820 f i nafxcwd:winctrl6.obj
 0001:000da840       ?GetMessageMap@CToolTipCtrl@@MBEPBUAFX_MSGMAP@@XZ 004db840 f   nafxcwd:tooltip.obj
 0001:000da850       ??0CToolTipCtrl@@QAE@XZ    004db850 f   nafxcwd:tooltip.obj
 0001:000da8a9       ?Create@CToolTipCtrl@@QAEHPAVCWnd@@K@Z 004db8a9 f   nafxcwd:tooltip.obj
 0001:000da937       ??1CToolTipCtrl@@UAE@XZ    004db937 f   nafxcwd:tooltip.obj
 0001:000da997       ?DestroyToolTipCtrl@CToolTipCtrl@@UAEHXZ 004db997 f   nafxcwd:tooltip.obj
 0001:000da9ea       ?OnAddTool@CToolTipCtrl@@IAEJIJ@Z 004db9ea f   nafxcwd:tooltip.obj
 0001:000daa8f       ?OnDisableModal@CToolTipCtrl@@IAEJIJ@Z 004dba8f f   nafxcwd:tooltip.obj
 0001:000daaaf       ?OnEnable@CToolTipCtrl@@IAEXH@Z 004dbaaf f   nafxcwd:tooltip.obj
 0001:000daacf       ?OnWindowFromPoint@CToolTipCtrl@@IAEJIJ@Z 004dbacf f   nafxcwd:tooltip.obj
 0001:000dabab       ?AddTool@CToolTipCtrl@@QAEHPAVCWnd@@PBDPBUtagRECT@@I@Z 004dbbab f   nafxcwd:tooltip.obj
 0001:000daca7       ?AddTool@CToolTipCtrl@@QAEHPAVCWnd@@IPBUtagRECT@@I@Z 004dbca7 f   nafxcwd:tooltip.obj
 0001:000dadd0       ?DelTool@CToolTipCtrl@@QAEXPAVCWnd@@I@Z 004dbdd0 f   nafxcwd:tooltip.obj
 0001:000dae5c       ?GetText@CToolTipCtrl@@QBEXAAVCString@@PAVCWnd@@I@Z 004dbe5c f   nafxcwd:tooltip.obj
 0001:000daf02       ?GetToolInfo@CToolTipCtrl@@QBEHAAVCToolInfo@@PAVCWnd@@I@Z 004dbf02 f   nafxcwd:tooltip.obj
 0001:000daf98       ?HitTest@CToolTipCtrl@@QBEHPAVCWnd@@VCPoint@@PAUtagTOOLINFOA@@@Z 004dbf98 f   nafxcwd:tooltip.obj
 0001:000db07d       ?SetToolRect@CToolTipCtrl@@QAEXPAVCWnd@@IPBUtagRECT@@@Z 004dc07d f   nafxcwd:tooltip.obj
 0001:000db13b       ?UpdateTipText@CToolTipCtrl@@QAEXPBDPAVCWnd@@I@Z 004dc13b f   nafxcwd:tooltip.obj
 0001:000db1cd       ?UpdateTipText@CToolTipCtrl@@QAEXIPAVCWnd@@I@Z 004dc1cd f   nafxcwd:tooltip.obj
 0001:000db282       ?FillInToolInfo@CToolTipCtrl@@QBEXAAUtagTOOLINFOA@@PAVCWnd@@I@Z 004dc282 f   nafxcwd:tooltip.obj
 0001:000db2fc       ?_EnableToolTips@CWnd@@QAEHHI@Z 004dc2fc f   nafxcwd:tooltip.obj
 0001:000db423       ?EnableToolTips@CWnd@@QAEHH@Z 004dc423 f   nafxcwd:tooltip.obj
 0001:000db43e       ?EnableTrackingToolTips@CWnd@@QAEHH@Z 004dc43e f   nafxcwd:tooltip.obj
 0001:000db45c       ?_AfxRelayToolTipMessage@@YGXPAVCToolTipCtrl@@PAUtagMSG@@@Z 004dc45c f   nafxcwd:tooltip.obj
 0001:000db4ee       ?_FilterToolTipMessage@CWnd@@SGXPAUtagMSG@@PAV1@@Z 004dc4ee f   nafxcwd:tooltip.obj
 0001:000db501       ?FilterToolTipMessage@CWnd@@QAEXPAUtagMSG@@@Z 004dc501 f   nafxcwd:tooltip.obj
 0001:000dbca0       ??_GCToolTipCtrl@@UAEPAXI@Z 004dcca0 f i nafxcwd:tooltip.obj
 0001:000dbca0       ??_ECToolTipCtrl@@UAEPAXI@Z 004dcca0 f i nafxcwd:tooltip.obj
 0001:000dbcd0       ??0CArchiveStream@@QAE@PAVCArchive@@@Z 004dccd0 f   nafxcwd:arcstrm.obj
 0001:000dbcfa       ?AddRef@CArchiveStream@@UAGKXZ 004dccfa f   nafxcwd:arcstrm.obj
 0001:000dbd06       ?Release@CArchiveStream@@UAGKXZ 004dcd06 f   nafxcwd:arcstrm.obj
 0001:000dbd0f       ?QueryInterface@CArchiveStream@@UAGJABU_GUID@@PAPAX@Z 004dcd0f f   nafxcwd:arcstrm.obj
 0001:000dbd51       ?Read@CArchiveStream@@UAGJPAXKPAK@Z 004dcd51 f   nafxcwd:arcstrm.obj
 0001:000dbe57       ?Write@CArchiveStream@@UAGJPBXKPAK@Z 004dce57 f   nafxcwd:arcstrm.obj
 0001:000dbf5a       ?Seek@CArchiveStream@@UAGJT_LARGE_INTEGER@@KPAT_ULARGE_INTEGER@@@Z 004dcf5a f   nafxcwd:arcstrm.obj
 0001:000dc089       ?SetSize@CArchiveStream@@UAGJT_ULARGE_INTEGER@@@Z 004dd089 f   nafxcwd:arcstrm.obj
 0001:000dc095       ?CopyTo@CArchiveStream@@UAGJPAUIStream@@T_ULARGE_INTEGER@@PAT3@2@Z 004dd095 f   nafxcwd:arcstrm.obj
 0001:000dc0a1       ?Commit@CArchiveStream@@UAGJK@Z 004dd0a1 f   nafxcwd:arcstrm.obj
 0001:000dc0ad       ?Revert@CArchiveStream@@UAGJXZ 004dd0ad f   nafxcwd:arcstrm.obj
 0001:000dc0b9       ?LockRegion@CArchiveStream@@UAGJT_ULARGE_INTEGER@@0K@Z 004dd0b9 f   nafxcwd:arcstrm.obj
 0001:000dc0c5       ?UnlockRegion@CArchiveStream@@UAGJT_ULARGE_INTEGER@@0K@Z 004dd0c5 f   nafxcwd:arcstrm.obj
 0001:000dc0d1       ?Stat@CArchiveStream@@UAGJPAUtagSTATSTG@@K@Z 004dd0d1 f   nafxcwd:arcstrm.obj
 0001:000dc0dd       ?Clone@CArchiveStream@@UAGJPAPAUIStream@@@Z 004dd0dd f   nafxcwd:arcstrm.obj
 0001:000dc0f0       ??0IStream@@QAE@XZ         004dd0f0 f i nafxcwd:arcstrm.obj
 0001:000dc110       ??0ISequentialStream@@QAE@XZ 004dd110 f i nafxcwd:arcstrm.obj
 0001:000e0ae0       ?data@CPlex@@QAEPAXXZ      004e1ae0 f i HouseInfoManager.obj
 0001:000e0b20       ??0CStringArray@@QAE@XZ    004e1b20 f   nafxcwd:array_s.obj
 0001:000e0b67       ??1CStringArray@@UAE@XZ    004e1b67 f   nafxcwd:array_s.obj
 0001:000e0c4b       ?SetSize@CStringArray@@QAEXHH@Z 004e1c4b f   nafxcwd:array_s.obj
 0001:000e0fe6       ?Append@CStringArray@@QAEHABV1@@Z 004e1fe6 f   nafxcwd:array_s.obj
 0001:000e10ce       ?Copy@CStringArray@@QAEXABV1@@Z 004e20ce f   nafxcwd:array_s.obj
 0001:000e1144       ?FreeExtra@CStringArray@@QAEXXZ 004e2144 f   nafxcwd:array_s.obj
 0001:000e121e       ?SetAtGrow@CStringArray@@QAEXHPBD@Z 004e221e f   nafxcwd:array_s.obj
 0001:000e1295       ?SetAtGrow@CStringArray@@QAEXHABVCString@@@Z 004e2295 f   nafxcwd:array_s.obj
 0001:000e130c       ?InsertEmpty@CStringArray@@IAEXHH@Z 004e230c f   nafxcwd:array_s.obj
 0001:000e141f       ?InsertAt@CStringArray@@QAEXHPBDH@Z 004e241f f   nafxcwd:array_s.obj
 0001:000e14b5       ?InsertAt@CStringArray@@QAEXHABVCString@@H@Z 004e24b5 f   nafxcwd:array_s.obj
 0001:000e150a       ?RemoveAt@CStringArray@@QAEXHH@Z 004e250a f   nafxcwd:array_s.obj
 0001:000e1605       ?InsertAt@CStringArray@@QAEXHPAV1@@Z 004e2605 f   nafxcwd:array_s.obj
 0001:000e1783       ?Serialize@CStringArray@@UAEXAAVCArchive@@@Z 004e2783 f   nafxcwd:array_s.obj
 0001:000e1851       ?Dump@CStringArray@@UBEXAAVCDumpContext@@@Z 004e2851 f   nafxcwd:array_s.obj
 0001:000e1902       ?AssertValid@CStringArray@@UBEXXZ 004e2902 f   nafxcwd:array_s.obj
 0001:000e1a20       ??_ECStringArray@@UAEPAXI@Z 004e2a20 f i nafxcwd:array_s.obj
 0001:000e1a20       ??_GCStringArray@@UAEPAXI@Z 004e2a20 f i nafxcwd:array_s.obj
 0001:000e1a50       ?Create@CPlex@@SGPAU1@AAPAU1@II@Z 004e2a50 f   nafxcwd:plex.obj
 0001:000e1abd       ?FreeDataChain@CPlex@@QAEXXZ 004e2abd f   nafxcwd:plex.obj
 0001:000e1b00       ??0CByteArray@@QAE@XZ      004e2b00 f   nafxcwd:array_b.obj
 0001:000e1b47       ??1CByteArray@@UAE@XZ      004e2b47 f   nafxcwd:array_b.obj
 0001:000e1bb7       ?SetSize@CByteArray@@QAEXHH@Z 004e2bb7 f   nafxcwd:array_b.obj
 0001:000e1e8e       ?Append@CByteArray@@QAEHABV1@@Z 004e2e8e f   nafxcwd:array_b.obj
 0001:000e1f1b       ?Copy@CByteArray@@QAEXABV1@@Z 004e2f1b f   nafxcwd:array_b.obj
 0001:000e1f91       ?FreeExtra@CByteArray@@QAEXXZ 004e2f91 f   nafxcwd:array_b.obj
 0001:000e2062       ?SetAtGrow@CByteArray@@QAEXHE@Z 004e3062 f   nafxcwd:array_b.obj
 0001:000e20d3       ?InsertAt@CByteArray@@QAEXHEH@Z 004e30d3 f   nafxcwd:array_b.obj
 0001:000e2208       ?RemoveAt@CByteArray@@QAEXHH@Z 004e3208 f   nafxcwd:array_b.obj
 0001:000e22e3       ?InsertAt@CByteArray@@QAEXHPAV1@@Z 004e32e3 f   nafxcwd:array_b.obj
 0001:000e23f2       ?Serialize@CByteArray@@UAEXAAVCArchive@@@Z 004e33f2 f   nafxcwd:array_b.obj
 0001:000e2482       ?Dump@CByteArray@@UBEXAAVCDumpContext@@@Z 004e3482 f   nafxcwd:array_b.obj
 0001:000e2534       ?AssertValid@CByteArray@@UBEXXZ 004e3534 f   nafxcwd:array_b.obj
 0001:000e2650       ??_ECByteArray@@UAEPAXI@Z  004e3650 f i nafxcwd:array_b.obj
 0001:000e2650       ??_GCByteArray@@UAEPAXI@Z  004e3650 f i nafxcwd:array_b.obj
 0001:000e2680       ??0CWordArray@@QAE@XZ      004e3680 f   nafxcwd:array_w.obj
 0001:000e26c7       ??1CWordArray@@UAE@XZ      004e36c7 f   nafxcwd:array_w.obj
 0001:000e2737       ?SetSize@CWordArray@@QAEXHH@Z 004e3737 f   nafxcwd:array_w.obj
 0001:000e2a26       ?Append@CWordArray@@QAEHABV1@@Z 004e3a26 f   nafxcwd:array_w.obj
 0001:000e2ab8       ?Copy@CWordArray@@QAEXABV1@@Z 004e3ab8 f   nafxcwd:array_w.obj
 0001:000e2b30       ?FreeExtra@CWordArray@@QAEXXZ 004e3b30 f   nafxcwd:array_w.obj
 0001:000e2c08       ?SetAtGrow@CWordArray@@QAEXHG@Z 004e3c08 f   nafxcwd:array_w.obj
 0001:000e2c7b       ?InsertAt@CWordArray@@QAEXHGH@Z 004e3c7b f   nafxcwd:array_w.obj
 0001:000e2dbd       ?RemoveAt@CWordArray@@QAEXHH@Z 004e3dbd f   nafxcwd:array_w.obj
 0001:000e2e9e       ?InsertAt@CWordArray@@QAEXHPAV1@@Z 004e3e9e f   nafxcwd:array_w.obj
 0001:000e2fad       ?Serialize@CWordArray@@UAEXAAVCArchive@@@Z 004e3fad f   nafxcwd:array_w.obj
 0001:000e3041       ?Dump@CWordArray@@UBEXAAVCDumpContext@@@Z 004e4041 f   nafxcwd:array_w.obj
 0001:000e30f4       ?AssertValid@CWordArray@@UBEXXZ 004e40f4 f   nafxcwd:array_w.obj
 0001:000e3210       ??_GCWordArray@@UAEPAXI@Z  004e4210 f i nafxcwd:array_w.obj
 0001:000e3210       ??_ECWordArray@@UAEPAXI@Z  004e4210 f i nafxcwd:array_w.obj
 0001:000e3240       ??0CDWordArray@@QAE@XZ     004e4240 f   nafxcwd:array_d.obj
 0001:000e3287       ??1CDWordArray@@UAE@XZ     004e4287 f   nafxcwd:array_d.obj
 0001:000e32f7       ?SetSize@CDWordArray@@QAEXHH@Z 004e42f7 f   nafxcwd:array_d.obj
 0001:000e35ec       ?Append@CDWordArray@@QAEHABV1@@Z 004e45ec f   nafxcwd:array_d.obj
 0001:000e367f       ?Copy@CDWordArray@@QAEXABV1@@Z 004e467f f   nafxcwd:array_d.obj
 0001:000e36f8       ?FreeExtra@CDWordArray@@QAEXXZ 004e46f8 f   nafxcwd:array_d.obj
 0001:000e37d2       ?SetAtGrow@CDWordArray@@QAEXHK@Z 004e47d2 f   nafxcwd:array_d.obj
 0001:000e3843       ?InsertAt@CDWordArray@@QAEXHKH@Z 004e4843 f   nafxcwd:array_d.obj
 0001:000e3985       ?RemoveAt@CDWordArray@@QAEXHH@Z 004e4985 f   nafxcwd:array_d.obj
 0001:000e3a67       ?InsertAt@CDWordArray@@QAEXHPAV1@@Z 004e4a67 f   nafxcwd:array_d.obj
 0001:000e3b76       ?Serialize@CDWordArray@@UAEXAAVCArchive@@@Z 004e4b76 f   nafxcwd:array_d.obj
 0001:000e3c0c       ?Dump@CDWordArray@@UBEXAAVCDumpContext@@@Z 004e4c0c f   nafxcwd:array_d.obj
 0001:000e3cbe       ?AssertValid@CDWordArray@@UBEXXZ 004e4cbe f   nafxcwd:array_d.obj
 0001:000e3dd0       ??_ECDWordArray@@UAEPAXI@Z 004e4dd0 f i nafxcwd:array_d.obj
 0001:000e3dd0       ??_GCDWordArray@@UAEPAXI@Z 004e4dd0 f i nafxcwd:array_d.obj
 0001:000e3e00       ??0CUIntArray@@QAE@XZ      004e4e00 f   nafxcwd:array_u.obj
 0001:000e3e47       ??1CUIntArray@@UAE@XZ      004e4e47 f   nafxcwd:array_u.obj
 0001:000e3eb7       ?SetSize@CUIntArray@@QAEXHH@Z 004e4eb7 f   nafxcwd:array_u.obj
 0001:000e41ac       ?Append@CUIntArray@@QAEHABV1@@Z 004e51ac f   nafxcwd:array_u.obj
 0001:000e423f       ?Copy@CUIntArray@@QAEXABV1@@Z 004e523f f   nafxcwd:array_u.obj
 0001:000e42b8       ?FreeExtra@CUIntArray@@QAEXXZ 004e52b8 f   nafxcwd:array_u.obj
 0001:000e4392       ?SetAtGrow@CUIntArray@@QAEXHI@Z 004e5392 f   nafxcwd:array_u.obj
 0001:000e4403       ?InsertAt@CUIntArray@@QAEXHIH@Z 004e5403 f   nafxcwd:array_u.obj
 0001:000e4545       ?RemoveAt@CUIntArray@@QAEXHH@Z 004e5545 f   nafxcwd:array_u.obj
 0001:000e4627       ?InsertAt@CUIntArray@@QAEXHPAV1@@Z 004e5627 f   nafxcwd:array_u.obj
 0001:000e4736       ?Dump@CUIntArray@@UBEXAAVCDumpContext@@@Z 004e5736 f   nafxcwd:array_u.obj
 0001:000e47e8       ?AssertValid@CUIntArray@@UBEXXZ 004e57e8 f   nafxcwd:array_u.obj
 0001:000e4900       ??_GCUIntArray@@UAEPAXI@Z  004e5900 f i nafxcwd:array_u.obj
 0001:000e4900       ??_ECUIntArray@@UAEPAXI@Z  004e5900 f i nafxcwd:array_u.obj
 0001:000e4930       ??0CPtrArray@@QAE@XZ       004e5930 f   nafxcwd:array_p.obj
 0001:000e4977       ??1CPtrArray@@UAE@XZ       004e5977 f   nafxcwd:array_p.obj
 0001:000e49e7       ?SetSize@CPtrArray@@QAEXHH@Z 004e59e7 f   nafxcwd:array_p.obj
 0001:000e4cdc       ?Append@CPtrArray@@QAEHABV1@@Z 004e5cdc f   nafxcwd:array_p.obj
 0001:000e4d6f       ?Copy@CPtrArray@@QAEXABV1@@Z 004e5d6f f   nafxcwd:array_p.obj
 0001:000e4de8       ?FreeExtra@CPtrArray@@QAEXXZ 004e5de8 f   nafxcwd:array_p.obj
 0001:000e4ec2       ?SetAtGrow@CPtrArray@@QAEXHPAX@Z 004e5ec2 f   nafxcwd:array_p.obj
 0001:000e4f33       ?InsertAt@CPtrArray@@QAEXHPAXH@Z 004e5f33 f   nafxcwd:array_p.obj
 0001:000e5075       ?RemoveAt@CPtrArray@@QAEXHH@Z 004e6075 f   nafxcwd:array_p.obj
 0001:000e5157       ?InsertAt@CPtrArray@@QAEXHPAV1@@Z 004e6157 f   nafxcwd:array_p.obj
 0001:000e5266       ?Dump@CPtrArray@@UBEXAAVCDumpContext@@@Z 004e6266 f   nafxcwd:array_p.obj
 0001:000e5318       ?AssertValid@CPtrArray@@UBEXXZ 004e6318 f   nafxcwd:array_p.obj
 0001:000e5430       ??_ECPtrArray@@UAEPAXI@Z   004e6430 f i nafxcwd:array_p.obj
 0001:000e5430       ??_GCPtrArray@@UAEPAXI@Z   004e6430 f i nafxcwd:array_p.obj
 0001:000e5460       ??0CObArray@@QAE@XZ        004e6460 f   nafxcwd:array_o.obj
 0001:000e54a7       ??1CObArray@@UAE@XZ        004e64a7 f   nafxcwd:array_o.obj
 0001:000e5517       ?SetSize@CObArray@@QAEXHH@Z 004e6517 f   nafxcwd:array_o.obj
 0001:000e580c       ?Append@CObArray@@QAEHABV1@@Z 004e680c f   nafxcwd:array_o.obj
 0001:000e589f       ?Copy@CObArray@@QAEXABV1@@Z 004e689f f   nafxcwd:array_o.obj
 0001:000e5918       ?FreeExtra@CObArray@@QAEXXZ 004e6918 f   nafxcwd:array_o.obj
 0001:000e59f2       ?SetAtGrow@CObArray@@QAEXHPAVCObject@@@Z 004e69f2 f   nafxcwd:array_o.obj
 0001:000e5a63       ?InsertAt@CObArray@@QAEXHPAVCObject@@H@Z 004e6a63 f   nafxcwd:array_o.obj
 0001:000e5ba5       ?RemoveAt@CObArray@@QAEXHH@Z 004e6ba5 f   nafxcwd:array_o.obj
 0001:000e5c87       ?InsertAt@CObArray@@QAEXHPAV1@@Z 004e6c87 f   nafxcwd:array_o.obj
 0001:000e5d96       ?Serialize@CObArray@@UAEXAAVCArchive@@@Z 004e6d96 f   nafxcwd:array_o.obj
 0001:000e5e64       ?Dump@CObArray@@UBEXAAVCDumpContext@@@Z 004e6e64 f   nafxcwd:array_o.obj
 0001:000e5f16       ?AssertValid@CObArray@@UBEXXZ 004e6f16 f   nafxcwd:array_o.obj
 0001:000e6030       ??_ECObArray@@UAEPAXI@Z    004e7030 f i nafxcwd:array_o.obj
 0001:000e6030       ??_GCObArray@@UAEPAXI@Z    004e7030 f i nafxcwd:array_o.obj
 0001:000e6060       ??0CPtrList@@QAE@H@Z       004e7060 f   nafxcwd:list_p.obj
 0001:000e610c       ?RemoveAll@CPtrList@@QAEXXZ 004e710c f   nafxcwd:list_p.obj
 0001:000e6164       ??1CPtrList@@UAE@XZ        004e7164 f   nafxcwd:list_p.obj
 0001:000e61db       ?NewNode@CPtrList@@IAEPAUCNode@1@PAU21@0@Z 004e71db f   nafxcwd:list_p.obj
 0001:000e62f0       ?FreeNode@CPtrList@@IAEXPAUCNode@1@@Z 004e72f0 f   nafxcwd:list_p.obj
 0001:000e6357       ?AddHead@CPtrList@@QAEPAU__POSITION@@PAX@Z 004e7357 f   nafxcwd:list_p.obj
 0001:000e63c2       ?AddTail@CPtrList@@QAEPAU__POSITION@@PAX@Z 004e73c2 f   nafxcwd:list_p.obj
 0001:000e642c       ?AddHead@CPtrList@@QAEXPAV1@@Z 004e742c f   nafxcwd:list_p.obj
 0001:000e64dc       ?AddTail@CPtrList@@QAEXPAV1@@Z 004e74dc f   nafxcwd:list_p.obj
 0001:000e658c       ?RemoveHead@CPtrList@@QAEPAXXZ 004e758c f   nafxcwd:list_p.obj
 0001:000e6651       ?RemoveTail@CPtrList@@QAEPAXXZ 004e7651 f   nafxcwd:list_p.obj
 0001:000e6716       ?InsertBefore@CPtrList@@QAEPAU__POSITION@@PAU2@PAX@Z 004e7716 f   nafxcwd:list_p.obj
 0001:000e67f8       ?InsertAfter@CPtrList@@QAEPAU__POSITION@@PAU2@PAX@Z 004e77f8 f   nafxcwd:list_p.obj
 0001:000e6901       ?RemoveAt@CPtrList@@QAEXPAU__POSITION@@@Z 004e7901 f   nafxcwd:list_p.obj
 0001:000e6a0d       ?FindIndex@CPtrList@@QBEPAU__POSITION@@H@Z 004e7a0d f   nafxcwd:list_p.obj
 0001:000e6a9b       ?Find@CPtrList@@QBEPAU__POSITION@@PAXPAU2@@Z 004e7a9b f   nafxcwd:list_p.obj
 0001:000e6b31       ?Dump@CPtrList@@UBEXAAVCDumpContext@@@Z 004e7b31 f   nafxcwd:list_p.obj
 0001:000e6bc0       ?AssertValid@CPtrList@@UBEXXZ 004e7bc0 f   nafxcwd:list_p.obj
 0001:000e6c90       ??_GCPtrList@@UAEPAXI@Z    004e7c90 f i nafxcwd:list_p.obj
 0001:000e6c90       ??_ECPtrList@@UAEPAXI@Z    004e7c90 f i nafxcwd:list_p.obj
 0001:000e6cc0       ??0CObList@@QAE@H@Z        004e7cc0 f   nafxcwd:list_o.obj
 0001:000e6d6c       ?RemoveAll@CObList@@QAEXXZ 004e7d6c f   nafxcwd:list_o.obj
 0001:000e6dc4       ??1CObList@@UAE@XZ         004e7dc4 f   nafxcwd:list_o.obj
 0001:000e6e3b       ?NewNode@CObList@@IAEPAUCNode@1@PAU21@0@Z 004e7e3b f   nafxcwd:list_o.obj
 0001:000e6f50       ?FreeNode@CObList@@IAEXPAUCNode@1@@Z 004e7f50 f   nafxcwd:list_o.obj
 0001:000e6fb7       ?AddHead@CObList@@QAEPAU__POSITION@@PAVCObject@@@Z 004e7fb7 f   nafxcwd:list_o.obj
 0001:000e7022       ?AddTail@CObList@@QAEPAU__POSITION@@PAVCObject@@@Z 004e8022 f   nafxcwd:list_o.obj
 0001:000e708c       ?AddHead@CObList@@QAEXPAV1@@Z 004e808c f   nafxcwd:list_o.obj
 0001:000e713c       ?AddTail@CObList@@QAEXPAV1@@Z 004e813c f   nafxcwd:list_o.obj
 0001:000e71ec       ?RemoveHead@CObList@@QAEPAVCObject@@XZ 004e81ec f   nafxcwd:list_o.obj
 0001:000e72b1       ?RemoveTail@CObList@@QAEPAVCObject@@XZ 004e82b1 f   nafxcwd:list_o.obj
 0001:000e7376       ?InsertBefore@CObList@@QAEPAU__POSITION@@PAU2@PAVCObject@@@Z 004e8376 f   nafxcwd:list_o.obj
 0001:000e7458       ?InsertAfter@CObList@@QAEPAU__POSITION@@PAU2@PAVCObject@@@Z 004e8458 f   nafxcwd:list_o.obj
 0001:000e7561       ?RemoveAt@CObList@@QAEXPAU__POSITION@@@Z 004e8561 f   nafxcwd:list_o.obj
 0001:000e766d       ?FindIndex@CObList@@QBEPAU__POSITION@@H@Z 004e866d f   nafxcwd:list_o.obj
 0001:000e76fb       ?Find@CObList@@QBEPAU__POSITION@@PAVCObject@@PAU2@@Z 004e86fb f   nafxcwd:list_o.obj
 0001:000e7791       ?Serialize@CObList@@UAEXAAVCArchive@@@Z 004e8791 f   nafxcwd:list_o.obj
 0001:000e786e       ?Dump@CObList@@UBEXAAVCDumpContext@@@Z 004e886e f   nafxcwd:list_o.obj
 0001:000e78fd       ?AssertValid@CObList@@UBEXXZ 004e88fd f   nafxcwd:list_o.obj
 0001:000e79d0       ??_GCObList@@UAEPAXI@Z     004e89d0 f i nafxcwd:list_o.obj
 0001:000e79d0       ??_ECObList@@UAEPAXI@Z     004e89d0 f i nafxcwd:list_o.obj
 0001:000ea5c0       ??0CMapWordToPtr@@QAE@H@Z  004eb5c0 f   nafxcwd:map_wp.obj
 0001:000ea66c       ?InitHashTable@CMapWordToPtr@@QAEXIH@Z 004eb66c f   nafxcwd:map_wp.obj
 0001:000ea73f       ?RemoveAll@CMapWordToPtr@@QAEXXZ 004eb73f f   nafxcwd:map_wp.obj
 0001:000ea7ad       ??1CMapWordToPtr@@UAE@XZ   004eb7ad f   nafxcwd:map_wp.obj
 0001:000ea824       ?NewAssoc@CMapWordToPtr@@IAEPAUCAssoc@1@XZ 004eb824 f   nafxcwd:map_wp.obj
 0001:000ea932       ?FreeAssoc@CMapWordToPtr@@IAEXPAUCAssoc@1@@Z 004eb932 f   nafxcwd:map_wp.obj
 0001:000ea99c       ?GetAssocAt@CMapWordToPtr@@IBEPAUCAssoc@1@GAAI@Z 004eb99c f   nafxcwd:map_wp.obj
 0001:000eaa12       ?Lookup@CMapWordToPtr@@QBEHGAAPAX@Z 004eba12 f   nafxcwd:map_wp.obj
 0001:000eaa62       ??ACMapWordToPtr@@QAEAAPAXG@Z 004eba62 f   nafxcwd:map_wp.obj
 0001:000eaaf4       ?RemoveKey@CMapWordToPtr@@QAEHG@Z 004ebaf4 f   nafxcwd:map_wp.obj
 0001:000eab98       ?GetNextAssoc@CMapWordToPtr@@QBEXAAPAU__POSITION@@AAGAAPAX@Z 004ebb98 f   nafxcwd:map_wp.obj
 0001:000ead0d       ?Dump@CMapWordToPtr@@UBEXAAVCDumpContext@@@Z 004ebd0d f   nafxcwd:map_wp.obj
 0001:000eadbf       ?AssertValid@CMapWordToPtr@@UBEXXZ 004ebdbf f   nafxcwd:map_wp.obj
 0001:000eae30       ??_GCMapWordToPtr@@UAEPAXI@Z 004ebe30 f i nafxcwd:map_wp.obj
 0001:000eae30       ??_ECMapWordToPtr@@UAEPAXI@Z 004ebe30 f i nafxcwd:map_wp.obj
 0001:000eae60       ?HashKey@CMapWordToPtr@@QBEIG@Z 004ebe60 f i nafxcwd:map_wp.obj
 0001:000eae80       ??0CMapPtrToWord@@QAE@H@Z  004ebe80 f   nafxcwd:map_pw.obj
 0001:000eaf2c       ?InitHashTable@CMapPtrToWord@@QAEXIH@Z 004ebf2c f   nafxcwd:map_pw.obj
 0001:000eafff       ?RemoveAll@CMapPtrToWord@@QAEXXZ 004ebfff f   nafxcwd:map_pw.obj
 0001:000eb06d       ??1CMapPtrToWord@@UAE@XZ   004ec06d f   nafxcwd:map_pw.obj
 0001:000eb0e4       ?NewAssoc@CMapPtrToWord@@IAEPAUCAssoc@1@XZ 004ec0e4 f   nafxcwd:map_pw.obj
 0001:000eb1f2       ?FreeAssoc@CMapPtrToWord@@IAEXPAUCAssoc@1@@Z 004ec1f2 f   nafxcwd:map_pw.obj
 0001:000eb25c       ?GetAssocAt@CMapPtrToWord@@IBEPAUCAssoc@1@PAXAAI@Z 004ec25c f   nafxcwd:map_pw.obj
 0001:000eb2c6       ?Lookup@CMapPtrToWord@@QBEHPAXAAG@Z 004ec2c6 f   nafxcwd:map_pw.obj
 0001:000eb317       ??ACMapPtrToWord@@QAEAAGPAX@Z 004ec317 f   nafxcwd:map_pw.obj
 0001:000eb3a6       ?RemoveKey@CMapPtrToWord@@QAEHPAX@Z 004ec3a6 f   nafxcwd:map_pw.obj
 0001:000eb43f       ?GetNextAssoc@CMapPtrToWord@@QBEXAAPAU__POSITION@@AAPAXAAG@Z 004ec43f f   nafxcwd:map_pw.obj
 0001:000eb5b3       ?Dump@CMapPtrToWord@@UBEXAAVCDumpContext@@@Z 004ec5b3 f   nafxcwd:map_pw.obj
 0001:000eb665       ?AssertValid@CMapPtrToWord@@UBEXXZ 004ec665 f   nafxcwd:map_pw.obj
 0001:000eb6d0       ??_ECMapPtrToWord@@UAEPAXI@Z 004ec6d0 f i nafxcwd:map_pw.obj
 0001:000eb6d0       ??_GCMapPtrToWord@@UAEPAXI@Z 004ec6d0 f i nafxcwd:map_pw.obj
 0001:000eb700       ?HashKey@CMapPtrToWord@@QBEIPAX@Z 004ec700 f i nafxcwd:map_pw.obj
 0001:000eb720       ??0CMapPtrToPtr@@QAE@H@Z   004ec720 f   nafxcwd:map_pp.obj
 0001:000eb7cc       ?InitHashTable@CMapPtrToPtr@@QAEXIH@Z 004ec7cc f   nafxcwd:map_pp.obj
 0001:000eb89f       ?RemoveAll@CMapPtrToPtr@@QAEXXZ 004ec89f f   nafxcwd:map_pp.obj
 0001:000eb90d       ??1CMapPtrToPtr@@UAE@XZ    004ec90d f   nafxcwd:map_pp.obj
 0001:000eb984       ?NewAssoc@CMapPtrToPtr@@IAEPAUCAssoc@1@XZ 004ec984 f   nafxcwd:map_pp.obj
 0001:000eba93       ?FreeAssoc@CMapPtrToPtr@@IAEXPAUCAssoc@1@@Z 004eca93 f   nafxcwd:map_pp.obj
 0001:000ebafd       ?GetAssocAt@CMapPtrToPtr@@IBEPAUCAssoc@1@PAXAAI@Z 004ecafd f   nafxcwd:map_pp.obj
 0001:000ebb67       ?GetValueAt@CMapPtrToPtr@@QBEPAXPAX@Z 004ecb67 f   nafxcwd:map_pp.obj
 0001:000ebbd0       ?Lookup@CMapPtrToPtr@@QBEHPAXAAPAX@Z 004ecbd0 f   nafxcwd:map_pp.obj
 0001:000ebc1f       ??ACMapPtrToPtr@@QAEAAPAXPAX@Z 004ecc1f f   nafxcwd:map_pp.obj
 0001:000ebcae       ?RemoveKey@CMapPtrToPtr@@QAEHPAX@Z 004eccae f   nafxcwd:map_pp.obj
 0001:000ebd47       ?GetNextAssoc@CMapPtrToPtr@@QBEXAAPAU__POSITION@@AAPAX1@Z 004ecd47 f   nafxcwd:map_pp.obj
 0001:000ebeb9       ?Dump@CMapPtrToPtr@@UBEXAAVCDumpContext@@@Z 004eceb9 f   nafxcwd:map_pp.obj
 0001:000ebf6a       ?AssertValid@CMapPtrToPtr@@UBEXXZ 004ecf6a f   nafxcwd:map_pp.obj
 0001:000ebfe0       ??_GCMapPtrToPtr@@UAEPAXI@Z 004ecfe0 f i nafxcwd:map_pp.obj
 0001:000ebfe0       ??_ECMapPtrToPtr@@UAEPAXI@Z 004ecfe0 f i nafxcwd:map_pp.obj
 0001:000ec010       ?HashKey@CMapPtrToPtr@@QBEIPAX@Z 004ed010 f i nafxcwd:map_pp.obj
 0001:000ec030       ??0CMapWordToOb@@QAE@H@Z   004ed030 f   nafxcwd:map_wo.obj
 0001:000ec0dc       ?InitHashTable@CMapWordToOb@@QAEXIH@Z 004ed0dc f   nafxcwd:map_wo.obj
 0001:000ec1af       ?RemoveAll@CMapWordToOb@@QAEXXZ 004ed1af f   nafxcwd:map_wo.obj
 0001:000ec21d       ??1CMapWordToOb@@UAE@XZ    004ed21d f   nafxcwd:map_wo.obj
 0001:000ec294       ?NewAssoc@CMapWordToOb@@IAEPAUCAssoc@1@XZ 004ed294 f   nafxcwd:map_wo.obj
 0001:000ec3a2       ?FreeAssoc@CMapWordToOb@@IAEXPAUCAssoc@1@@Z 004ed3a2 f   nafxcwd:map_wo.obj
 0001:000ec40c       ?GetAssocAt@CMapWordToOb@@IBEPAUCAssoc@1@GAAI@Z 004ed40c f   nafxcwd:map_wo.obj
 0001:000ec482       ?Lookup@CMapWordToOb@@QBEHGAAPAVCObject@@@Z 004ed482 f   nafxcwd:map_wo.obj
 0001:000ec4d2       ??ACMapWordToOb@@QAEAAPAVCObject@@G@Z 004ed4d2 f   nafxcwd:map_wo.obj
 0001:000ec564       ?RemoveKey@CMapWordToOb@@QAEHG@Z 004ed564 f   nafxcwd:map_wo.obj
 0001:000ec608       ?GetNextAssoc@CMapWordToOb@@QBEXAAPAU__POSITION@@AAGAAPAVCObject@@@Z 004ed608 f   nafxcwd:map_wo.obj
 0001:000ec77d       ?Serialize@CMapWordToOb@@UAEXAAVCArchive@@@Z 004ed77d f   nafxcwd:map_wo.obj
 0001:000ec8aa       ?Dump@CMapWordToOb@@UBEXAAVCDumpContext@@@Z 004ed8aa f   nafxcwd:map_wo.obj
 0001:000ec95c       ?AssertValid@CMapWordToOb@@UBEXXZ 004ed95c f   nafxcwd:map_wo.obj
 0001:000ec9d0       ??_ECMapWordToOb@@UAEPAXI@Z 004ed9d0 f i nafxcwd:map_wo.obj
 0001:000ec9d0       ??_GCMapWordToOb@@UAEPAXI@Z 004ed9d0 f i nafxcwd:map_wo.obj
 0001:000eca00       ?HashKey@CMapWordToOb@@QBEIG@Z 004eda00 f i nafxcwd:map_wo.obj
 0001:000eca20       ??0CMapStringToPtr@@QAE@H@Z 004eda20 f   nafxcwd:map_sp.obj
 0001:000ecacc       ?InitHashTable@CMapStringToPtr@@QAEXIH@Z 004edacc f   nafxcwd:map_sp.obj
 0001:000ecb9f       ?RemoveAll@CMapStringToPtr@@QAEXXZ 004edb9f f   nafxcwd:map_sp.obj
 0001:000ecc6b       ??1CMapStringToPtr@@UAE@XZ 004edc6b f   nafxcwd:map_sp.obj
 0001:000ecce2       ?NewAssoc@CMapStringToPtr@@IAEPAUCAssoc@1@XZ 004edce2 f   nafxcwd:map_sp.obj
 0001:000ece00       ?FreeAssoc@CMapStringToPtr@@IAEXPAUCAssoc@1@@Z 004ede00 f   nafxcwd:map_sp.obj
 0001:000ece79       ?GetAssocAt@CMapStringToPtr@@IBEPAUCAssoc@1@PBDAAI@Z 004ede79 f   nafxcwd:map_sp.obj
 0001:000ecef1       ?Lookup@CMapStringToPtr@@QBEHPBDAAPAX@Z 004edef1 f   nafxcwd:map_sp.obj
 0001:000ecf40       ?LookupKey@CMapStringToPtr@@QBEHPBDAAPBD@Z 004edf40 f   nafxcwd:map_sp.obj
 0001:000ecf94       ??ACMapStringToPtr@@QAEAAPAXPBD@Z 004edf94 f   nafxcwd:map_sp.obj
 0001:000ed032       ?RemoveKey@CMapStringToPtr@@QAEHPBD@Z 004ee032 f   nafxcwd:map_sp.obj
 0001:000ed0d9       ?GetNextAssoc@CMapStringToPtr@@QBEXAAPAU__POSITION@@AAVCString@@AAPAX@Z 004ee0d9 f   nafxcwd:map_sp.obj
 0001:000ed23e       ?Dump@CMapStringToPtr@@UBEXAAVCDumpContext@@@Z 004ee23e f   nafxcwd:map_sp.obj
 0001:000ed32b       ?AssertValid@CMapStringToPtr@@UBEXXZ 004ee32b f   nafxcwd:map_sp.obj
 0001:000ed3a0       ??_ECMapStringToPtr@@UAEPAXI@Z 004ee3a0 f i nafxcwd:map_sp.obj
 0001:000ed3a0       ??_GCMapStringToPtr@@UAEPAXI@Z 004ee3a0 f i nafxcwd:map_sp.obj
 0001:000ed3d0       ?HashKey@CMapStringToPtr@@QBEIPBD@Z 004ee3d0 f i nafxcwd:map_sp.obj
 0001:000ed420       ??0CMapStringToOb@@QAE@H@Z 004ee420 f   nafxcwd:map_so.obj
 0001:000ed4cc       ?InitHashTable@CMapStringToOb@@QAEXIH@Z 004ee4cc f   nafxcwd:map_so.obj
 0001:000ed59f       ?RemoveAll@CMapStringToOb@@QAEXXZ 004ee59f f   nafxcwd:map_so.obj
 0001:000ed66b       ??1CMapStringToOb@@UAE@XZ  004ee66b f   nafxcwd:map_so.obj
 0001:000ed6e2       ?NewAssoc@CMapStringToOb@@IAEPAUCAssoc@1@XZ 004ee6e2 f   nafxcwd:map_so.obj
 0001:000ed800       ?FreeAssoc@CMapStringToOb@@IAEXPAUCAssoc@1@@Z 004ee800 f   nafxcwd:map_so.obj
 0001:000ed879       ?GetAssocAt@CMapStringToOb@@IBEPAUCAssoc@1@PBDAAI@Z 004ee879 f   nafxcwd:map_so.obj
 0001:000ed8f1       ?Lookup@CMapStringToOb@@QBEHPBDAAPAVCObject@@@Z 004ee8f1 f   nafxcwd:map_so.obj
 0001:000ed940       ?LookupKey@CMapStringToOb@@QBEHPBDAAPBD@Z 004ee940 f   nafxcwd:map_so.obj
 0001:000ed994       ??ACMapStringToOb@@QAEAAPAVCObject@@PBD@Z 004ee994 f   nafxcwd:map_so.obj
 0001:000eda32       ?RemoveKey@CMapStringToOb@@QAEHPBD@Z 004eea32 f   nafxcwd:map_so.obj
 0001:000edad9       ?GetNextAssoc@CMapStringToOb@@QBEXAAPAU__POSITION@@AAVCString@@AAPAVCObject@@@Z 004eead9 f   nafxcwd:map_so.obj
 0001:000edc3e       ?Serialize@CMapStringToOb@@UAEXAAVCArchive@@@Z 004eec3e f   nafxcwd:map_so.obj
 0001:000eddad       ?Dump@CMapStringToOb@@UBEXAAVCDumpContext@@@Z 004eedad f   nafxcwd:map_so.obj
 0001:000ede9a       ?AssertValid@CMapStringToOb@@UBEXXZ 004eee9a f   nafxcwd:map_so.obj
 0001:000edf10       ??_ECMapStringToOb@@UAEPAXI@Z 004eef10 f i nafxcwd:map_so.obj
 0001:000edf10       ??_GCMapStringToOb@@UAEPAXI@Z 004eef10 f i nafxcwd:map_so.obj
 0001:000edf40       ?HashKey@CMapStringToOb@@QBEIPBD@Z 004eef40 f i nafxcwd:map_so.obj
 0001:000edf90       ??0CMapStringToString@@QAE@H@Z 004eef90 f   nafxcwd:map_ss.obj
 0001:000ee03c       ?InitHashTable@CMapStringToString@@QAEXIH@Z 004ef03c f   nafxcwd:map_ss.obj
 0001:000ee10f       ?RemoveAll@CMapStringToString@@QAEXXZ 004ef10f f   nafxcwd:map_ss.obj
 0001:000ee1ea       ??1CMapStringToString@@UAE@XZ 004ef1ea f   nafxcwd:map_ss.obj
 0001:000ee261       ?NewAssoc@CMapStringToString@@IAEPAUCAssoc@1@XZ 004ef261 f   nafxcwd:map_ss.obj
 0001:000ee39c       ?FreeAssoc@CMapStringToString@@IAEXPAUCAssoc@1@@Z 004ef39c f   nafxcwd:map_ss.obj
 0001:000ee424       ?GetAssocAt@CMapStringToString@@IBEPAUCAssoc@1@PBDAAI@Z 004ef424 f   nafxcwd:map_ss.obj
 0001:000ee49c       ?Lookup@CMapStringToString@@QBEHPBDAAVCString@@@Z 004ef49c f   nafxcwd:map_ss.obj
 0001:000ee4ef       ?LookupKey@CMapStringToString@@QBEHPBDAAPBD@Z 004ef4ef f   nafxcwd:map_ss.obj
 0001:000ee543       ??ACMapStringToString@@QAEAAVCString@@PBD@Z 004ef543 f   nafxcwd:map_ss.obj
 0001:000ee5e1       ?RemoveKey@CMapStringToString@@QAEHPBD@Z 004ef5e1 f   nafxcwd:map_ss.obj
 0001:000ee688       ?GetNextAssoc@CMapStringToString@@QBEXAAPAU__POSITION@@AAVCString@@1@Z 004ef688 f   nafxcwd:map_ss.obj
 0001:000ee7f1       ?Serialize@CMapStringToString@@UAEXAAVCArchive@@@Z 004ef7f1 f   nafxcwd:map_ss.obj
 0001:000ee980       ?Dump@CMapStringToString@@UBEXAAVCDumpContext@@@Z 004ef980 f   nafxcwd:map_ss.obj
 0001:000eea88       ?AssertValid@CMapStringToString@@UBEXXZ 004efa88 f   nafxcwd:map_ss.obj
 0001:000eeaf0       ??_ECMapStringToString@@UAEPAXI@Z 004efaf0 f i nafxcwd:map_ss.obj
 0001:000eeaf0       ??_GCMapStringToString@@UAEPAXI@Z 004efaf0 f i nafxcwd:map_ss.obj
 0001:000eeb20       ?HashKey@CMapStringToString@@QBEIPBD@Z 004efb20 f i nafxcwd:map_ss.obj
 0001:000f0cd0       ??2CObject@@SGPAXI@Z       004f1cd0 f   nafxcwd:afxmem.obj
 0001:000f0ce9       ??3CObject@@SGXPAX@Z       004f1ce9 f   nafxcwd:afxmem.obj
 0001:000f0cfe       ??3CObject@@SGXPAX0@Z      004f1cfe f   nafxcwd:afxmem.obj
 0001:000f0d13       ??2@YAPAXIPBDH@Z           004f1d13 f   nafxcwd:afxmem.obj
 0001:000f0d2e       ??3@YAXPAXPBDH@Z           004f1d2e f   nafxcwd:afxmem.obj
 0001:000f0d3f       ??2CObject@@SGPAXIPBDH@Z   004f1d3f f   nafxcwd:afxmem.obj
 0001:000f0d5c       ??3CObject@@SGXPAXPBDH@Z   004f1d5c f   nafxcwd:afxmem.obj
 0001:000f0d71       ?AfxAllocMemoryDebug@@YGPAXIHPBDH@Z 004f1d71 f   nafxcwd:afxmem.obj
 0001:000f0d9a       ?AfxFreeMemoryDebug@@YGXPAXH@Z 004f1d9a f   nafxcwd:afxmem.obj
 0001:000f0dbb       ?_AfxDefaultAllocHook@@YGHIHJ@Z 004f1dbb f   nafxcwd:afxmem.obj
 0001:000f0dc7       ?_AfxAllocHookProxy@@YAHHPAXIHJPBEH@Z 004f1dc7 f   nafxcwd:afxmem.obj
 0001:000f0e46       ?AfxSetAllocHook@@YGP6GHIHJ@ZP6GHIHJ@Z@Z 004f1e46 f   nafxcwd:afxmem.obj
 0001:000f0e7f       ?AfxEnableMemoryTracking@@YGHH@Z 004f1e7f f   nafxcwd:afxmem.obj
 0001:000f0ed1       ?AfxSetAllocStop@@YGXJ@Z   004f1ed1 f   nafxcwd:afxmem.obj
 0001:000f0ee4       ?AfxCheckMemory@@YGHXZ     004f1ee4 f   nafxcwd:afxmem.obj
 0001:000f0eee       ?AfxIsMemoryBlock@@YGHPBXIPAJ@Z 004f1eee f   nafxcwd:afxmem.obj
 0001:000f0f0d       ??0CMemoryState@@QAE@XZ    004f1f0d f   nafxcwd:afxmem.obj
 0001:000f0f2b       ?UpdateData@CMemoryState@@QAEXXZ 004f1f2b f   nafxcwd:afxmem.obj
 0001:000f0f94       ?Difference@CMemoryState@@QAEHABU1@0@Z 004f1f94 f   nafxcwd:afxmem.obj
 0001:000f0fcb       ?DumpStatistics@CMemoryState@@QBEXXZ 004f1fcb f   nafxcwd:afxmem.obj
 0001:000f0fe2       ?Checkpoint@CMemoryState@@QAEXXZ 004f1fe2 f   nafxcwd:afxmem.obj
 0001:000f1001       ?DumpAllObjectsSince@CMemoryState@@QBEXXZ 004f2001 f   nafxcwd:afxmem.obj
 0001:000f1018       ?_AfxDoForAllObjectsProxy@@YAXPAX0@Z 004f2018 f   nafxcwd:afxmem.obj
 0001:000f1039       ?AfxDoForAllObjects@@YGXP6AXPAVCObject@@PAX@Z1@Z 004f2039 f   nafxcwd:afxmem.obj
 0001:000f1062       ?AfxDumpMemoryLeaks@@YGHXZ 004f2062 f   nafxcwd:afxmem.obj
 0001:000f106c       ?AfxNewHandler@@YAHI@Z     004f206c f   nafxcwd:afxmem.obj
 0001:000f1078       ?AfxGetNewHandler@@YGP6AHI@ZXZ 004f2078 f   nafxcwd:afxmem.obj
 0001:000f1082       ?AfxSetNewHandler@@YGP6AHI@ZP6AHI@Z@Z 004f2082 f   nafxcwd:afxmem.obj
 0001:000f10a0       ??2@YAPAXI@Z               004f20a0 f   nafxcwd:afxmem.obj
 0001:000f10e9       ??3@YAXPAX@Z               004f20e9 f   nafxcwd:afxmem.obj
 0001:000f10fc       ??2@YAPAXIHPBDH@Z          004f20fc f   nafxcwd:afxmem.obj
 0001:000f1150       ?IsDirSep@@YAHD@Z          004f2150 f i nafxcwd:filecore.obj
 0001:000f1180       ??0CFile@@QAE@XZ           004f2180 f   nafxcwd:filecore.obj
 0001:000f11eb       ??0CFile@@QAE@H@Z          004f21eb f   nafxcwd:filecore.obj
 0001:000f1257       ??0CFile@@QAE@PBDI@Z       004f2257 f   nafxcwd:filecore.obj
 0001:000f132e       ??1CFile@@UAE@XZ           004f232e f   nafxcwd:filecore.obj
 0001:000f13a0       ?Duplicate@CFile@@UBEPAV1@XZ 004f23a0 f   nafxcwd:filecore.obj
 0001:000f14e3       ?Open@CFile@@UAEHPBDIPAVCFileException@@@Z 004f24e3 f   nafxcwd:filecore.obj
 0001:000f1845       ?Read@CFile@@UAEIPAXI@Z    004f2845 f   nafxcwd:filecore.obj
 0001:000f1917       ?Write@CFile@@UAEXPBXI@Z   004f2917 f   nafxcwd:filecore.obj
 0001:000f1a0e       ?Seek@CFile@@UAEJJI@Z      004f2a0e f   nafxcwd:filecore.obj
 0001:000f1ac3       ?GetPosition@CFile@@UBEKXZ 004f2ac3 f   nafxcwd:filecore.obj
 0001:000f1b39       ?Flush@CFile@@UAEXXZ       004f2b39 f   nafxcwd:filecore.obj
 0001:000f1b81       ?Close@CFile@@UAEXXZ       004f2b81 f   nafxcwd:filecore.obj
 0001:000f1c22       ?Abort@CFile@@UAEXXZ       004f2c22 f   nafxcwd:filecore.obj
 0001:000f1c6b       ?LockRange@CFile@@UAEXKK@Z 004f2c6b f   nafxcwd:filecore.obj
 0001:000f1cdf       ?UnlockRange@CFile@@UAEXKK@Z 004f2cdf f   nafxcwd:filecore.obj
 0001:000f1d53       ?SetLength@CFile@@UAEXK@Z  004f2d53 f   nafxcwd:filecore.obj
 0001:000f1dcc       ?GetLength@CFile@@UBEKXZ   004f2dcc f   nafxcwd:filecore.obj
 0001:000f1e48       ?GetBufferPtr@CFile@@UAEIIIPAPAX0@Z 004f2e48 f   nafxcwd:filecore.obj
 0001:000f1e7d       ?Rename@CFile@@SGXPBD0@Z   004f2e7d f   nafxcwd:filecore.obj
 0001:000f1ea4       ?Remove@CFile@@SGXPBD@Z    004f2ea4 f   nafxcwd:filecore.obj
 0001:000f1ec7       ?CreateInstance@AFX_COM@@QAEJABU_GUID@@PAUIUnknown@@0PAPAX@Z 004f2ec7 f   nafxcwd:filecore.obj
 0001:000f1f50       ?GetClassObject@AFX_COM@@QAEJABU_GUID@@0PAPAX@Z 004f2f50 f   nafxcwd:filecore.obj
 0001:000f209c       ?AfxStringFromCLSID@@YG?AVCString@@ABU_GUID@@@Z 004f309c f   nafxcwd:filecore.obj
 0001:000f214c       ?AfxGetInProcServer@@YGHPBDAAVCString@@@Z 004f314c f   nafxcwd:filecore.obj
 0001:000f222b       ?AfxResolveShortcut@@YGHPAVCWnd@@PBDPADH@Z 004f322b f   nafxcwd:filecore.obj
 0001:000f23cf       ?AfxFullPath@@YGHPADPBD@Z  004f33cf f   nafxcwd:filecore.obj
 0001:000f2574       ?AfxGetRoot@@YGXPBDAAVCString@@@Z 004f3574 f   nafxcwd:filecore.obj
 0001:000f276a       ?AfxComparePath@@YGHPBD0@Z 004f376a f   nafxcwd:filecore.obj
 0001:000f29af       ?AfxGetFileTitle@@YGIPBDPADI@Z 004f39af f   nafxcwd:filecore.obj
 0001:000f2a94       ?AfxGetModuleShortFileName@@YGXPAUHINSTANCE__@@AAVCString@@@Z 004f3a94 f   nafxcwd:filecore.obj
 0001:000f2af6       ?AssertValid@CFile@@UBEXXZ 004f3af6 f   nafxcwd:filecore.obj
 0001:000f2b09       ?Dump@CFile@@UBEXAAVCDumpContext@@@Z 004f3b09 f   nafxcwd:filecore.obj
 0001:000f2b70       ??_GCFile@@UAEPAXI@Z       004f3b70 f i nafxcwd:filecore.obj
 0001:000f2b70       ??_ECFile@@UAEPAXI@Z       004f3b70 f i nafxcwd:filecore.obj
 0001:000f2ba0       ?AfxGetEmptyString@@YGABVCString@@XZ 004f3ba0 f   nafxcwd:strcore.obj
 0001:000f2baa       ??0CString@@QAE@ABV0@@Z    004f3baa f   nafxcwd:strcore.obj
 0001:000f2c49       ?AllocBuffer@CString@@IAEXH@Z 004f3c49 f   nafxcwd:strcore.obj
 0001:000f2d01       ?FreeData@CString@@KIXPAUCStringData@@@Z 004f3d01 f   nafxcwd:strcore.obj
 0001:000f2d20       ?Release@CString@@IAEXXZ   004f3d20 f   nafxcwd:strcore.obj
 0001:000f2d92       ?Release@CString@@KGXPAUCStringData@@@Z 004f3d92 f   nafxcwd:strcore.obj
 0001:000f2de2       ?Empty@CString@@QAEXXZ     004f3de2 f   nafxcwd:strcore.obj
 0001:000f2e87       ?CopyBeforeWrite@CString@@IAEXXZ 004f3e87 f   nafxcwd:strcore.obj
 0001:000f2f11       ?AllocBeforeWrite@CString@@IAEXH@Z 004f3f11 f   nafxcwd:strcore.obj
 0001:000f2f7c       ??1CString@@QAE@XZ         004f3f7c f   nafxcwd:strcore.obj
 0001:000f2fb9       ?AllocCopy@CString@@IBEXAAV1@HHH@Z 004f3fb9 f   nafxcwd:strcore.obj
 0001:000f3008       ??0CString@@QAE@PBD@Z      004f4008 f   nafxcwd:strcore.obj
 0001:000f309f       ??0CString@@QAE@PBG@Z      004f409f f   nafxcwd:strcore.obj
 0001:000f3115       ??6@YGAAVCDumpContext@@AAV0@ABVCString@@@Z 004f4115 f   nafxcwd:strcore.obj
 0001:000f312d       ?AssignCopy@CString@@IAEXHPBD@Z 004f412d f   nafxcwd:strcore.obj
 0001:000f3176       ??4CString@@QAEABV0@ABV0@@Z 004f4176 f   nafxcwd:strcore.obj
 0001:000f322d       ??4CString@@QAEABV0@PBD@Z  004f422d f   nafxcwd:strcore.obj
 0001:000f3288       ??4CString@@QAEABV0@PBG@Z  004f4288 f   nafxcwd:strcore.obj
 0001:000f32f0       ?ConcatCopy@CString@@IAEXHPBDH0@Z 004f42f0 f   nafxcwd:strcore.obj
 0001:000f3349       ??H@YG?AVCString@@ABV0@0@Z 004f4349 f   nafxcwd:strcore.obj
 0001:000f33da       ??H@YG?AVCString@@ABV0@PBD@Z 004f43da f   nafxcwd:strcore.obj
 0001:000f349c       ??H@YG?AVCString@@PBDABV0@@Z 004f449c f   nafxcwd:strcore.obj
 0001:000f355e       ?ConcatInPlace@CString@@IAEXHPBD@Z 004f455e f   nafxcwd:strcore.obj
 0001:000f3685       ??YCString@@QAEABV0@PBD@Z  004f4685 f   nafxcwd:strcore.obj
 0001:000f36e0       ??YCString@@QAEABV0@D@Z    004f46e0 f   nafxcwd:strcore.obj
 0001:000f36fe       ??YCString@@QAEABV0@ABV0@@Z 004f46fe f   nafxcwd:strcore.obj
 0001:000f3728       ?GetBuffer@CString@@QAEPADH@Z 004f4728 f   nafxcwd:strcore.obj
 0001:000f3863       ?ReleaseBuffer@CString@@QAEXH@Z 004f4863 f   nafxcwd:strcore.obj
 0001:000f38d7       ?GetBufferSetLength@CString@@QAEPADH@Z 004f48d7 f   nafxcwd:strcore.obj
 0001:000f3935       ?FreeExtra@CString@@QAEXXZ 004f4935 f   nafxcwd:strcore.obj
 0001:000f3a34       ?LockBuffer@CString@@QAEPADXZ 004f4a34 f   nafxcwd:strcore.obj
 0001:000f3a5f       ?UnlockBuffer@CString@@QAEXXZ 004f4a5f f   nafxcwd:strcore.obj
 0001:000f3ab5       ?Find@CString@@QBEHD@Z     004f4ab5 f   nafxcwd:strcore.obj
 0001:000f3ad0       ?Find@CString@@QBEHDH@Z    004f4ad0 f   nafxcwd:strcore.obj
 0001:000f3b35       ?FindOneOf@CString@@QBEHPBD@Z 004f4b35 f   nafxcwd:strcore.obj
 0001:000f3ba5       ?MakeUpper@CString@@QAEXXZ 004f4ba5 f   nafxcwd:strcore.obj
 0001:000f3bc6       ?MakeLower@CString@@QAEXXZ 004f4bc6 f   nafxcwd:strcore.obj
 0001:000f3be7       ?MakeReverse@CString@@QAEXXZ 004f4be7 f   nafxcwd:strcore.obj
 0001:000f3c08       ?SetAt@CString@@QAEXHD@Z   004f4c08 f   nafxcwd:strcore.obj
 0001:000f3c7b       ?CharToOemA@CString@@QAEXXZ 004f4c7b f   nafxcwd:strcore.obj
 0001:000f3ca0       ?OemToCharA@CString@@QAEXXZ 004f4ca0 f   nafxcwd:strcore.obj
 0001:000f3cc5       ?_wcstombsz@@YAHPADPBGI@Z  004f4cc5 f   nafxcwd:strcore.obj
 0001:000f3d3d       ?_mbstowcsz@@YAHPAGPBDI@Z  004f4d3d f   nafxcwd:strcore.obj
 0001:000f3db4       ?AfxA2WHelper@@YGPAGPAGPBDH@Z 004f4db4 f   nafxcwd:strcore.obj
 0001:000f3e2c       ?AfxW2AHelper@@YGPADPADPBGH@Z 004f4e2c f   nafxcwd:strcore.obj
 0001:000f4047       ??0CWnd@@QAE@XZ            004f5047 f   nafxcwd:wincore.obj
 0001:000f4079       ??0CWnd@@AAE@PAUHWND__@@@Z 004f5079 f   nafxcwd:wincore.obj
 0001:000f40b6       ?_AfxModifyStyle@@YGHPAUHWND__@@HKKI@Z 004f50b6 f   nafxcwd:wincore.obj
 0001:000f4149       ?ModifyStyle@CWnd@@SGHPAUHWND__@@KKI@Z 004f5149 f   nafxcwd:wincore.obj
 0001:000f4167       ?ModifyStyleEx@CWnd@@SGHPAUHWND__@@KKI@Z 004f5167 f   nafxcwd:wincore.obj
 0001:000f4185       ?_AfxPreInitDialog@@YGXPAVCWnd@@PAUtagRECT@@PAK@Z 004f5185 f   nafxcwd:wincore.obj
 0001:000f41e5       ?_AfxPostInitDialog@@YGXPAVCWnd@@ABUtagRECT@@K@Z 004f51e5 f   nafxcwd:wincore.obj
 0001:000f4284       ?_AfxHandleActivate@@YGXPAVCWnd@@I0@Z 004f5284 f   nafxcwd:wincore.obj
 0001:000f4308       ?_AfxHandleSetCursor@@YGHPAVCWnd@@II@Z 004f5308 f   nafxcwd:wincore.obj
 0001:000f437c       ?AfxCallWndProc@@YGJPAVCWnd@@PAUHWND__@@IIJ@Z 004f537c f   nafxcwd:wincore.obj
 0001:000f452c       ?GetCurrentMessage@CWnd@@KGPBUtagMSG@@XZ 004f552c f   nafxcwd:wincore.obj
 0001:000f4572       ?Default@CWnd@@IAEJXZ      004f5572 f   nafxcwd:wincore.obj
 0001:000f45af       ?afxMapHWND@@YGPAVCHandleMap@@H@Z 004f55af f   nafxcwd:wincore.obj
 0001:000f467f       ?FromHandle@CWnd@@SGPAV1@PAUHWND__@@@Z 004f567f f   nafxcwd:wincore.obj
 0001:000f4704       ?FromHandlePermanent@CWnd@@SGPAV1@PAUHWND__@@@Z 004f5704 f   nafxcwd:wincore.obj
 0001:000f476a       ?Attach@CWnd@@QAEHPAUHWND__@@@Z 004f576a f   nafxcwd:wincore.obj
 0001:000f4827       ?Detach@CWnd@@QAEPAUHWND__@@XZ 004f5827 f   nafxcwd:wincore.obj
 0001:000f4879       ?PreSubclassWindow@CWnd@@UAEXXZ 004f5879 f   nafxcwd:wincore.obj
 0001:000f4884       ?AfxWndProc@@YGJPAUHWND__@@IIJ@Z 004f5884 f   nafxcwd:wincore.obj
 0001:000f490e       ?AfxGetAfxWndProc@@YGP6GJPAUHWND__@@IIJ@ZXZ 004f590e f   nafxcwd:wincore.obj
 0001:000f4918       ?_AfxActivationWndProc@@YGJPAUHWND__@@IIJ@Z 004f5918 f   nafxcwd:wincore.obj
 0001:000f4b8e       ?_AfxGrayBackgroundWndProc@@YGJPAUHWND__@@IIJ@Z 004f5b8e f   nafxcwd:wincore.obj
 0001:000f4c21       ?_AfxCbtFilterHook@@YGJHIJ@Z 004f5c21 f   nafxcwd:wincore.obj
 0001:000f502f       ?AfxHookWindowCreate@@YGXPAVCWnd@@@Z 004f602f f   nafxcwd:wincore.obj
 0001:000f5121       ?AfxUnhookWindowCreate@@YGHXZ 004f6121 f   nafxcwd:wincore.obj
 0001:000f5180       ?CreateEx@CWnd@@QAEHKPBD0KABUtagRECT@@PAV1@IPAX@Z 004f6180 f   nafxcwd:wincore.obj
 0001:000f51dc       ?CreateEx@CWnd@@QAEHKPBD0KHHHHPAUHWND__@@PAUHMENU__@@PAX@Z 004f61dc f   nafxcwd:wincore.obj
 0001:000f530a       ?PreCreateWindow@CWnd@@UAEHAAUtagCREATESTRUCTA@@@Z 004f630a f   nafxcwd:wincore.obj
 0001:000f5383       ?Create@CWnd@@UAEHPBD0KABUtagRECT@@PAV1@IPAUCCreateContext@@@Z 004f6383 f   nafxcwd:wincore.obj
 0001:000f542f       ??1CWnd@@UAE@XZ            004f642f f   nafxcwd:wincore.obj
 0001:000f550e       ?OnDestroy@CWnd@@IAEXXZ    004f650e f   nafxcwd:wincore.obj
 0001:000f555b       ?OnNcDestroy@CWnd@@IAEXXZ  004f655b f   nafxcwd:wincore.obj
 0001:000f5727       ?PostNcDestroy@CWnd@@MAEXXZ 004f6727 f   nafxcwd:wincore.obj
 0001:000f5732       ?OnFinalRelease@CWnd@@UAEXXZ 004f6732 f   nafxcwd:wincore.obj
 0001:000f5761       ?AssertValid@CWnd@@UBEXXZ  004f6761 f   nafxcwd:wincore.obj
 0001:000f58e3       ?Dump@CWnd@@UBEXAAVCDumpContext@@@Z 004f68e3 f   nafxcwd:wincore.obj
 0001:000f5af2       ?DestroyWindow@CWnd@@UAEHXZ 004f6af2 f   nafxcwd:wincore.obj
 0001:000f5beb       ?DefWindowProcA@CWnd@@MAEJIIJ@Z 004f6beb f   nafxcwd:wincore.obj
 0001:000f5c76       ?GetSuperWndProcAddr@CWnd@@MAEPAP6GJPAUHWND__@@IIJ@ZXZ 004f6c76 f   nafxcwd:wincore.obj
 0001:000f5c87       ?PreTranslateMessage@CWnd@@UAEHPAUtagMSG@@@Z 004f6c87 f   nafxcwd:wincore.obj
 0001:000f5cbd       ?CancelToolTips@CWnd@@SGXH@Z 004f6cbd f   nafxcwd:wincore.obj
 0001:000f5d31       ?OnToolHitTest@CWnd@@UBEHVCPoint@@PAUtagTOOLINFOA@@@Z 004f6d31 f   nafxcwd:wincore.obj
 0001:000f5df1       ?GetWindowTextA@CWnd@@QBEXAAVCString@@@Z 004f6df1 f   nafxcwd:wincore.obj
 0001:000f5e8f       ?GetDlgItemTextA@CWnd@@QBEHHAAVCString@@@Z 004f6e8f f   nafxcwd:wincore.obj
 0001:000f5f5f       ?GetWindowPlacement@CWnd@@QBEHPAUtagWINDOWPLACEMENT@@@Z 004f6f5f f   nafxcwd:wincore.obj
 0001:000f5fb7       ?SetWindowPlacement@CWnd@@QAEHPBUtagWINDOWPLACEMENT@@@Z 004f6fb7 f   nafxcwd:wincore.obj
 0001:000f600f       ?OnDrawItem@CWnd@@IAEXHPAUtagDRAWITEMSTRUCT@@@Z 004f700f f   nafxcwd:wincore.obj
 0001:000f606a       ?OnCompareItem@CWnd@@IAEHHPAUtagCOMPAREITEMSTRUCT@@@Z 004f706a f   nafxcwd:wincore.obj
 0001:000f609a       ?OnDeleteItem@CWnd@@IAEXHPAUtagDELETEITEMSTRUCT@@@Z 004f709a f   nafxcwd:wincore.obj
 0001:000f60c3       ?OnCharToItem@CWnd@@IAEHIPAVCListBox@@I@Z 004f70c3 f   nafxcwd:wincore.obj
 0001:000f60f5       ?OnVKeyToItem@CWnd@@IAEHIPAVCListBox@@I@Z 004f70f5 f   nafxcwd:wincore.obj
 0001:000f6127       ?TrackPopupMenu@CMenu@@QAEHIHHPAVCWnd@@PBUtagRECT@@@Z 004f7127 f   nafxcwd:wincore.obj
 0001:000f61d1       ?_AfxFindPopupMenuFromID@@YGPAVCMenu@@PAV1@I@Z 004f71d1 f   nafxcwd:wincore.obj
 0001:000f6270       ?OnMeasureItem@CWnd@@IAEXHPAUtagMEASUREITEMSTRUCT@@@Z 004f7270 f   nafxcwd:wincore.obj
 0001:000f635d       ?AfxRegisterClass@@YGHPAUtagWNDCLASSA@@@Z 004f735d f   nafxcwd:wincore.obj
 0001:000f64d8       ?AfxRegisterWndClass@@YGPBDIPAUHICON__@@PAUHBRUSH__@@0@Z 004f74d8 f   nafxcwd:wincore.obj
 0001:000f65e3       ?OnNTCtlColor@CWnd@@IAEJIJ@Z 004f75e3 f   nafxcwd:wincore.obj
 0001:000f6675       ?WinHelpA@CWnd@@UAEXKI@Z   004f7675 f   nafxcwd:wincore.obj
 0001:000f67e8       ?GetMessageMap@CWnd@@MBEPBUAFX_MSGMAP@@XZ 004f77e8 f   nafxcwd:wincore.obj
 0001:000f67f8       ?AfxFindMessageEntry@@YGPBUAFX_MSGMAP_ENTRY@@PBU1@III@Z 004f77f8 f   nafxcwd:wincore.obj
 0001:000f687d       ?AfxResetMsgCache@@YGXXZ   004f787d f   nafxcwd:wincore.obj
 0001:000f6896       ?WindowProc@CWnd@@MAEJIIJ@Z 004f7896 f   nafxcwd:wincore.obj
 0001:000f68ee       ?OnWndMsg@CWnd@@MAEHIIJPAJ@Z 004f78ee f   nafxcwd:wincore.obj
 0001:000f7583       ??0CTestCmdUI@@QAE@XZ      004f8583 f   nafxcwd:wincore.obj
 0001:000f75ac       ?Enable@CTestCmdUI@@UAEXH@Z 004f85ac f   nafxcwd:wincore.obj
 0001:000f75cc       ?SetCheck@CTestCmdUI@@UAEXH@Z 004f85cc f   nafxcwd:wincore.obj
 0001:000f75d9       ?SetRadio@CTestCmdUI@@UAEXH@Z 004f85d9 f   nafxcwd:wincore.obj
 0001:000f75e6       ?SetText@CTestCmdUI@@UAEXPBD@Z 004f85e6 f   nafxcwd:wincore.obj
 0001:000f75f3       ?OnCommand@CWnd@@MAEHIJ@Z  004f85f3 f   nafxcwd:wincore.obj
 0001:000f7734       ?OnNotify@CWnd@@MAEHIJPAJ@Z 004f8734 f   nafxcwd:wincore.obj
 0001:000f7842       ?GetParentFrame@CWnd@@QBEPAVCFrameWnd@@XZ 004f8842 f   nafxcwd:wincore.obj
 0001:000f78a9       ?AfxGetParentOwner@@YGPAUHWND__@@PAU1@@Z 004f88a9 f   nafxcwd:wincore.obj
 0001:000f790e       ?GetTopLevelParent@CWnd@@QBEPAV1@XZ 004f890e f   nafxcwd:wincore.obj
 0001:000f796a       ?GetTopLevelOwner@CWnd@@QBEPAV1@XZ 004f896a f   nafxcwd:wincore.obj
 0001:000f79c9       ?GetParentOwner@CWnd@@QBEPAV1@XZ 004f89c9 f   nafxcwd:wincore.obj
 0001:000f7a3b       ?IsTopParentActive@CWnd@@QBEHXZ 004f8a3b f   nafxcwd:wincore.obj
 0001:000f7aa1       ?ActivateTopParent@CWnd@@QAEXXZ 004f8aa1 f   nafxcwd:wincore.obj
 0001:000f7af5       ?GetTopLevelFrame@CWnd@@QBEPAVCFrameWnd@@XZ 004f8af5 f   nafxcwd:wincore.obj
 0001:000f7b6a       ?GetSafeOwner@CWnd@@SGPAV1@PAV1@PAPAUHWND__@@@Z 004f8b6a f   nafxcwd:wincore.obj
 0001:000f7b92       ?MessageBoxA@CWnd@@QAEHPBD0I@Z 004f8b92 f   nafxcwd:wincore.obj
 0001:000f7bd0       ?GetDescendantWindow@CWnd@@SGPAV1@PAUHWND__@@HH@Z 004f8bd0 f   nafxcwd:wincore.obj
 0001:000f7c91       ?SendMessageToDescendants@CWnd@@SGXPAUHWND__@@IIJHH@Z 004f8c91 f   nafxcwd:wincore.obj
 0001:000f7d49       ?GetScrollBarCtrl@CWnd@@UBEPAVCScrollBar@@H@Z 004f8d49 f   nafxcwd:wincore.obj
 0001:000f7d58       ?SetScrollPos@CWnd@@QAEHHHH@Z 004f8d58 f   nafxcwd:wincore.obj
 0001:000f7daa       ?GetScrollPos@CWnd@@QBEHH@Z 004f8daa f   nafxcwd:wincore.obj
 0001:000f7dec       ?SetScrollRange@CWnd@@QAEXHHHH@Z 004f8dec f   nafxcwd:wincore.obj
 0001:000f7e46       ?GetScrollRange@CWnd@@QBEXHPAH0@Z 004f8e46 f   nafxcwd:wincore.obj
 0001:000f7e98       ?EnableScrollBarCtrl@CWnd@@QAEXHH@Z 004f8e98 f   nafxcwd:wincore.obj
 0001:000f7f01       ?SetScrollInfo@CWnd@@QAEHHPAUtagSCROLLINFO@@H@Z 004f8f01 f   nafxcwd:wincore.obj
 0001:000f7fa1       ?GetScrollInfo@CWnd@@QAEHHPAUtagSCROLLINFO@@I@Z 004f8fa1 f   nafxcwd:wincore.obj
 0001:000f8041       ?GetScrollLimit@CWnd@@QAEHH@Z 004f9041 f   nafxcwd:wincore.obj
 0001:000f80a2       ?ScrollWindow@CWnd@@QAEXHHPBUtagRECT@@0@Z 004f90a2 f   nafxcwd:wincore.obj
 0001:000f81b8       ?RepositionBars@CWnd@@QAEXIIIIPAUtagRECT@@PBU2@H@Z 004f91b8 f   nafxcwd:wincore.obj
 0001:000f8402       ?AfxRepositionWindow@@YGXPAUAFX_SIZEPARENTPARAMS@@PAUHWND__@@PBUtagRECT@@@Z 004f9402 f   nafxcwd:wincore.obj
 0001:000f8569       ?CalcWindowRect@CWnd@@UAEXPAUtagRECT@@I@Z 004f9569 f   nafxcwd:wincore.obj
 0001:000f85ab       ?HandleFloatingSysCommand@CWnd@@QAEHIJ@Z 004f95ab f   nafxcwd:wincore.obj
 0001:000f8778       ?WalkPreTranslateTree@CWnd@@SGHPAUHWND__@@PAUtagMSG@@@Z 004f9778 f   nafxcwd:wincore.obj
 0001:000f8832       ?SendChildNotifyLastMsg@CWnd@@QAEHPAJ@Z 004f9832 f   nafxcwd:wincore.obj
 0001:000f8875       ?ReflectLastMsg@CWnd@@KGHPAUHWND__@@PAJ@Z 004f9875 f   nafxcwd:wincore.obj
 0001:000f89ba       ?OnChildNotify@CWnd@@MAEHIIJPAJ@Z 004f99ba f   nafxcwd:wincore.obj
 0001:000f8a37       ?ReflectChildNotify@CWnd@@IAEHIIJPAJ@Z 004f9a37 f   nafxcwd:wincore.obj
 0001:000f8c2f       ?OnParentNotify@CWnd@@IAEXIJ@Z 004f9c2f f   nafxcwd:wincore.obj
 0001:000f8c70       ?OnActivateTopLevel@CWnd@@IAEJIJ@Z 004f9c70 f   nafxcwd:wincore.obj
 0001:000f8caf       ?OnSysColorChange@CWnd@@IAEXXZ 004f9caf f   nafxcwd:wincore.obj
 0001:000f8d4a       ?OnSettingChange@CWnd@@IAEXIPBD@Z 004f9d4a f   nafxcwd:wincore.obj
 0001:000f8daf       ?OnWinIniChange@CWnd@@IAEXPBD@Z 004f9daf f   nafxcwd:wincore.obj
 0001:000f8e0a       ?OnDevModeChange@CWnd@@IAEXPAD@Z 004f9e0a f   nafxcwd:wincore.obj
 0001:000f8e78       ?OnHelpInfo@CWnd@@IAEHPAUtagHELPINFO@@@Z 004f9e78 f   nafxcwd:wincore.obj
 0001:000f8ef6       ?OnDisplayChange@CWnd@@IAEJIJ@Z 004f9ef6 f   nafxcwd:wincore.obj
 0001:000f8f5b       ?OnDragList@CWnd@@IAEJIJ@Z 004f9f5b f   nafxcwd:wincore.obj
 0001:000f8fb7       ?OnHScroll@CWnd@@IAEXIIPAVCScrollBar@@@Z 004f9fb7 f   nafxcwd:wincore.obj
 0001:000f8fe2       ?OnVScroll@CWnd@@IAEXIIPAVCScrollBar@@@Z 004f9fe2 f   nafxcwd:wincore.obj
 0001:000f900d       ?OnEnterIdle@CWnd@@IAEXIPAV1@@Z 004fa00d f   nafxcwd:wincore.obj
 0001:000f904c       ?OnCtlColor@CWnd@@IAEPAUHBRUSH__@@PAVCDC@@PAV1@I@Z 004fa04c f   nafxcwd:wincore.obj
 0001:000f90a7       ?OnGrayCtlColor@CWnd@@QAEPAUHBRUSH__@@PAVCDC@@PAV1@I@Z 004fa0a7 f   nafxcwd:wincore.obj
 0001:000f9113       ?GrayCtlColor@CWnd@@SGHPAUHDC__@@PAUHWND__@@IPAUHBRUSH__@@K@Z 004fa113 f   nafxcwd:wincore.obj
 0001:000f91d9       ?OnQuery3dControls@CWnd@@IAEJIJ@Z 004fa1d9 f   nafxcwd:wincore.obj
 0001:000f91eb       ?UpdateData@CWnd@@QAEHH@Z  004fa1eb f   nafxcwd:wincore.obj
 0001:000f93aa       ??0CDataExchange@@QAE@PAVCWnd@@H@Z 004fa3aa f   nafxcwd:wincore.obj
 0001:000f93e8       ?CenterWindow@CWnd@@QAEXPAV1@@Z 004fa3e8 f   nafxcwd:wincore.obj
 0001:000f96d0       ?CheckAutoCenter@CWnd@@UAEHXZ 004fa6d0 f   nafxcwd:wincore.obj
 0001:000f96e0       ?ExecuteDlgInit@CWnd@@QAEHPBD@Z 004fa6e0 f   nafxcwd:wincore.obj
 0001:000f97a6       ?ExecuteDlgInit@CWnd@@QAEHPAX@Z 004fa7a6 f   nafxcwd:wincore.obj
 0001:000f9a65       ?UpdateDialogControls@CWnd@@QAEXPAVCCmdTarget@@H@Z 004faa65 f   nafxcwd:wincore.obj
 0001:000f9bcf       ?PreTranslateInput@CWnd@@QAEHPAUtagMSG@@@Z 004fabcf f   nafxcwd:wincore.obj
 0001:000f9c4d       ?RunModalLoop@CWnd@@QAEHK@Z 004fac4d f   nafxcwd:wincore.obj
 0001:000f9f13       ?ContinueModal@CWnd@@UAEHXZ 004faf13 f   nafxcwd:wincore.obj
 0001:000f9f27       ?EndModalLoop@CWnd@@UAEXH@Z 004faf27 f   nafxcwd:wincore.obj
 0001:000f9f98       ?SetOccDialogInfo@CWnd@@MAEHPAU_AFX_OCC_DIALOG_INFO@@@Z 004faf98 f   nafxcwd:wincore.obj
 0001:000f9fd0       ?_AfxRegisterWithIcon@@YGHPAUtagWNDCLASSA@@PBDI@Z 004fafd0 f   nafxcwd:wincore.obj
 0001:000fa02a       ?_AfxInitCommonControls@@YGJPAUtagINITCOMMONCONTROLSEX@@J@Z 004fb02a f   nafxcwd:wincore.obj
 0001:000fa0fb       ?AfxEndDeferRegisterClass@@YGHJ@Z 004fb0fb f   nafxcwd:wincore.obj
 0001:000fa4ca       ?IsFrameWnd@CWnd@@UBEHXZ   004fb4ca f   nafxcwd:wincore.obj
 0001:000fa4d7       ?IsFrameWnd@CFrameWnd@@UBEHXZ 004fb4d7 f   nafxcwd:wincore.obj
 0001:000fa4e7       ?IsTracking@CFrameWnd@@QBEHXZ 004fb4e7 f   nafxcwd:wincore.obj
 0001:000fa531       ?SubclassCtl3d@CWnd@@QAEHH@Z 004fb531 f   nafxcwd:wincore.obj
 0001:000fa5ee       ?SubclassDlg3d@CWnd@@QAEHK@Z 004fb5ee f   nafxcwd:wincore.obj
 0001:000fa68b       ?DragAcceptFiles@CWnd@@QAEXH@Z 004fb68b f   nafxcwd:wincore.obj
 0001:000fa6da       ?SubclassWindow@CWnd@@QAEHPAUHWND__@@@Z 004fb6da f   nafxcwd:wincore.obj
 0001:000fa808       ?SubclassDlgItem@CWnd@@QAEHIPAV1@@Z 004fb808 f   nafxcwd:wincore.obj
 0001:000fa938       ?UnsubclassWindow@CWnd@@QAEPAUHWND__@@XZ 004fb938 f   nafxcwd:wincore.obj
 0001:000fa9b0       ??_ECWnd@@UAEPAXI@Z        004fb9b0 f i nafxcwd:wincore.obj
 0001:000fa9b0       ??_GCWnd@@UAEPAXI@Z        004fb9b0 f i nafxcwd:wincore.obj
 0001:000fa9e0       ?OnAmbientProperty@CWnd@@UAEHPAVCOleControlSite@@JPAUtagVARIANT@@@Z 004fb9e0 f   nafxcwd:winocc.obj
 0001:000faa30       ?GetControlUnknown@CWnd@@QAEPAUIUnknown@@XZ 004fba30 f   nafxcwd:winocc.obj
 0001:000faa51       ?CheckDlgButton@CWnd@@QAEXHI@Z 004fba51 f   nafxcwd:winocc.obj
 0001:000faac5       ?CheckRadioButton@CWnd@@QAEXHHH@Z 004fbac5 f   nafxcwd:winocc.obj
 0001:000fab41       ?GetDlgItem@CWnd@@QBEPAV1@H@Z 004fbb41 f   nafxcwd:winocc.obj
 0001:000fabb3       ?GetDlgItem@CWnd@@QBEXHPAPAUHWND__@@@Z 004fbbb3 f   nafxcwd:winocc.obj
 0001:000fac45       ?GetDlgItemInt@CWnd@@QBEIHPAHH@Z 004fbc45 f   nafxcwd:winocc.obj
 0001:000facc1       ?GetDlgItemTextA@CWnd@@QBEHHPADH@Z 004fbcc1 f   nafxcwd:winocc.obj
 0001:000fad40       ?SendDlgItemMessageA@CWnd@@QAEJHIIJ@Z 004fbd40 f   nafxcwd:winocc.obj
 0001:000fadc7       ?SetDlgItemInt@CWnd@@QAEXHIH@Z 004fbdc7 f   nafxcwd:winocc.obj
 0001:000fae49       ?SetDlgItemTextA@CWnd@@QAEXHPBD@Z 004fbe49 f   nafxcwd:winocc.obj
 0001:000faec3       ?IsDlgButtonChecked@CWnd@@QBEIH@Z 004fbec3 f   nafxcwd:winocc.obj
 0001:000faf35       ?ScrollWindowEx@CWnd@@QAEHHHPBUtagRECT@@0PAVCRgn@@PAU2@I@Z 004fbf35 f   nafxcwd:winocc.obj
 0001:000fafda       ?IsDialogMessageA@CWnd@@QAEHPAUtagMSG@@@Z 004fbfda f   nafxcwd:winocc.obj
 0001:000fb05e       ?GetStyle@CWnd@@QBEKXZ     004fc05e f   nafxcwd:winocc.obj
 0001:000fb0c5       ?GetExStyle@CWnd@@QBEKXZ   004fc0c5 f   nafxcwd:winocc.obj
 0001:000fb12c       ?ModifyStyle@CWnd@@QAEHKKI@Z 004fc12c f   nafxcwd:winocc.obj
 0001:000fb1ad       ?ModifyStyleEx@CWnd@@QAEHKKI@Z 004fc1ad f   nafxcwd:winocc.obj
 0001:000fb22e       ?SetWindowTextA@CWnd@@QAEXPBD@Z 004fc22e f   nafxcwd:winocc.obj
 0001:000fb2a0       ?GetWindowTextA@CWnd@@QBEHPADH@Z 004fc2a0 f   nafxcwd:winocc.obj
 0001:000fb31a       ?GetWindowTextLengthA@CWnd@@QBEHXZ 004fc31a f   nafxcwd:winocc.obj
 0001:000fb382       ?GetDlgCtrlID@CWnd@@QBEHXZ 004fc382 f   nafxcwd:winocc.obj
 0001:000fb3ea       ?SetDlgCtrlID@CWnd@@QAEHH@Z 004fc3ea f   nafxcwd:winocc.obj
 0001:000fb45e       ?MoveWindow@CWnd@@QAEXHHHHH@Z 004fc45e f   nafxcwd:winocc.obj
 0001:000fb4f0       ?SetWindowPos@CWnd@@QAEHPBV1@HHHHI@Z 004fc4f0 f   nafxcwd:winocc.obj
 0001:000fb58f       ?ShowWindow@CWnd@@QAEHH@Z  004fc58f f   nafxcwd:winocc.obj
 0001:000fb601       ?IsWindowEnabled@CWnd@@QBEHXZ 004fc601 f   nafxcwd:winocc.obj
 0001:000fb669       ?EnableWindow@CWnd@@QAEHH@Z 004fc669 f   nafxcwd:winocc.obj
 0001:000fb6db       ?SetFocus@CWnd@@QAEPAV1@XZ 004fc6db f   nafxcwd:winocc.obj
 0001:000fb749       ?InvokeHelper@CWnd@@QAAXJGGPAXPBEZZ 004fc749 f   nafxcwd:winocc.obj
 0001:000fb7bd       ?GetProperty@CWnd@@QBEXJGPAX@Z 004fc7bd f   nafxcwd:winocc.obj
 0001:000fb81b       ?SetProperty@CWnd@@QAAXJGZZ 004fc81b f   nafxcwd:winocc.obj
 0001:000fb882       ?GetDSCCursor@CWnd@@QAEPAUIUnknown@@XZ 004fc882 f   nafxcwd:winocc.obj
 0001:000fb91b       ?BindDefaultProperty@CWnd@@QAEXJGPBDPAV1@@Z 004fc91b f   nafxcwd:winocc.obj
 0001:000fb976       ?BindProperty@CWnd@@QAEXJPAV1@@Z 004fc976 f   nafxcwd:winocc.obj
 0001:000fb9c8       ?AttachControlSite@CWnd@@IAEXPAVCHandleMap@@@Z 004fc9c8 f   nafxcwd:winocc.obj
 0001:000fba26       ?AttachControlSite@CWnd@@QAEXPAV1@@Z 004fca26 f   nafxcwd:winocc.obj
 0001:000fbaa3       ?AttachControlSite@COleControlContainer@@UAEXPAVCWnd@@@Z 004fcaa3 f   nafxcwd:winocc.obj
 0001:000fbb50       ??0CCmdTarget@@QAE@XZ      004fcb50 f   nafxcwd:cmdtarg.obj
 0001:000fbbab       ??1CCmdTarget@@UAE@XZ      004fcbab f   nafxcwd:cmdtarg.obj
 0001:000fbc32       ?_AfxDispatchCmdMsg@@YGHPAVCCmdTarget@@IHP81@AEXXZPAXIPAUAFX_CMDHANDLERINFO@@@Z 004fcc32 f   nafxcwd:cmdtarg.obj
 0001:000fc18f       ?OnCmdMsg@CCmdTarget@@UAEHIHPAXPAUAFX_CMDHANDLERINFO@@@Z 004fd18f f   nafxcwd:cmdtarg.obj
 0001:000fc413       ?IsInvokeAllowed@CCmdTarget@@UAEHJ@Z 004fd413 f   nafxcwd:cmdtarg.obj
 0001:000fc425       ?GetDispatchIID@CCmdTarget@@UAEHPAU_GUID@@@Z 004fd425 f   nafxcwd:cmdtarg.obj
 0001:000fc434       ?GetTypeInfoCount@CCmdTarget@@UAEIXZ 004fd434 f   nafxcwd:cmdtarg.obj
 0001:000fc441       ?GetTypeLibCache@CCmdTarget@@UAEPAVCTypeLibCache@@XZ 004fd441 f   nafxcwd:cmdtarg.obj
 0001:000fc44e       ?GetTypeLib@CCmdTarget@@UAEJKPAPAUITypeLib@@@Z 004fd44e f   nafxcwd:cmdtarg.obj
 0001:000fc460       ?BeginWaitCursor@CCmdTarget@@QAEXXZ 004fd460 f   nafxcwd:cmdtarg.obj
 0001:000fc485       ?EndWaitCursor@CCmdTarget@@QAEXXZ 004fd485 f   nafxcwd:cmdtarg.obj
 0001:000fc4aa       ?RestoreWaitCursor@CCmdTarget@@QAEXXZ 004fd4aa f   nafxcwd:cmdtarg.obj
 0001:000fc4cf       ?GetMessageMap@CCmdTarget@@MBEPBUAFX_MSGMAP@@XZ 004fd4cf f   nafxcwd:cmdtarg.obj
 0001:000fc4df       ?GetDispatchMap@CCmdTarget@@MBEPBUAFX_DISPMAP@@XZ 004fd4df f   nafxcwd:cmdtarg.obj
 0001:000fc4ef       ?GetEventSinkMap@CCmdTarget@@MBEPBUAFX_EVENTSINKMAP@@XZ 004fd4ef f   nafxcwd:cmdtarg.obj
 0001:000fc4ff       ?GetInterfaceMap@CCmdTarget@@MBEPBUAFX_INTERFACEMAP@@XZ 004fd4ff f   nafxcwd:cmdtarg.obj
 0001:000fc50f       ?OnFinalRelease@CCmdTarget@@UAEXXZ 004fd50f f   nafxcwd:cmdtarg.obj
 0001:000fc571       ?OnCreateAggregates@CCmdTarget@@UAEHXZ 004fd571 f   nafxcwd:cmdtarg.obj
 0001:000fc581       ?GetInterfaceHook@CCmdTarget@@UAEPAUIUnknown@@PBX@Z 004fd581 f   nafxcwd:cmdtarg.obj
 0001:000fc590       ?GetConnectionMap@CCmdTarget@@MBEPBUAFX_CONNECTIONMAP@@XZ 004fd590 f   nafxcwd:cmdtarg.obj
 0001:000fc5a0       ?GetConnectionHook@CCmdTarget@@MAEPAUIConnectionPoint@@ABU_GUID@@@Z 004fd5a0 f   nafxcwd:cmdtarg.obj
 0001:000fc5af       ?GetExtraConnectionPoints@CCmdTarget@@MAEHPAVCPtrArray@@@Z 004fd5af f   nafxcwd:cmdtarg.obj
 0001:000fc5be       ?GetCommandMap@CCmdTarget@@MBEPBUAFX_OLECMDMAP@@XZ 004fd5be f   nafxcwd:cmdtarg.obj
 0001:000fc5ce       ?GetRoutingView@CCmdTarget@@IAEPAVCView@@XZ 004fd5ce f   nafxcwd:cmdtarg.obj
 0001:000fc5de       ?GetRoutingFrame@CCmdTarget@@IAEPAVCFrameWnd@@XZ 004fd5de f   nafxcwd:cmdtarg.obj
 0001:000fc5ee       ??0CCmdUI@@QAE@XZ          004fd5ee f   nafxcwd:cmdtarg.obj
 0001:000fc65f       ?Enable@CCmdUI@@UAEXH@Z    004fd65f f   nafxcwd:cmdtarg.obj
 0001:000fc74a       ?SetCheck@CCmdUI@@UAEXH@Z  004fd74a f   nafxcwd:cmdtarg.obj
 0001:000fc814       ?SetRadio@CCmdUI@@UAEXH@Z  004fd814 f   nafxcwd:cmdtarg.obj
 0001:000fc8b3       ?SetText@CCmdUI@@UAEXPBD@Z 004fd8b3 f   nafxcwd:cmdtarg.obj
 0001:000fc9f4       ?DoUpdate@CCmdUI@@QAEHPAVCCmdTarget@@H@Z 004fd9f4 f   nafxcwd:cmdtarg.obj
 0001:000fcb00       ??_ECCmdTarget@@UAEPAXI@Z  004fdb00 f i nafxcwd:cmdtarg.obj
 0001:000fcb00       ??_GCCmdTarget@@UAEPAXI@Z  004fdb00 f i nafxcwd:cmdtarg.obj
 0001:000fcb30       ?AfxDlgProc@@YGHPAUHWND__@@IIJ@Z 004fdb30 f   nafxcwd:dlgcore.obj
 0001:000fcb7c       ?GetMessageMap@CDialog@@MBEPBUAFX_MSGMAP@@XZ 004fdb7c f   nafxcwd:dlgcore.obj
 0001:000fcb8c       ?PreTranslateMessage@CDialog@@UAEHPAUtagMSG@@@Z 004fdb8c f   nafxcwd:dlgcore.obj
 0001:000fcc8d       ?OnCmdMsg@CDialog@@UAEHIHPAXPAUAFX_CMDHANDLERINFO@@@Z 004fdc8d f   nafxcwd:dlgcore.obj
 0001:000fcde2       ??0CDialog@@QAE@XZ         004fdde2 f   nafxcwd:dlgcore.obj
 0001:000fce6a       ??1CDialog@@UAE@XZ         004fde6a f   nafxcwd:dlgcore.obj
 0001:000fcee8       ?Create@CDialog@@QAEHPBDPAVCWnd@@@Z 004fdee8 f   nafxcwd:dlgcore.obj
 0001:000fd006       ?CreateIndirect@CDialog@@QAEHPAXPAVCWnd@@@Z 004fe006 f   nafxcwd:dlgcore.obj
 0001:000fd025       ?CreateIndirect@CDialog@@IAEHPAXPAVCWnd@@PAUHINSTANCE__@@@Z 004fe025 f   nafxcwd:dlgcore.obj
 0001:000fd08c       ?CreateIndirect@CDialog@@QAEHPBUDLGTEMPLATE@@PAVCWnd@@PAX@Z 004fe08c f   nafxcwd:dlgcore.obj
 0001:000fd0af       ?CreateIndirect@CDialog@@IAEHPBUDLGTEMPLATE@@PAVCWnd@@PAXPAUHINSTANCE__@@@Z 004fe0af f   nafxcwd:dlgcore.obj
 0001:000fd10d       ?CreateDlg@CWnd@@IAEHPBDPAV1@@Z 004fe10d f   nafxcwd:dlgcore.obj
 0001:000fd1bc       ?CreateDlgIndirect@CWnd@@IAEHPBUDLGTEMPLATE@@PAV1@@Z 004fe1bc f   nafxcwd:dlgcore.obj
 0001:000fd1db       ?CreateDlgIndirect@CWnd@@IAEHPBUDLGTEMPLATE@@PAV1@PAUHINSTANCE__@@@Z 004fe1db f   nafxcwd:dlgcore.obj
 0001:000fd60c       ?SetOccDialogInfo@CDialog@@MAEHPAU_AFX_OCC_DIALOG_INFO@@@Z 004fe60c f   nafxcwd:dlgcore.obj
 0001:000fd627       ??0CDialog@@QAE@PBDPAVCWnd@@@Z 004fe627 f   nafxcwd:dlgcore.obj
 0001:000fd707       ??0CDialog@@QAE@IPAVCWnd@@@Z 004fe707 f   nafxcwd:dlgcore.obj
 0001:000fd75c       ?InitModalIndirect@CDialog@@QAEHPAXPAVCWnd@@@Z 004fe75c f   nafxcwd:dlgcore.obj
 0001:000fd7f5       ?InitModalIndirect@CDialog@@QAEHPBUDLGTEMPLATE@@PAVCWnd@@PAX@Z 004fe7f5 f   nafxcwd:dlgcore.obj
 0001:000fd897       ?PreModal@CDialog@@IAEPAUHWND__@@XZ 004fe897 f   nafxcwd:dlgcore.obj
 0001:000fd90c       ?PostModal@CDialog@@IAEXXZ 004fe90c f   nafxcwd:dlgcore.obj
 0001:000fd968       ?DoModal@CDialog@@UAEHXZ   004fe968 f   nafxcwd:dlgcore.obj
 0001:000fdc17       ?EndDialog@CDialog@@QAEXH@Z 004fec17 f   nafxcwd:dlgcore.obj
 0001:000fdc82       ?HandleSetFont@CDialog@@IAEJIJ@Z 004fec82 f   nafxcwd:dlgcore.obj
 0001:000fdcaf       ?PreInitDialog@CDialog@@MAEXXZ 004fecaf f   nafxcwd:dlgcore.obj
 0001:000fdcba       ?HandleInitDialog@CDialog@@IAEJIJ@Z 004fecba f   nafxcwd:dlgcore.obj
 0001:000fddad       ?AfxHelpEnabled@@YGHXZ     004fedad f   nafxcwd:dlgcore.obj
 0001:000fde15       ?OnSetFont@CDialog@@UAEXPAVCFont@@@Z 004fee15 f   nafxcwd:dlgcore.obj
 0001:000fde22       ?OnInitDialog@CDialog@@UAEHXZ 004fee22 f   nafxcwd:dlgcore.obj
 0001:000fdee2       ?OnOK@CDialog@@MAEXXZ      004feee2 f   nafxcwd:dlgcore.obj
 0001:000fdf19       ?OnCancel@CDialog@@MAEXXZ  004fef19 f   nafxcwd:dlgcore.obj
 0001:000fdf2e       ?CheckAutoCenter@CDialog@@UAEHXZ 004fef2e f   nafxcwd:dlgcore.obj
 0001:000fe05d       ?OnCtlColor@CDialog@@IAEPAUHBRUSH__@@PAVCDC@@PAVCWnd@@I@Z 004ff05d f   nafxcwd:dlgcore.obj
 0001:000fe07e       ?OnCommandHelp@CDialog@@IAEJIJ@Z 004ff07e f   nafxcwd:dlgcore.obj
 0001:000fe0dc       ?OnHelpHitTest@CDialog@@IAEJIJ@Z 004ff0dc f   nafxcwd:dlgcore.obj
 0001:000fe101       ?AssertValid@CDialog@@UBEXXZ 004ff101 f   nafxcwd:dlgcore.obj
 0001:000fe114       ?Dump@CDialog@@UBEXAAVCDumpContext@@@Z 004ff114 f   nafxcwd:dlgcore.obj
 0001:000fe1ef       ?_AfxCheckDialogTemplate@@YGHPBDH@Z 004ff1ef f   nafxcwd:dlgcore.obj
 0001:000fe3c0       ??_GCDialog@@UAEPAXI@Z     004ff3c0 f i nafxcwd:dlgcore.obj
 0001:000fe3c0       ??_ECDialog@@UAEPAXI@Z     004ff3c0 f i nafxcwd:dlgcore.obj
 0001:000fe3f0       ?GetRuntimeClass@CObject@@UBEPAUCRuntimeClass@@XZ 004ff3f0 f   nafxcwd:objcore.obj
 0001:000fe400       ?IsKindOf@CObject@@QBEHPBUCRuntimeClass@@@Z 004ff400 f   nafxcwd:objcore.obj
 0001:000fe473       ?AfxDynamicDownCast@@YAPAVCObject@@PAUCRuntimeClass@@PAV1@@Z 004ff473 f   nafxcwd:objcore.obj
 0001:000fe495       ?AfxStaticDownCast@@YAPAVCObject@@PAUCRuntimeClass@@PAV1@@Z 004ff495 f   nafxcwd:objcore.obj
 0001:000fe4d0       ?AfxAssertValidObject@@YGXPBVCObject@@PBDH@Z 004ff4d0 f   nafxcwd:objcore.obj
 0001:000fe5da       ?AssertValid@CObject@@UBEXXZ 004ff5da f   nafxcwd:objcore.obj
 0001:000fe608       ?Dump@CObject@@UBEXAAVCDumpContext@@@Z 004ff608 f   nafxcwd:objcore.obj
 0001:000fe659       ?CreateObject@CRuntimeClass@@QAEPAVCObject@@XZ 004ff659 f   nafxcwd:objcore.obj
 0001:000fe711       ?IsSerializable@CObject@@QBEHXZ 004ff711 f   nafxcwd:objcore.obj
 0001:000fe734       ?AfxClassInit@@YGXPAUCRuntimeClass@@@Z 004ff734 f   nafxcwd:objcore.obj
 0001:000fe763       ??0AFX_CLASSINIT_COMPAT@@QAE@PAUCRuntimeClass@@@Z 004ff763 f   nafxcwd:objcore.obj
 0001:000fe79a       ?IsDerivedFrom@CRuntimeClass@@QBEHPBU1@@Z 004ff79a f   nafxcwd:objcore.obj
 0001:000fe86d       ?AfxDoForAllClasses@@YGXP6AXPBUCRuntimeClass@@PAX@Z1@Z 004ff86d f   nafxcwd:objcore.obj
 0001:000fe8c0       ?AddHead@?$CTypedSimpleList@PAUCRuntimeClass@@@@QAEXPAUCRuntimeClass@@@Z 004ff8c0 f i nafxcwd:objcore.obj
 0001:000fe8e0       ??B?$CTypedSimpleList@PAUCRuntimeClass@@@@QAEPAUCRuntimeClass@@XZ 004ff8e0 f i nafxcwd:objcore.obj
 0001:000fe900       ?GetMessageMap@CWinApp@@MBEPBUAFX_MSGMAP@@XZ 004ff900 f   nafxcwd:appcore.obj
 0001:000fe910       ?Run@CWinApp@@UAEHXZ       004ff910 f   nafxcwd:appcore.obj
 0001:000fe94e       ?WinHelpA@CWinApp@@UAEXKI@Z 004ff94e f   nafxcwd:appcore.obj
 0001:000fe9a9       ?ProcessWndProcException@CWinApp@@UAEJPAVCException@@PBUtagMSG@@@Z 004ff9a9 f   nafxcwd:appcore.obj
 0001:000fea5e       ?OnIdle@CWinApp@@UAEHJ@Z   004ffa5e f   nafxcwd:appcore.obj
 0001:000feb50       ?DevModeChange@CWinApp@@QAEXPAD@Z 004ffb50 f   nafxcwd:appcore.obj
 0001:000fec9e       ?AssertValid@CWinApp@@UBEXXZ 004ffc9e f   nafxcwd:appcore.obj
 0001:000fed39       ?Dump@CWinApp@@UBEXAAVCDumpContext@@@Z 004ffd39 f   nafxcwd:appcore.obj
 0001:000ff0a0       ?_AfxThreadEntry@@YGIPAX@Z 005000a0 f   nafxcwd:thrdcore.obj
 0001:000ff3f9       ?AfxGetThread@@YGPAVCWinThread@@XZ 005003f9 f   nafxcwd:thrdcore.obj
 0001:000ff425       ?AfxBeginThread@@YGPAVCWinThread@@P6AIPAX@Z0HIKPAU_SECURITY_ATTRIBUTES@@@Z 00500425 f   nafxcwd:thrdcore.obj
 0001:000ff564       ?AfxBeginThread@@YGPAVCWinThread@@PAUCRuntimeClass@@HIKPAU_SECURITY_ATTRIBUTES@@@Z 00500564 f   nafxcwd:thrdcore.obj
 0001:000ff67c       ?AfxEndThread@@YGXIH@Z     0050067c f   nafxcwd:thrdcore.obj
 0001:000ff720       ?AfxInitThread@@YGXXZ      00500720 f   nafxcwd:thrdcore.obj
 0001:000ff7b4       ?AfxTermThread@@YGXPAUHINSTANCE__@@@Z 005007b4 f   nafxcwd:thrdcore.obj
 0001:000ff8e4       ?CreateThread@CWinThread@@QAEHKIPAU_SECURITY_ATTRIBUTES@@@Z 005008e4 f   nafxcwd:thrdcore.obj
 0001:000ffadc       ?Delete@CWinThread@@UAEXXZ 00500adc f   nafxcwd:thrdcore.obj
 0001:000ffb1d       ?InitInstance@CWinThread@@UAEHXZ 00500b1d f   nafxcwd:thrdcore.obj
 0001:000ffb3d       ?Run@CWinThread@@UAEHXZ    00500b3d f   nafxcwd:thrdcore.obj
 0001:000ffc3c       ?IsIdleMessage@CWinThread@@UAEHPAUtagMSG@@@Z 00500c3c f   nafxcwd:thrdcore.obj
 0001:000ffcec       ?ExitInstance@CWinThread@@UAEHXZ 00500cec f   nafxcwd:thrdcore.obj
 0001:000ffd42       ?OnIdle@CWinThread@@UAEHJ@Z 00500d42 f   nafxcwd:thrdcore.obj
 0001:000fff4c       ?DispatchThreadMessage@CWinThread@@IAEXPAUtagMSG@@@Z 00500f4c f   nafxcwd:thrdcore.obj
 0001:000fff65       ?DispatchThreadMessageEx@CWinThread@@IAEHPAUtagMSG@@@Z 00500f65 f   nafxcwd:thrdcore.obj
 0001:00100090       ?PreTranslateMessage@CWinThread@@UAEHPAUtagMSG@@@Z 00501090 f   nafxcwd:thrdcore.obj
 0001:0010012d       ?ProcessWndProcException@CWinThread@@UAEJPAVCException@@PBUtagMSG@@@Z 0050112d f   nafxcwd:thrdcore.obj
 0001:00100165       ?_AfxMsgFilterHook@@YGJHIJ@Z 00501165 f   nafxcwd:thrdcore.obj
 0001:001001f5       ?IsHelpKey@@YGHPAUtagMSG@@@Z 005011f5 f   nafxcwd:thrdcore.obj
 0001:00100270       ?ProcessMessageFilter@CWinThread@@UAEHHPAUtagMSG@@@Z 00501270 f   nafxcwd:thrdcore.obj
 0001:00100438       ?GetMainWnd@CWinThread@@UAEPAVCWnd@@XZ 00501438 f   nafxcwd:thrdcore.obj
 0001:0010046a       ?PumpMessage@CWinThread@@UAEHXZ 0050146a f   nafxcwd:thrdcore.obj
 0001:00100576       ?AssertValid@CWinThread@@UBEXXZ 00501576 f   nafxcwd:thrdcore.obj
 0001:00100589       ?Dump@CWinThread@@UBEXAAVCDumpContext@@@Z 00501589 f   nafxcwd:thrdcore.obj
 0001:001007d0       ?IsEnterKey@@YAHPAUtagMSG@@@Z 005017d0 f i nafxcwd:thrdcore.obj
 0001:00100800       ?IsButtonUp@@YAHPAUtagMSG@@@Z 00501800 f i nafxcwd:thrdcore.obj
 0001:00100820       ?LoadStringA@CString@@QAEHI@Z 00501820 f   nafxcwd:winstr.obj
 0001:001008e0       ?AfxLoadString@@YGHIPADI@Z 005018e0 f   nafxcwd:winstr.obj
 0001:0010096f       ?AfxExtractSubString@@YGHAAVCString@@PBDHD@Z 0050196f f   nafxcwd:winstr.obj
 0001:00100a50       ??3CException@@SGXPAX@Z    00501a50 f   nafxcwd:except.obj
 0001:00100ac1       ??3CException@@SGXPAXPBDH@Z 00501ac1 f   nafxcwd:except.obj
 0001:00100ad1       ??0CException@@QAE@XZ      00501ad1 f   nafxcwd:except.obj
 0001:00100b04       ??0CException@@QAE@H@Z     00501b04 f   nafxcwd:except.obj
 0001:00100b38       ?Delete@CException@@QAEXXZ 00501b38 f   nafxcwd:except.obj
 0001:00100b83       ?GetErrorMessage@CException@@UAEHPADIPAI@Z 00501b83 f   nafxcwd:except.obj
 0001:00100bb3       ?ReportError@CException@@UAEHII@Z 00501bb3 f   nafxcwd:except.obj
 0001:00100c33       ??0AFX_EXCEPTION_LINK@@QAE@XZ 00501c33 f   nafxcwd:except.obj
 0001:00100c67       ?AfxTryCleanup@@YGXXZ      00501c67 f   nafxcwd:except.obj
 0001:00100cc5       ?AfxThrowLastCleanup@@YGXXZ 00501cc5 f   nafxcwd:except.obj
 0001:00100cf0       ?AfxGetExceptionContext@@YAPAUAFX_EXCEPTION_CONTEXT@@XZ 00501cf0 f i nafxcwd:except.obj
 0001:00100d20       ?Dump@CFileStatus@@QBEXAAVCDumpContext@@@Z 00501d20 f   nafxcwd:filest.obj
 0001:00100e0a       ?GetFileName@CFile@@UBE?AVCString@@XZ 00501e0a f   nafxcwd:filest.obj
 0001:00100eda       ?GetFileTitle@CFile@@UBE?AVCString@@XZ 00501eda f   nafxcwd:filest.obj
 0001:00100faa       ?GetFilePath@CFile@@UBE?AVCString@@XZ 00501faa f   nafxcwd:filest.obj
 0001:00101019       ?GetStatus@CFile@@QBEHAAUCFileStatus@@@Z 00502019 f   nafxcwd:filest.obj
 0001:001011ac       ?GetStatus@CFile@@SGHPBDAAUCFileStatus@@@Z 005021ac f   nafxcwd:filest.obj
 0001:00101308       ?AfxTimeToFileTime@@YAXABVCTime@@PAU_FILETIME@@@Z 00502308 f   nafxcwd:filest.obj
 0001:001013a0       ?SetStatus@CFile@@SGXPBDABUCFileStatus@@@Z 005023a0 f   nafxcwd:filest.obj
 0001:00101547       ?GetStatus@CMemFile@@QBEHAAUCFileStatus@@@Z 00502547 f   nafxcwd:filest.obj
 0001:001015b0       ??0CFileStatus@@QAE@XZ     005025b0 f i nafxcwd:filest.obj
 0001:001015e0       ?ThrowOsError@CFileException@@SGXJPBD@Z 005025e0 f   nafxcwd:filex.obj
 0001:00101604       ?ThrowErrno@CFileException@@SGXHPBD@Z 00502604 f   nafxcwd:filex.obj
 0001:0010162c       ?GetErrorMessage@CFileException@@UAEHPADIPAI@Z 0050262c f   nafxcwd:filex.obj
 0001:0010173b       ?Dump@CFileException@@UBEXAAVCDumpContext@@@Z 0050273b f   nafxcwd:filex.obj
 0001:001017c0       ?AfxThrowFileException@@YGXHJPBD@Z 005027c0 f   nafxcwd:filex.obj
 0001:00101893       ?ErrnoToException@CFileException@@SGHH@Z 00502893 f   nafxcwd:filex.obj
 0001:0010193e       ?OsErrorToException@CFileException@@SGHJ@Z 0050293e f   nafxcwd:filex.obj
 0001:00101ea0       ?afxMapHMENU@@YGPAVCHandleMap@@H@Z 00502ea0 f   nafxcwd:winmenu.obj
 0001:00101f69       ?FromHandle@CMenu@@SGPAV1@PAUHMENU__@@@Z 00502f69 f   nafxcwd:winmenu.obj
 0001:00101fdc       ?FromHandlePermanent@CMenu@@SGPAV1@PAUHMENU__@@@Z 00502fdc f   nafxcwd:winmenu.obj
 0001:0010203f       ?AssertValid@CMenu@@UBEXXZ 0050303f f   nafxcwd:winmenu.obj
 0001:00102089       ?Dump@CMenu@@UBEXAAVCDumpContext@@@Z 00503089 f   nafxcwd:winmenu.obj
 0001:001020ca       ?Attach@CMenu@@QAEHPAUHMENU__@@@Z 005030ca f   nafxcwd:winmenu.obj
 0001:0010214e       ?Detach@CMenu@@QAEPAUHMENU__@@XZ 0050314e f   nafxcwd:winmenu.obj
 0001:00102196       ?DestroyMenu@CMenu@@QAEHXZ 00503196 f   nafxcwd:winmenu.obj
 0001:001021bd       ?DrawItem@CMenu@@UAEXPAUtagDRAWITEMSTRUCT@@@Z 005031bd f   nafxcwd:winmenu.obj
 0001:001021ca       ?MeasureItem@CMenu@@UAEXPAUtagMEASUREITEMSTRUCT@@@Z 005031ca f   nafxcwd:winmenu.obj
 0001:001021e0       ?AfxLockTempMaps@@YGXXZ    005031e0 f   nafxcwd:winhand.obj
 0001:001021ff       ?AfxUnlockTempMaps@@YGHH@Z 005031ff f   nafxcwd:winhand.obj
 0001:001023bc       ??0CHandleMap@@QAE@PAUCRuntimeClass@@IH@Z 005033bc f   nafxcwd:winhand.obj
 0001:00102490       ?FromHandle@CHandleMap@@QAEPAVCObject@@PAX@Z 00503490 f   nafxcwd:winhand.obj
 0001:001026ba       ?SetPermanent@CHandleMap@@QAEXPAXPAVCObject@@@Z 005036ba f   nafxcwd:winhand.obj
 0001:001026f0       ?RemoveHandle@CHandleMap@@QAEXPAX@Z 005036f0 f   nafxcwd:winhand.obj
 0001:001027d4       ?DeleteTemp@CHandleMap@@QAEXXZ 005037d4 f   nafxcwd:winhand.obj
 0001:0010290a       ?DeleteTempMap@CWnd@@SGXXZ 0050390a f   nafxcwd:winhand.obj
 0001:00102925       ?DeleteTempMap@CImageList@@SGXXZ 00503925 f   nafxcwd:winhand.obj
 0001:00102940       ?DeleteTempMap@CDC@@SGXXZ  00503940 f   nafxcwd:winhand.obj
 0001:0010295b       ?DeleteTempMap@CGdiObject@@SGXXZ 0050395b f   nafxcwd:winhand.obj
 0001:00102976       ?DeleteTempMap@CMenu@@SGXXZ 00503976 f   nafxcwd:winhand.obj
 0001:001029a0       ?UpdateSysColors@AUX_DATA@@QAEXXZ 005039a0 f   nafxcwd:auxdata.obj
 0001:00102a53       ?UpdateSysMetrics@AUX_DATA@@QAEXXZ 00503a53 f   nafxcwd:auxdata.obj
 0001:00102b00       ?_AfxConvertDialogUnitsToPixels@@YGXPBDGHHPAUtagSIZE@@@Z 00503b00 f   nafxcwd:dlgtempl.obj
 0001:00102c49       ??0CDialogTemplate@@QAE@PBUDLGTEMPLATE@@@Z 00503c49 f   nafxcwd:dlgtempl.obj
 0001:00102c97       ??0CDialogTemplate@@QAE@PAX@Z 00503c97 f   nafxcwd:dlgtempl.obj
 0001:00102cfe       ?SetTemplate@CDialogTemplate@@IAEHPBUDLGTEMPLATE@@I@Z 00503cfe f   nafxcwd:dlgtempl.obj
 0001:00102d87       ??1CDialogTemplate@@QAE@XZ 00503d87 f   nafxcwd:dlgtempl.obj
 0001:00102da6       ?Load@CDialogTemplate@@QAEHPBD@Z 00503da6 f   nafxcwd:dlgtempl.obj
 0001:00102e35       ?Detach@CDialogTemplate@@QAEPAXXZ 00503e35 f   nafxcwd:dlgtempl.obj
 0001:00102e56       ?HasFont@CDialogTemplate@@QBEHXZ 00503e56 f   nafxcwd:dlgtempl.obj
 0001:00102e90       ?GetFontSizeField@CDialogTemplate@@KAPAEPBUDLGTEMPLATE@@@Z 00503e90 f   nafxcwd:dlgtempl.obj
 0001:00102f41       ?GetTemplateSize@CDialogTemplate@@KAIPBUDLGTEMPLATE@@@Z 00503f41 f   nafxcwd:dlgtempl.obj
 0001:00103082       ?GetFont@CDialogTemplate@@SAHPBUDLGTEMPLATE@@AAVCString@@AAG@Z 00504082 f   nafxcwd:dlgtempl.obj
 0001:0010312c       ?GetFont@CDialogTemplate@@QBEHAAVCString@@AAG@Z 0050412c f   nafxcwd:dlgtempl.obj
 0001:00103198       ?SetFont@CDialogTemplate@@QAEHPBDG@Z 00504198 f   nafxcwd:dlgtempl.obj
 0001:0010336a       ?SetSystemFont@CDialogTemplate@@QAEHG@Z 0050436a f   nafxcwd:dlgtempl.obj
 0001:0010342a       ?GetSizeInDialogUnits@CDialogTemplate@@QBEXPAUtagSIZE@@@Z 0050442a f   nafxcwd:dlgtempl.obj
 0001:001034f1       ?GetSizeInPixels@CDialogTemplate@@QBEXPAUtagSIZE@@@Z 005044f1 f   nafxcwd:dlgtempl.obj
 0001:00103640       ?IsDialogEx@@YAHPBUDLGTEMPLATE@@@Z 00504640 f i nafxcwd:dlgtempl.obj
 0001:00103660       ?HasFont@@YAHPBUDLGTEMPLATE@@@Z 00504660 f i nafxcwd:dlgtempl.obj
 0001:001036a0       ?FontAttrSize@@YAHH@Z      005046a0 f i nafxcwd:dlgtempl.obj
 0001:001036c0       ?_SkipString@@YAPAGPAG@Z   005046c0 f i nafxcwd:dlgtempl.obj
 0001:001036e0       ?_AfxAbbreviateName@@YGXPADHH@Z 005046e0 f   nafxcwd:filelist.obj
 0001:0010392a       ??0CRecentFileList@@QAE@IPBD0HH@Z 0050492a f   nafxcwd:filelist.obj
 0001:00103a69       ??1CRecentFileList@@UAE@XZ 00504a69 f   nafxcwd:filelist.obj
 0001:00103b00       ?Add@CRecentFileList@@UAEXPBD@Z 00504b00 f   nafxcwd:filelist.obj
 0001:00103ca2       ?Remove@CRecentFileList@@UAEXH@Z 00504ca2 f   nafxcwd:filelist.obj
 0001:00103d83       ?GetDisplayName@CRecentFileList@@QBEHAAVCString@@HPBDHH@Z 00504d83 f   nafxcwd:filelist.obj
 0001:00103f6d       ?UpdateMenu@CRecentFileList@@UAEXPAVCCmdUI@@@Z 00504f6d f   nafxcwd:filelist.obj
 0001:001043f3       ?WriteList@CRecentFileList@@UAEXXZ 005053f3 f   nafxcwd:filelist.obj
 0001:0010454b       ?ReadList@CRecentFileList@@UAEXXZ 0050554b f   nafxcwd:filelist.obj
 0001:001046d0       ??_GCRecentFileList@@UAEPAXI@Z 005056d0 f i nafxcwd:filelist.obj
 0001:001046d0       ??_ECRecentFileList@@UAEPAXI@Z 005056d0 f i nafxcwd:filelist.obj
 0001:00104700       ??_ECString@@QAEPAXI@Z     00505700 f i nafxcwd:filelist.obj
 0001:00104770       ?AfxWinMain@@YGHPAUHINSTANCE__@@0PADH@Z 00505770 f   nafxcwd:winmain.obj
 0001:0010a780       ??6@YGAAVCDumpContext@@AAV0@UtagSIZE@@@Z 0050b780 f   nafxcwd:wingdi.obj
 0001:0010a7c2       ??6@YGAAVCDumpContext@@AAV0@UtagPOINT@@@Z 0050b7c2 f   nafxcwd:wingdi.obj
 0001:0010a804       ??6@YGAAVCDumpContext@@AAV0@ABUtagRECT@@@Z 0050b804 f   nafxcwd:wingdi.obj
 0001:0010a87f       ??0CDC@@QAE@XZ             0050b87f f   nafxcwd:wingdi.obj
 0001:0010a8bc       ?AssertValid@CDC@@UBEXXZ   0050b8bc f   nafxcwd:wingdi.obj
 0001:0010a8cf       ?Dump@CDC@@UBEXAAVCDumpContext@@@Z 0050b8cf f   nafxcwd:wingdi.obj
 0001:0010a946       ?afxMapHDC@@YGPAVCHandleMap@@H@Z 0050b946 f   nafxcwd:wingdi.obj
 0001:0010aa04       ?FromHandle@CDC@@SGPAV1@PAUHDC__@@@Z 0050ba04 f   nafxcwd:wingdi.obj
 0001:0010aa77       ?Attach@CDC@@QAEHPAUHDC__@@@Z 0050ba77 f   nafxcwd:wingdi.obj
 0001:0010ab2d       ?Detach@CDC@@QAEPAUHDC__@@XZ 0050bb2d f   nafxcwd:wingdi.obj
 0001:0010ab80       ?DeleteDC@CDC@@QAEHXZ      0050bb80 f   nafxcwd:wingdi.obj
 0001:0010aba7       ??1CDC@@UAE@XZ             0050bba7 f   nafxcwd:wingdi.obj
 0001:0010ac08       ?SetAttribDC@CDC@@UAEXPAUHDC__@@@Z 0050bc08 f   nafxcwd:wingdi.obj
 0001:0010ac1e       ?SetOutputDC@CDC@@UAEXPAUHDC__@@@Z 0050bc1e f   nafxcwd:wingdi.obj
 0001:0010ac95       ?ReleaseAttribDC@CDC@@UAEXXZ 0050bc95 f   nafxcwd:wingdi.obj
 0001:0010acaa       ?ReleaseOutputDC@CDC@@UAEXXZ 0050bcaa f   nafxcwd:wingdi.obj
 0001:0010ad20       ?StartDocA@CDC@@QAEHPBD@Z  0050bd20 f   nafxcwd:wingdi.obj
 0001:0010ad58       ?SaveDC@CDC@@UAEHXZ        0050bd58 f   nafxcwd:wingdi.obj
 0001:0010add7       ?RestoreDC@CDC@@UAEHH@Z    0050bdd7 f   nafxcwd:wingdi.obj
 0001:0010aea3       ?SelectGdiObject@CDC@@KGPAVCGdiObject@@PAUHDC__@@PAX@Z 0050bea3 f   nafxcwd:wingdi.obj
 0001:0010aebe       ?SelectStockObject@CDC@@UAEPAVCGdiObject@@H@Z 0050bebe f   nafxcwd:wingdi.obj
 0001:0010af72       ?SelectObject@CDC@@QAEPAVCPen@@PAV2@@Z 0050bf72 f   nafxcwd:wingdi.obj
 0001:0010b003       ?SelectObject@CDC@@QAEPAVCBrush@@PAV2@@Z 0050c003 f   nafxcwd:wingdi.obj
 0001:0010b094       ?SelectObject@CDC@@UAEPAVCFont@@PAV2@@Z 0050c094 f   nafxcwd:wingdi.obj
 0001:0010b125       ?SelectObject@CDC@@QAEHPAVCRgn@@@Z 0050c125 f   nafxcwd:wingdi.obj
 0001:0010b1b0       ?SelectPalette@CDC@@QAEPAVCPalette@@PAV2@H@Z 0050c1b0 f   nafxcwd:wingdi.obj
 0001:0010b206       ?SetBkColor@CDC@@UAEKK@Z   0050c206 f   nafxcwd:wingdi.obj
 0001:0010b287       ?SetBkMode@CDC@@QAEHH@Z    0050c287 f   nafxcwd:wingdi.obj
 0001:0010b308       ?SetPolyFillMode@CDC@@QAEHH@Z 0050c308 f   nafxcwd:wingdi.obj
 0001:0010b389       ?SetROP2@CDC@@QAEHH@Z      0050c389 f   nafxcwd:wingdi.obj
 0001:0010b40a       ?SetStretchBltMode@CDC@@QAEHH@Z 0050c40a f   nafxcwd:wingdi.obj
 0001:0010b48b       ?SetTextColor@CDC@@UAEKK@Z 0050c48b f   nafxcwd:wingdi.obj
 0001:0010b50c       ?SetMapMode@CDC@@UAEHH@Z   0050c50c f   nafxcwd:wingdi.obj
 0001:0010b58d       ?SetViewportOrg@CDC@@UAE?AVCPoint@@HH@Z 0050c58d f   nafxcwd:wingdi.obj
 0001:0010b663       ?OffsetViewportOrg@CDC@@UAE?AVCPoint@@HH@Z 0050c663 f   nafxcwd:wingdi.obj
 0001:0010b739       ?SetViewportExt@CDC@@UAE?AVCSize@@HH@Z 0050c739 f   nafxcwd:wingdi.obj
 0001:0010b80f       ?ScaleViewportExt@CDC@@UAE?AVCSize@@HHHH@Z 0050c80f f   nafxcwd:wingdi.obj
 0001:0010b8f5       ?SetWindowOrg@CDC@@QAE?AVCPoint@@HH@Z 0050c8f5 f   nafxcwd:wingdi.obj
 0001:0010b9cb       ?OffsetWindowOrg@CDC@@QAE?AVCPoint@@HH@Z 0050c9cb f   nafxcwd:wingdi.obj
 0001:0010baa1       ?SetWindowExt@CDC@@UAE?AVCSize@@HH@Z 0050caa1 f   nafxcwd:wingdi.obj
 0001:0010bb77       ?ScaleWindowExt@CDC@@UAE?AVCSize@@HHHH@Z 0050cb77 f   nafxcwd:wingdi.obj
 0001:0010bc5d       ?GetClipBox@CDC@@UBEHPAUtagRECT@@@Z 0050cc5d f   nafxcwd:wingdi.obj
 0001:0010bca4       ?SelectClipRgn@CDC@@QAEHPAVCRgn@@@Z 0050cca4 f   nafxcwd:wingdi.obj
 0001:0010bd2f       ?ExcludeClipRect@CDC@@QAEHHHHH@Z 0050cd2f f   nafxcwd:wingdi.obj
 0001:0010bdc8       ?ExcludeClipRect@CDC@@QAEHPBUtagRECT@@@Z 0050cdc8 f   nafxcwd:wingdi.obj
 0001:0010be77       ?IntersectClipRect@CDC@@QAEHHHHH@Z 0050ce77 f   nafxcwd:wingdi.obj
 0001:0010bf10       ?IntersectClipRect@CDC@@QAEHPBUtagRECT@@@Z 0050cf10 f   nafxcwd:wingdi.obj
 0001:0010bfbf       ?OffsetClipRgn@CDC@@QAEHHH@Z 0050cfbf f   nafxcwd:wingdi.obj
 0001:0010c048       ?OffsetClipRgn@CDC@@QAEHUtagSIZE@@@Z 0050d048 f   nafxcwd:wingdi.obj
 0001:0010c0d1       ?MoveTo@CDC@@QAE?AVCPoint@@HH@Z 0050d0d1 f   nafxcwd:wingdi.obj
 0001:0010c1a7       ?LineTo@CDC@@QAEHHH@Z      0050d1a7 f   nafxcwd:wingdi.obj
 0001:0010c220       ?SetTextAlign@CDC@@QAEII@Z 0050d220 f   nafxcwd:wingdi.obj
 0001:0010c29e       ?SetTextJustification@CDC@@QAEHHH@Z 0050d29e f   nafxcwd:wingdi.obj
 0001:0010c327       ?SetTextCharacterExtra@CDC@@QAEHH@Z 0050d327 f   nafxcwd:wingdi.obj
 0001:0010c3a8       ?SetMapperFlags@CDC@@QAEKK@Z 0050d3a8 f   nafxcwd:wingdi.obj
 0001:0010c429       ?GetLayout@CDC@@QBEKXZ     0050d429 f   nafxcwd:wingdi.obj
 0001:0010c4cd       ?SetLayout@CDC@@QAEKK@Z    0050d4cd f   nafxcwd:wingdi.obj
 0001:0010c57d       ?ScreenToClient@CWnd@@QBEXPAUtagRECT@@@Z 0050d57d f   nafxcwd:wingdi.obj
 0001:0010c5fd       ?ClientToScreen@CWnd@@QBEXPAUtagRECT@@@Z 0050d5fd f   nafxcwd:wingdi.obj
 0001:0010c67d       ?ArcTo@CDC@@QAEHHHHHHHHH@Z 0050d67d f   nafxcwd:wingdi.obj
 0001:0010c762       ?SetArcDirection@CDC@@QAEHH@Z 0050d762 f   nafxcwd:wingdi.obj
 0001:0010c7e3       ?PolyDraw@CDC@@QAEHPBUtagPOINT@@PBEH@Z 0050d7e3 f   nafxcwd:wingdi.obj
 0001:0010c8b4       ?PolylineTo@CDC@@QAEHPBUtagPOINT@@H@Z 0050d8b4 f   nafxcwd:wingdi.obj
 0001:0010c981       ?SetColorAdjustment@CDC@@QAEHPBUtagCOLORADJUSTMENT@@@Z 0050d981 f   nafxcwd:wingdi.obj
 0001:0010ca02       ?PolyBezierTo@CDC@@QAEHPBUtagPOINT@@H@Z 0050da02 f   nafxcwd:wingdi.obj
 0001:0010cacf       ?SelectClipPath@CDC@@QAEHH@Z 0050dacf f   nafxcwd:wingdi.obj
 0001:0010cb96       ?SelectClipRgn@CDC@@QAEHPAVCRgn@@H@Z 0050db96 f   nafxcwd:wingdi.obj
 0001:0010cc29       ?AfxEnumMetaFileProc@@YGHPAUHDC__@@PAUtagHANDLETABLE@@PAUtagMETARECORD@@HJ@Z 0050dc29 f   nafxcwd:wingdi.obj
 0001:0010cf85       ?PlayMetaFile@CDC@@QAEHPAUHMETAFILE__@@@Z 0050df85 f   nafxcwd:wingdi.obj
 0001:0010cfd3       ?LPtoDP@CDC@@QBEXPAUtagSIZE@@@Z 0050dfd3 f   nafxcwd:wingdi.obj
 0001:0010d083       ?DPtoLP@CDC@@QBEXPAUtagSIZE@@@Z 0050e083 f   nafxcwd:wingdi.obj
 0001:0010d133       ?AssertValid@CClientDC@@UBEXXZ 0050e133 f   nafxcwd:wingdi.obj
 0001:0010d180       ?Dump@CClientDC@@UBEXAAVCDumpContext@@@Z 0050e180 f   nafxcwd:wingdi.obj
 0001:0010d1c1       ??0CClientDC@@QAE@PAVCWnd@@@Z 0050e1c1 f   nafxcwd:wingdi.obj
 0001:0010d273       ??1CClientDC@@UAE@XZ       0050e273 f   nafxcwd:wingdi.obj
 0001:0010d2fb       ?AssertValid@CWindowDC@@UBEXXZ 0050e2fb f   nafxcwd:wingdi.obj
 0001:0010d348       ?Dump@CWindowDC@@UBEXAAVCDumpContext@@@Z 0050e348 f   nafxcwd:wingdi.obj
 0001:0010d389       ??0CWindowDC@@QAE@PAVCWnd@@@Z 0050e389 f   nafxcwd:wingdi.obj
 0001:0010d43b       ??1CWindowDC@@UAE@XZ       0050e43b f   nafxcwd:wingdi.obj
 0001:0010d4c3       ?AssertValid@CPaintDC@@UBEXXZ 0050e4c3 f   nafxcwd:wingdi.obj
 0001:0010d507       ?Dump@CPaintDC@@UBEXAAVCDumpContext@@@Z 0050e507 f   nafxcwd:wingdi.obj
 0001:0010d5a3       ??0CPaintDC@@QAE@PAVCWnd@@@Z 0050e5a3 f   nafxcwd:wingdi.obj
 0001:0010d667       ??1CPaintDC@@UAE@XZ        0050e667 f   nafxcwd:wingdi.obj
 0001:0010d720       ?Dump@CGdiObject@@UBEXAAVCDumpContext@@@Z 0050e720 f   nafxcwd:wingdi.obj
 0001:0010d761       ?AssertValid@CGdiObject@@UBEXXZ 0050e761 f   nafxcwd:wingdi.obj
 0001:0010d7b7       ?afxMapHGDIOBJ@@YGPAVCHandleMap@@H@Z 0050e7b7 f   nafxcwd:wingdi.obj
 0001:0010d875       ?FromHandle@CGdiObject@@SGPAV1@PAX@Z 0050e875 f   nafxcwd:wingdi.obj
 0001:0010d8ee       ?Attach@CGdiObject@@QAEHPAX@Z 0050e8ee f   nafxcwd:wingdi.obj
 0001:0010d978       ?Detach@CGdiObject@@QAEPAXXZ 0050e978 f   nafxcwd:wingdi.obj
 0001:0010d9c0       ?DeleteObject@CGdiObject@@QAEHXZ 0050e9c0 f   nafxcwd:wingdi.obj
 0001:0010d9e7       ??0CPen@@QAE@HHK@Z         0050e9e7 f   nafxcwd:wingdi.obj
 0001:0010da59       ??0CPen@@QAE@HHPBUtagLOGBRUSH@@HPBK@Z 0050ea59 f   nafxcwd:wingdi.obj
 0001:0010dad3       ?Dump@CPen@@UBEXAAVCDumpContext@@@Z 0050ead3 f   nafxcwd:wingdi.obj
 0001:0010dbb0       ??0CBrush@@QAE@K@Z         0050ebb0 f   nafxcwd:wingdi.obj
 0001:0010dc1a       ??0CBrush@@QAE@HK@Z        0050ec1a f   nafxcwd:wingdi.obj
 0001:0010dc88       ??0CBrush@@QAE@PAVCBitmap@@@Z 0050ec88 f   nafxcwd:wingdi.obj
 0001:0010dd08       ?CreateDIBPatternBrush@CBrush@@QAEHPAXI@Z 0050ed08 f   nafxcwd:wingdi.obj
 0001:0010dd91       ?Dump@CBrush@@UBEXAAVCDumpContext@@@Z 0050ed91 f   nafxcwd:wingdi.obj
 0001:0010de6e       ?Dump@CFont@@UBEXAAVCDumpContext@@@Z 0050ee6e f   nafxcwd:wingdi.obj
 0001:0010e080       ?Dump@CBitmap@@UBEXAAVCDumpContext@@@Z 0050f080 f   nafxcwd:wingdi.obj
 0001:0010e1a7       ?AfxThrowResourceException@@YGXXZ 0050f1a7 f   nafxcwd:wingdi.obj
 0001:0010e1c4       ?AfxThrowUserException@@YGXXZ 0050f1c4 f   nafxcwd:wingdi.obj
 0001:0010e1f0       ??_GCDC@@UAEPAXI@Z         0050f1f0 f i nafxcwd:wingdi.obj
 0001:0010e1f0       ??_ECDC@@UAEPAXI@Z         0050f1f0 f i nafxcwd:wingdi.obj
 0001:0010e220       ??_GCClientDC@@UAEPAXI@Z   0050f220 f i nafxcwd:wingdi.obj
 0001:0010e220       ??_ECClientDC@@UAEPAXI@Z   0050f220 f i nafxcwd:wingdi.obj
 0001:0010e250       ??_GCWindowDC@@UAEPAXI@Z   0050f250 f i nafxcwd:wingdi.obj
 0001:0010e250       ??_ECWindowDC@@UAEPAXI@Z   0050f250 f i nafxcwd:wingdi.obj
 0001:0010e280       ??_ECPaintDC@@UAEPAXI@Z    0050f280 f i nafxcwd:wingdi.obj
 0001:0010e280       ??_GCPaintDC@@UAEPAXI@Z    0050f280 f i nafxcwd:wingdi.obj
 0001:0010e2b0       ??6@YGAAVCArchive@@AAV0@ABVCString@@@Z 0050f2b0 f   nafxcwd:arccore.obj
 0001:0010e35e       ?_AfxReadStringLength@@YGIAAVCArchive@@@Z 0050f35e f   nafxcwd:arccore.obj
 0001:0010e3db       ??5@YGAAVCArchive@@AAV0@AAVCString@@@Z 0050f3db f   nafxcwd:arccore.obj
 0001:0010e501       ?SerializeElements@@YGXAAVCArchive@@PAVCString@@H@Z 0050f501 f   nafxcwd:arccore.obj
 0001:0010e5a6       ?Load@CRuntimeClass@@SGPAU1@AAVCArchive@@PAI@Z 0050f5a6 f   nafxcwd:arccore.obj
 0001:0010e685       ?Store@CRuntimeClass@@QBEXAAVCArchive@@@Z 0050f685 f   nafxcwd:arccore.obj
 0001:0010e6d8       ??0CArchive@@QAE@PAVCFile@@IHPAX@Z 0050f6d8 f   nafxcwd:arccore.obj
 0001:0010e926       ??1CArchive@@QAE@XZ        0050f926 f   nafxcwd:arccore.obj
 0001:0010e98f       ?Abort@CArchive@@QAEXXZ    0050f98f f   nafxcwd:arccore.obj
 0001:0010eb3d       ?Close@CArchive@@QAEXXZ    0050fb3d f   nafxcwd:arccore.obj
 0001:0010eb70       ?Read@CArchive@@QAEIPAXI@Z 0050fb70 f   nafxcwd:arccore.obj
 0001:0010efc6       ?Write@CArchive@@QAEXPBXI@Z 0050ffc6 f   nafxcwd:arccore.obj
 0001:0010f305       ?Flush@CArchive@@QAEXXZ    00510305 f   nafxcwd:arccore.obj
 0001:0010f55a       ?FillBuffer@CArchive@@QAEXI@Z 0051055a f   nafxcwd:arccore.obj
 0001:0010f8cb       ?WriteCount@CArchive@@QAEXK@Z 005108cb f   nafxcwd:arccore.obj
 0001:0010f909       ?ReadCount@CArchive@@QAEKXZ 00510909 f   nafxcwd:arccore.obj
